******************************************************************************
                  TI ARM Linker PC v5.1.5                      
******************************************************************************
>> Linked Thu Jul 17 15:41:26 2014

OUTPUT FILE NAME:   <BLDC.out>
ENTRY POINT SYMBOL: "_c_int00"  address: 00002595


MEMORY CONFIGURATION

         name            origin    length      used     unused   attr    fill
----------------------  --------  ---------  --------  --------  ----  --------
  FLASH                 00000000   00040000  00002fda  0003d026  R  X
  SRAM                  20000000   00008000  00000aa8  00007558  RW X


SEGMENT ALLOCATION MAP

run origin  load origin   length   init length attrs members
----------  ----------- ---------- ----------- ----- -------
00000000    00000000    00002fe0   00002fe0    r-x
  00000000    00000000    0000026c   0000026c    r-- .intvecs
  0000026c    0000026c    000026ca   000026ca    r-x .text
  00002938    00002938    00000654   00000654    r-- .const
  00002f90    00002f90    00000050   00000050    r-- .cinit
20000000    20000000    00000aa8   00000000    rw-
  20000000    20000000    0000026c   00000000    rw- .vtable
  2000026c    2000026c    00000800   00000000    rw- .stack
  20000a6c    20000a6c    00000020   00000000    rw- .data
  20000a8c    20000a8c    00000014   00000000    rw- .bss
  20000aa0    20000aa0    00000008   00000000    rw- .sysmem


SECTION ALLOCATION MAP

 output                                  attributes/
section   page    origin      length       input sections
--------  ----  ----------  ----------   ----------------
.intvecs   0    00000000    0000026c     
                  00000000    0000026c     tm4c123ah6pm_startup_ccs.obj (.intvecs)

.init_array 
*          0    00000000    00000000     UNINITIALIZED

.text      0    0000026c    000026ca     
                  0000026c    00000804     PWM.obj (.text)
                  00000a70    0000045a     ADC.obj (.text)
                  00000eca    00000002     --HOLE-- [fill = 0]
                  00000ecc    000003cc     rtsv7M4_T_le_v4SPD16_eabi.lib : memory.obj (.text)
                  00001298    000003ae     CommutationController.obj (.text)
                  00001646    000002f4     Commutator.obj (.text)
                  0000193a    000001fe     driverlib.lib : gpio.obj (.text:GPIOPadConfigSet)
                  00001b38    00000124     LED.obj (.text)
                  00001c5c    00000108     driverlib.lib : sysctl.obj (.text:SysCtlClockSet)
                  00001d64    000000f2     motor.obj (.text)
                  00001e56    000000ee     ZCDetector.obj (.text)
                  00001f44    000000d0     driverlib.lib : timer.obj (.text:TimerIntRegister)
                  00002014    000000bc     rtsv7M4_T_le_v4SPD16_eabi.lib : typeinfo_.obj (.text)
                  000020d0    0000009c                                   : memcpy_t2.obj (.text)
                  0000216c    00000094                                   : auto_init.obj (.text)
                  00002200    0000007e     driverlib.lib : adc.obj (.text:ADCSequenceStepConfigure)
                  0000227e    0000007c                   : interrupt.obj (.text:IntEnable)
                  000022fa    00000076     main.obj (.text)
                  00002370    0000006e     driverlib.lib : timer.obj (.text:TimerConfigure)
                  000023de    00000064                   : adc.obj (.text:ADCIntRegister)
                  00002442    0000005e     rtsv7M4_T_le_v4SPD16_eabi.lib : copy_decompress_rle.obj (.text)
                  000024a0    00000054     driverlib.lib : adc.obj (.text:ADCSequenceConfigure)
                  000024f4    00000052                   : gpio.obj (.text:GPIOPinConfigure)
                  00002546    0000004e                   : interrupt.obj (.text:IntRegister)
                  00002594    00000048     rtsv7M4_T_le_v4SPD16_eabi.lib : boot.obj (.text)
                  000025dc    00000044                                   : cpy_tbl.obj (.text)
                  00002620    00000044                                   : exit.obj (.text)
                  00002664    00000034     driverlib.lib : sysctl.obj (.text:SysCtlPeripheralEnable)
                  00002698    00000030     ADC.obj (.text:retain)
                  000026c8    00000030     CommutationController.obj (.text:retain)
                  000026f8    0000002c     driverlib.lib : pwm.obj (.text:PWMGenConfigure)
                  00002724    00000022                   : adc.obj (.text:ADCSequenceDataGet)
                  00002746    00000022                   : gpio.obj (.text:GPIOPinTypeGPIOOutput)
                  00002768    0000001e                   : gpio.obj (.text:GPIOPinTypeADC)
                  00002786    0000001e                   : pwm.obj (.text:PWMPulseWidthSet)
                  000027a4    0000001c                   : gpio.obj (.text:GPIOPinTypePWM)
                  000027c0    00000018     rtsv7M4_T_le_v4SPD16_eabi.lib : args_main.obj (.text)
                  000027d8    00000016     driverlib.lib : pwm.obj (.text:PWMOutputInvert)
                  000027ee    00000016                   : pwm.obj (.text:PWMOutputState)
                  00002804    00000014                   : sysctl.obj (.text:SysCtlPWMClockSet)
                  00002818    00000014                   : timer.obj (.text:TimerDisable)
                  0000282c    00000014     rtsv7M4_T_le_v4SPD16_eabi.lib : _lock.obj (.text)
                  00002840    00000012     driverlib.lib : pwm.obj (.text:PWMGenPeriodSet)
                  00002852    00000012                   : timer.obj (.text:TimerLoadSet)
                  00002864    00000012     rtsv7M4_T_le_v4SPD16_eabi.lib : copy_zero_init.obj (.text:decompress:ZI)
                  00002876    00000010     driverlib.lib : adc.obj (.text:ADCIntEnable)
                  00002886    0000000e                   : adc.obj (.text:ADCIntDisable)
                  00002894    0000000e                   : adc.obj (.text:ADCSequenceEnable)
                  000028a2    0000000e                   : timer.obj (.text:TimerEnable)
                  000028b0    0000000e     rtsv7M4_T_le_v4SPD16_eabi.lib : copy_decompress_none.obj (.text:decompress:none)
                  000028be    0000000c     driverlib.lib : pwm.obj (.text:PWMGenEnable)
                  000028ca    0000000c     tm4c123ah6pm_startup_ccs.obj (.text)
                  000028d6    0000000a     driverlib.lib : adc.obj (.text:ADCIntClear)
                  000028e0    0000000a                   : pwm.obj (.text:PWMGenIntTrigEnable)
                  000028ea    0000000a                   : timer.obj (.text:TimerIntDisable)
                  000028f4    0000000a                   : timer.obj (.text:TimerLoadGet)
                  000028fe    0000000a                   : timer.obj (.text:TimerValueGet)
                  00002908    00000008                   : timer.obj (.text:TimerIntEnable)
                  00002910    00000008     rtsv7M4_T_le_v4SPD16_eabi.lib : delete.obj (.text)
                  00002918    00000006     driverlib.lib : gpio.obj (.text:GPIOPinWrite)
                  0000291e    00000006                   : sysctl.obj (.text:SysCtlDelay)
                  00002924    00000006     rtsv7M4_T_le_v4SPD16_eabi.lib : copy_decompress_rle.obj (.text:decompress:rle24)
                  0000292a    00000004     driverlib.lib : pwm.obj (.text:PWMSyncTimeBase)
                  0000292e    00000004                   : pwm.obj (.text:PWMSyncUpdate)
                  00002932    00000004                   : timer.obj (.text:TimerIntClear)

.const     0    00002938    00000654     
                  00002938    00000218     driverlib.lib : gpio.obj (.const)
                  00002b50    0000010c                   : interrupt.obj (.const)
                  00002c5c    000000a8                   : timer.obj (.const)
                  00002d04    00000028     rtsv7M4_T_le_v4SPD16_eabi.lib : typeinfo_.obj (.const:.typeinfo:_ZTSN10__cxxabiv123__fundamental_type_infoE)
                  00002d2c    00000025                                   : typeinfo_.obj (.const:.typeinfo:_ZTSN10__cxxabiv120__si_class_type_infoE)
                  00002d51    00000024                                   : typeinfo_.obj (.const:.typeinfo:_ZTSN10__cxxabiv119__pointer_type_infoE)
                  00002d75    00000022                                   : typeinfo_.obj (.const:.typeinfo:_ZTSN10__cxxabiv117__class_type_infoE)
                  00002d97    00000022                                   : typeinfo_.obj (.const:.typeinfo:_ZTSN10__cxxabiv117__pbase_type_infoE)
                  00002db9    0000001d     CommutationController.obj (.const:.typeinfo:_ZTS26CommutationControllerClass)
                  00002dd6    00000012     Commutator.obj (.const:.typeinfo:_ZTS15CommutatorClass)
                  00002de8    00000012     ZCDetector.obj (.const:.typeinfo:_ZTS15ZCDetectorClass)
                  00002dfa    00000002     rtsv7M4_T_le_v4SPD16_eabi.lib : typeinfo_.obj (.const:.typeinfo:_ZTSe)
                  00002dfc    00000010                                   : typeinfo_.obj (.const:.typeinfo:_ZTIPKe)
                  00002e0c    00000010     motor.obj (.const:_ZTV10motorClass)
                  00002e1c    00000010     Commutator.obj (.const:_ZTV15CommutatorClass)
                  00002e2c    00000010     ZCDetector.obj (.const:_ZTV15ZCDetectorClass)
                  00002e3c    00000010     CommutationController.obj (.const:_ZTV26CommutationControllerClass)
                  00002e4c    00000010     ADC.obj (.const:_ZTV8ADCClass)
                  00002e5c    00000010     LED.obj (.const:_ZTV8LEDClass)
                  00002e6c    00000010     PWM.obj (.const:_ZTV8PWMClass)
                  00002e7c    00000010     rtsv7M4_T_le_v4SPD16_eabi.lib : typeinfo_.obj (.const:_ZTVN10__cxxabiv117__class_type_infoE)
                  00002e8c    00000010                                   : typeinfo_.obj (.const:_ZTVN10__cxxabiv119__pointer_type_infoE)
                  00002e9c    00000010                                   : typeinfo_.obj (.const:_ZTVN10__cxxabiv120__si_class_type_infoE)
                  00002eac    00000010                                   : typeinfo_.obj (.const:_ZTVN10__cxxabiv123__fundamental_type_infoE)
                  00002ebc    0000000d     motor.obj (.const:.typeinfo:_ZTS10motorClass)
                  00002ec9    0000000d     rtsv7M4_T_le_v4SPD16_eabi.lib : typeinfo_.obj (.const:.typeinfo:_ZTSSt9type_info)
                  00002ed6    00000002     --HOLE-- [fill = 0]
                  00002ed8    0000000c     Commutator.obj (.const:.typeinfo:_ZTI15CommutatorClass)
                  00002ee4    0000000c     CommutationController.obj (.const:.typeinfo:_ZTI26CommutationControllerClass)
                  00002ef0    0000000c     ADC.obj (.const:.typeinfo:_ZTI8ADCClass)
                  00002efc    0000000c     rtsv7M4_T_le_v4SPD16_eabi.lib : typeinfo_.obj (.const:.typeinfo:_ZTIN10__cxxabiv117__class_type_infoE)
                  00002f08    0000000c                                   : typeinfo_.obj (.const:.typeinfo:_ZTIN10__cxxabiv117__pbase_type_infoE)
                  00002f14    0000000c                                   : typeinfo_.obj (.const:.typeinfo:_ZTIN10__cxxabiv119__pointer_type_infoE)
                  00002f20    0000000c                                   : typeinfo_.obj (.const:.typeinfo:_ZTIN10__cxxabiv120__si_class_type_infoE)
                  00002f2c    0000000c                                   : typeinfo_.obj (.const:.typeinfo:_ZTIN10__cxxabiv123__fundamental_type_infoE)
                  00002f38    0000000a     ADC.obj (.const:.typeinfo:_ZTS8ADCClass)
                  00002f42    0000000a     LED.obj (.const:.typeinfo:_ZTS8LEDClass)
                  00002f4c    0000000a     PWM.obj (.const:.typeinfo:_ZTS8PWMClass)
                  00002f56    00000002     --HOLE-- [fill = 0]
                  00002f58    00000008     motor.obj (.const:.typeinfo:_ZTI10motorClass)
                  00002f60    00000008     ZCDetector.obj (.const:.typeinfo:_ZTI15ZCDetectorClass)
                  00002f68    00000008     LED.obj (.const:.typeinfo:_ZTI8LEDClass)
                  00002f70    00000008     PWM.obj (.const:.typeinfo:_ZTI8PWMClass)
                  00002f78    00000008     rtsv7M4_T_le_v4SPD16_eabi.lib : typeinfo_.obj (.const:.typeinfo:_ZTISt9type_info)
                  00002f80    00000008                                   : typeinfo_.obj (.const:.typeinfo:_ZTIe)
                  00002f88    00000004                                   : typeinfo_.obj (.const:.typeinfo:_ZTSPKe)

.cinit     0    00002f90    00000050     
                  00002f90    0000001b     (.cinit..data.load) [load image, compression = rle]
                  00002fab    00000001     --HOLE-- [fill = 0]
                  00002fac    0000000c     (__TI_handler_table)
                  00002fb8    00000008     (.cinit..bss.load) [load image, compression = zero_init]
                  00002fc0    00000008     (.cinit..vtable.load) [load image, compression = zero_init]
                  00002fc8    00000018     (__TI_cinit_table)

.vtable    0    20000000    0000026c     UNINITIALIZED
                  20000000    0000026c     driverlib.lib : interrupt.obj (.vtable)

.stack     0    2000026c    00000800     UNINITIALIZED
                  2000026c    00000800     --HOLE--

.data      0    20000a6c    00000020     UNINITIALIZED
                  20000a6c    0000000c     rtsv7M4_T_le_v4SPD16_eabi.lib : memory.obj (.data)
                  20000a78    00000008                                   : _lock.obj (.data)
                  20000a80    00000008                                   : exit.obj (.data)
                  20000a88    00000004                                   : stkdepth_vars.obj (.data)

.bss       0    20000a8c    00000014     UNINITIALIZED
                  20000a8c    00000004     (.common:ADC0)
                  20000a90    00000004     (.common:ADC1)
                  20000a94    00000004     (.common:CommTimer0)
                  20000a98    00000004     (.common:CommTimer1)
                  20000a9c    00000004     (.common:_ZSt16__dummy_typeinfo)

.sysmem    0    20000aa0    00000008     UNINITIALIZED
                  20000aa0    00000008     rtsv7M4_T_le_v4SPD16_eabi.lib : memory.obj (.sysmem)


LINKER GENERATED COPY TABLES

__TI_cinit_table @ 00002fc8 records: 3, size/record: 8, table size: 24
	.data: load addr=00002f90, load size=0000001b bytes, run addr=20000a6c, run size=00000020 bytes, compression=rle
	.bss: load addr=00002fb8, load size=00000008 bytes, run addr=20000a8c, run size=00000014 bytes, compression=zero_init
	.vtable: load addr=00002fc0, load size=00000008 bytes, run addr=20000000, run size=0000026c bytes, compression=zero_init


LINKER GENERATED HANDLER TABLE

__TI_handler_table @ 00002fac records: 3, size/record: 4, table size: 12
	index: 0, handler: __TI_zero_init
	index: 1, handler: __TI_decompress_rle24
	index: 2, handler: __TI_decompress_none


GLOBAL SYMBOLS: SORTED ALPHABETICALLY BY Name 

address    name
--------   ----
20000a8c   ADC0
20000a90   ADC1
000028d7   ADCIntClear
00002887   ADCIntDisable
00002877   ADCIntEnable
000023df   ADCIntRegister
000024a1   ADCSequenceConfigure
00002725   ADCSequenceDataGet
00002895   ADCSequenceEnable
00002201   ADCSequenceStepConfigure
00002621   C$$EXIT
20000a94   CommTimer0
20000a98   CommTimer1
0000193b   GPIOPadConfigSet
000024f5   GPIOPinConfigure
00002769   GPIOPinTypeADC
00002747   GPIOPinTypeGPIOOutput
000027a5   GPIOPinTypePWM
00002919   GPIOPinWrite
0000227f   IntEnable
00002547   IntRegister
000026f9   PWMGenConfigure
000028bf   PWMGenEnable
000028e1   PWMGenIntTrigEnable
00002841   PWMGenPeriodSet
000027d9   PWMOutputInvert
000027ef   PWMOutputState
00002787   PWMPulseWidthSet
0000292b   PWMSyncTimeBase
0000292f   PWMSyncUpdate
000028cb   ResetISR
UNDEFED    SHT$$INIT_ARRAY$$Base
UNDEFED    SHT$$INIT_ARRAY$$Limit
00001c5d   SysCtlClockSet
0000291f   SysCtlDelay
00002805   SysCtlPWMClockSet
00002665   SysCtlPeripheralEnable
00002371   TimerConfigure
00002819   TimerDisable
000028a3   TimerEnable
00002933   TimerIntClear
000028eb   TimerIntDisable
00002909   TimerIntEnable
00001f45   TimerIntRegister
000028f5   TimerLoadGet
00002853   TimerLoadSet
000028ff   TimerValueGet
000020c1   _ZN10__cxxabiv116__enum_type_infoD0Ev
000020bf   _ZN10__cxxabiv116__enum_type_infoD1Ev
000020bf   _ZN10__cxxabiv116__enum_type_infoD2Ev
000020b7   _ZN10__cxxabiv117__array_type_infoD0Ev
000020b5   _ZN10__cxxabiv117__array_type_infoD1Ev
000020b5   _ZN10__cxxabiv117__array_type_infoD2Ev
000020ad   _ZN10__cxxabiv117__class_type_infoD0Ev
000020ab   _ZN10__cxxabiv117__class_type_infoD1Ev
000020ab   _ZN10__cxxabiv117__class_type_infoD2Ev
000020a3   _ZN10__cxxabiv117__pbase_type_infoD0Ev
000020a1   _ZN10__cxxabiv117__pbase_type_infoD1Ev
000020a1   _ZN10__cxxabiv117__pbase_type_infoD2Ev
00002099   _ZN10__cxxabiv119__pointer_type_infoD0Ev
00002097   _ZN10__cxxabiv119__pointer_type_infoD1Ev
00002097   _ZN10__cxxabiv119__pointer_type_infoD2Ev
0000208f   _ZN10__cxxabiv120__function_type_infoD0Ev
0000208d   _ZN10__cxxabiv120__function_type_infoD1Ev
0000208d   _ZN10__cxxabiv120__function_type_infoD2Ev
00002085   _ZN10__cxxabiv120__si_class_type_infoD0Ev
00002083   _ZN10__cxxabiv120__si_class_type_infoD1Ev
00002083   _ZN10__cxxabiv120__si_class_type_infoD2Ev
0000207b   _ZN10__cxxabiv121__vmi_class_type_infoD0Ev
00002079   _ZN10__cxxabiv121__vmi_class_type_infoD1Ev
00002079   _ZN10__cxxabiv121__vmi_class_type_infoD2Ev
00002071   _ZN10__cxxabiv123__fundamental_type_infoD0Ev
0000206f   _ZN10__cxxabiv123__fundamental_type_infoD1Ev
0000206f   _ZN10__cxxabiv123__fundamental_type_infoD2Ev
00002067   _ZN10__cxxabiv129__pointer_to_member_type_infoD0Ev
00002065   _ZN10__cxxabiv129__pointer_to_member_type_infoD1Ev
00002065   _ZN10__cxxabiv129__pointer_to_member_type_infoD2Ev
00001e1b   _ZN10motorClass11setPWMWidthEj
00001dbd   _ZN10motorClass4initEj
00001deb   _ZN10motorClass5startEv
00001e33   _ZN10motorClass8getStateEv
00001e41   _ZN10motorClass8setStateE14controlState_t
00001d65   _ZN10motorClassC1Ev
00001d65   _ZN10motorClassC2Ev
00001da7   _ZN10motorClassD0Ev
00001d8f   _ZN10motorClassD1Ev
00001d8f   _ZN10motorClassD2Ev
0000169d   _ZN15CommutatorClass15disableSwitchesEv
000016d9   _ZN15CommutatorClass4initEjP8ADCClass
000016f9   _ZN15CommutatorClass9commutateEv
00001647   _ZN15CommutatorClassC1Ev
00001647   _ZN15CommutatorClassC2Ev
00001687   _ZN15CommutatorClassD0Ev
00001679   _ZN15CommutatorClassD1Ev
00001679   _ZN15CommutatorClassD2Ev
00001eb3   _ZN15ZCDetectorClass10ZCDetectedEjj
00001e9d   _ZN15ZCDetectorClass14setZCDirectionE23zeroCrossingDirection_t
00001e57   _ZN15ZCDetectorClassC1Ev
00001e57   _ZN15ZCDetectorClassC2Ev
00001e87   _ZN15ZCDetectorClassD0Ev
00001e7b   _ZN15ZCDetectorClassD1Ev
00001e7b   _ZN15ZCDetectorClassD2Ev
000026c9   _ZN26CommutationControllerClass10ISR0StaticEv
000026e1   _ZN26CommutationControllerClass10ISR1StaticEv
00001431   _ZN26CommutationControllerClass12initAsTimer0Ev
00001461   _ZN26CommutationControllerClass12initAsTimer1Ev
000013cd   _ZN26CommutationControllerClass15enableInterruptEv
0000140d   _ZN26CommutationControllerClass15getTimeoutValueEv
000013f1   _ZN26CommutationControllerClass15setTimeoutValueEj
000013df   _ZN26CommutationControllerClass16disableInterruptEv
00001493   _ZN26CommutationControllerClass3ISREv
00001327   _ZN26CommutationControllerClass4initEjP8ADCClassP10motorClass
000013a9   _ZN26CommutationControllerClass6enableEv
000013bb   _ZN26CommutationControllerClass7disableEv
0000141f   _ZN26CommutationControllerClass8getValueEv
00001299   _ZN26CommutationControllerClassC1Ev
00001299   _ZN26CommutationControllerClassC2Ev
00001311   _ZN26CommutationControllerClassD0Ev
00001303   _ZN26CommutationControllerClassD1Ev
00001303   _ZN26CommutationControllerClassD2Ev
00002699   _ZN8ADCClass10ISR0StaticEv
000026b1   _ZN8ADCClass10ISR1StaticEv
00000cbf   _ZN8ADCClass10initAsADC0Ev
00000d3b   _ZN8ADCClass10initAsADC1Ev
00000bfb   _ZN8ADCClass14getMeasurementEv
00000c17   _ZN8ADCClass15enableInterruptEv
00000c27   _ZN8ADCClass16disableInterruptEv
00000c9d   _ZN8ADCClass17getZCDetectedFlagEv
00000c09   _ZN8ADCClass18getMeasurementTimeEv
00000cad   _ZN8ADCClass19clearZCDetectedFlagEv
00000def   _ZN8ADCClass3ISREv
00000b49   _ZN8ADCClass4initEjP26CommutationControllerClassP10motorClass
00000c37   _ZN8ADCClass8setPhaseE7phase_t
00000db7   _ZN8ADCClass9IIRFilterEj
00000a71   _ZN8ADCClassC1Ev
00000a71   _ZN8ADCClassC2Ev
00000b33   _ZN8ADCClassD0Ev
00000b1d   _ZN8ADCClassD1Ev
00000b1d   _ZN8ADCClassD2Ev
00001c0d   _ZN8LEDClass10initAsLED0Ev
00001c35   _ZN8LEDClass10initAsLED1Ev
00001bd9   _ZN8LEDClass3setEv
00001b8b   _ZN8LEDClass4initEj
00001bc5   _ZN8LEDClass5clearEv
00001bed   _ZN8LEDClass6toggleEv
00001b39   _ZN8LEDClassC1Ev
00001b39   _ZN8LEDClassC2Ev
00001b75   _ZN8LEDClassD0Ev
00001b69   _ZN8LEDClassD1Ev
00001b69   _ZN8LEDClassD2Ev
000007db   _ZN8PWMClass10initAsPWM0Ev
00000931   _ZN8PWMClass10initAsPWM1Ev
00000399   _ZN8PWMClass11setPWMWidthEj
000005c3   _ZN8PWMClass20setOutputEnableStateEbbbbbb
000006cf   _ZN8PWMClass20setOutputInvertStateEbbbbbb
0000041b   _ZN8PWMClass4initEj
0000026d   _ZN8PWMClassC1Ev
0000026d   _ZN8PWMClassC2Ev
00000383   _ZN8PWMClassD0Ev
00000377   _ZN8PWMClassD1Ev
00000377   _ZN8PWMClassD2Ev
00002027   _ZNKSt9type_info4nameEv
00002057   _ZNKSt9type_info6beforeERKS_
00002041   _ZNKSt9type_infoeqERKS_
0000202b   _ZNKSt9type_infoneERKS_
0000201f   _ZNSt9type_infoD0Ev
0000201d   _ZNSt9type_infoD1Ev
0000201d   _ZNSt9type_infoD2Ev
20000a9c   _ZSt16__dummy_typeinfo
00002015   _ZSt21__gen_dummy_typeinfosv
00002f58   _ZTI10motorClass
00002ed8   _ZTI15CommutatorClass
00002f60   _ZTI15ZCDetectorClass
00002ee4   _ZTI26CommutationControllerClass
00002ef0   _ZTI8ADCClass
00002f68   _ZTI8LEDClass
00002f70   _ZTI8PWMClass
00002efc   _ZTIN10__cxxabiv117__class_type_infoE
00002f08   _ZTIN10__cxxabiv117__pbase_type_infoE
00002f14   _ZTIN10__cxxabiv119__pointer_type_infoE
00002f20   _ZTIN10__cxxabiv120__si_class_type_infoE
00002f2c   _ZTIN10__cxxabiv123__fundamental_type_infoE
00002dfc   _ZTIPKe
00002f78   _ZTISt9type_info
00002f80   _ZTIe
00002ebc   _ZTS10motorClass
00002dd6   _ZTS15CommutatorClass
00002de8   _ZTS15ZCDetectorClass
00002db9   _ZTS26CommutationControllerClass
00002f38   _ZTS8ADCClass
00002f42   _ZTS8LEDClass
00002f4c   _ZTS8PWMClass
00002d75   _ZTSN10__cxxabiv117__class_type_infoE
00002d97   _ZTSN10__cxxabiv117__pbase_type_infoE
00002d51   _ZTSN10__cxxabiv119__pointer_type_infoE
00002d2c   _ZTSN10__cxxabiv120__si_class_type_infoE
00002d04   _ZTSN10__cxxabiv123__fundamental_type_infoE
00002f88   _ZTSPKe
00002ec9   _ZTSSt9type_info
00002dfa   _ZTSe
00002e0c   _ZTV10motorClass
00002e1c   _ZTV15CommutatorClass
00002e2c   _ZTV15ZCDetectorClass
00002e3c   _ZTV26CommutationControllerClass
00002e4c   _ZTV8ADCClass
00002e5c   _ZTV8LEDClass
00002e6c   _ZTV8PWMClass
00002e7c   _ZTVN10__cxxabiv117__class_type_infoE
00002e8c   _ZTVN10__cxxabiv119__pointer_type_infoE
00002e9c   _ZTVN10__cxxabiv120__si_class_type_infoE
00002eac   _ZTVN10__cxxabiv123__fundamental_type_infoE
00002911   _ZdlPv
20000a6c   __STACK_END
00000800   __STACK_SIZE
2000046c   __STACK_TOP
00000008   __SYSMEM_SIZE
00002fc8   __TI_CINIT_Base
00002fe0   __TI_CINIT_Limit
00002fac   __TI_Handler_Table_Base
00002fb8   __TI_Handler_Table_Limit
00000001   __TI_args_main
0000216d   __TI_auto_init
20000a80   __TI_cleanup_ptr
000028b1   __TI_decompress_none
00002925   __TI_decompress_rle24
20000a84   __TI_dtors_ptr
00000000   __TI_static_base__
00002865   __TI_zero_init
000020d1   __aeabi_memcpy
000020d1   __aeabi_memcpy4
000020d1   __aeabi_memcpy8
ffffffff   __binit__
ffffffff   __c_args__
2000026c   __stack
000027c1   _args_main
00002595   _c_int00
20000a78   _lock
0000283b   _nop
00002833   _register_lock
0000282d   _register_unlock
20000aa0   _sys_memory
20000a7c   _unlock
00002625   abort
ffffffff   binit
00001261   calloc
000025dd   copy_in
0000262d   exit
00000fbb   free
20000000   g_pfnRAMVectors
00000000   g_pfnVectors
000022fb   main
20000a88   main_func_sp
00000f59   malloc
00001181   memalign
000020d1   memcpy
00000ecd   minit
0000107b   realloc


GLOBAL SYMBOLS: SORTED BY Symbol Address 

address    name
--------   ----
00000000   __TI_static_base__
00000000   g_pfnVectors
00000001   __TI_args_main
00000008   __SYSMEM_SIZE
0000026d   _ZN8PWMClassC1Ev
0000026d   _ZN8PWMClassC2Ev
00000377   _ZN8PWMClassD1Ev
00000377   _ZN8PWMClassD2Ev
00000383   _ZN8PWMClassD0Ev
00000399   _ZN8PWMClass11setPWMWidthEj
0000041b   _ZN8PWMClass4initEj
000005c3   _ZN8PWMClass20setOutputEnableStateEbbbbbb
000006cf   _ZN8PWMClass20setOutputInvertStateEbbbbbb
000007db   _ZN8PWMClass10initAsPWM0Ev
00000800   __STACK_SIZE
00000931   _ZN8PWMClass10initAsPWM1Ev
00000a71   _ZN8ADCClassC1Ev
00000a71   _ZN8ADCClassC2Ev
00000b1d   _ZN8ADCClassD1Ev
00000b1d   _ZN8ADCClassD2Ev
00000b33   _ZN8ADCClassD0Ev
00000b49   _ZN8ADCClass4initEjP26CommutationControllerClassP10motorClass
00000bfb   _ZN8ADCClass14getMeasurementEv
00000c09   _ZN8ADCClass18getMeasurementTimeEv
00000c17   _ZN8ADCClass15enableInterruptEv
00000c27   _ZN8ADCClass16disableInterruptEv
00000c37   _ZN8ADCClass8setPhaseE7phase_t
00000c9d   _ZN8ADCClass17getZCDetectedFlagEv
00000cad   _ZN8ADCClass19clearZCDetectedFlagEv
00000cbf   _ZN8ADCClass10initAsADC0Ev
00000d3b   _ZN8ADCClass10initAsADC1Ev
00000db7   _ZN8ADCClass9IIRFilterEj
00000def   _ZN8ADCClass3ISREv
00000ecd   minit
00000f59   malloc
00000fbb   free
0000107b   realloc
00001181   memalign
00001261   calloc
00001299   _ZN26CommutationControllerClassC1Ev
00001299   _ZN26CommutationControllerClassC2Ev
00001303   _ZN26CommutationControllerClassD1Ev
00001303   _ZN26CommutationControllerClassD2Ev
00001311   _ZN26CommutationControllerClassD0Ev
00001327   _ZN26CommutationControllerClass4initEjP8ADCClassP10motorClass
000013a9   _ZN26CommutationControllerClass6enableEv
000013bb   _ZN26CommutationControllerClass7disableEv
000013cd   _ZN26CommutationControllerClass15enableInterruptEv
000013df   _ZN26CommutationControllerClass16disableInterruptEv
000013f1   _ZN26CommutationControllerClass15setTimeoutValueEj
0000140d   _ZN26CommutationControllerClass15getTimeoutValueEv
0000141f   _ZN26CommutationControllerClass8getValueEv
00001431   _ZN26CommutationControllerClass12initAsTimer0Ev
00001461   _ZN26CommutationControllerClass12initAsTimer1Ev
00001493   _ZN26CommutationControllerClass3ISREv
00001647   _ZN15CommutatorClassC1Ev
00001647   _ZN15CommutatorClassC2Ev
00001679   _ZN15CommutatorClassD1Ev
00001679   _ZN15CommutatorClassD2Ev
00001687   _ZN15CommutatorClassD0Ev
0000169d   _ZN15CommutatorClass15disableSwitchesEv
000016d9   _ZN15CommutatorClass4initEjP8ADCClass
000016f9   _ZN15CommutatorClass9commutateEv
0000193b   GPIOPadConfigSet
00001b39   _ZN8LEDClassC1Ev
00001b39   _ZN8LEDClassC2Ev
00001b69   _ZN8LEDClassD1Ev
00001b69   _ZN8LEDClassD2Ev
00001b75   _ZN8LEDClassD0Ev
00001b8b   _ZN8LEDClass4initEj
00001bc5   _ZN8LEDClass5clearEv
00001bd9   _ZN8LEDClass3setEv
00001bed   _ZN8LEDClass6toggleEv
00001c0d   _ZN8LEDClass10initAsLED0Ev
00001c35   _ZN8LEDClass10initAsLED1Ev
00001c5d   SysCtlClockSet
00001d65   _ZN10motorClassC1Ev
00001d65   _ZN10motorClassC2Ev
00001d8f   _ZN10motorClassD1Ev
00001d8f   _ZN10motorClassD2Ev
00001da7   _ZN10motorClassD0Ev
00001dbd   _ZN10motorClass4initEj
00001deb   _ZN10motorClass5startEv
00001e1b   _ZN10motorClass11setPWMWidthEj
00001e33   _ZN10motorClass8getStateEv
00001e41   _ZN10motorClass8setStateE14controlState_t
00001e57   _ZN15ZCDetectorClassC1Ev
00001e57   _ZN15ZCDetectorClassC2Ev
00001e7b   _ZN15ZCDetectorClassD1Ev
00001e7b   _ZN15ZCDetectorClassD2Ev
00001e87   _ZN15ZCDetectorClassD0Ev
00001e9d   _ZN15ZCDetectorClass14setZCDirectionE23zeroCrossingDirection_t
00001eb3   _ZN15ZCDetectorClass10ZCDetectedEjj
00001f45   TimerIntRegister
00002015   _ZSt21__gen_dummy_typeinfosv
0000201d   _ZNSt9type_infoD1Ev
0000201d   _ZNSt9type_infoD2Ev
0000201f   _ZNSt9type_infoD0Ev
00002027   _ZNKSt9type_info4nameEv
0000202b   _ZNKSt9type_infoneERKS_
00002041   _ZNKSt9type_infoeqERKS_
00002057   _ZNKSt9type_info6beforeERKS_
00002065   _ZN10__cxxabiv129__pointer_to_member_type_infoD1Ev
00002065   _ZN10__cxxabiv129__pointer_to_member_type_infoD2Ev
00002067   _ZN10__cxxabiv129__pointer_to_member_type_infoD0Ev
0000206f   _ZN10__cxxabiv123__fundamental_type_infoD1Ev
0000206f   _ZN10__cxxabiv123__fundamental_type_infoD2Ev
00002071   _ZN10__cxxabiv123__fundamental_type_infoD0Ev
00002079   _ZN10__cxxabiv121__vmi_class_type_infoD1Ev
00002079   _ZN10__cxxabiv121__vmi_class_type_infoD2Ev
0000207b   _ZN10__cxxabiv121__vmi_class_type_infoD0Ev
00002083   _ZN10__cxxabiv120__si_class_type_infoD1Ev
00002083   _ZN10__cxxabiv120__si_class_type_infoD2Ev
00002085   _ZN10__cxxabiv120__si_class_type_infoD0Ev
0000208d   _ZN10__cxxabiv120__function_type_infoD1Ev
0000208d   _ZN10__cxxabiv120__function_type_infoD2Ev
0000208f   _ZN10__cxxabiv120__function_type_infoD0Ev
00002097   _ZN10__cxxabiv119__pointer_type_infoD1Ev
00002097   _ZN10__cxxabiv119__pointer_type_infoD2Ev
00002099   _ZN10__cxxabiv119__pointer_type_infoD0Ev
000020a1   _ZN10__cxxabiv117__pbase_type_infoD1Ev
000020a1   _ZN10__cxxabiv117__pbase_type_infoD2Ev
000020a3   _ZN10__cxxabiv117__pbase_type_infoD0Ev
000020ab   _ZN10__cxxabiv117__class_type_infoD1Ev
000020ab   _ZN10__cxxabiv117__class_type_infoD2Ev
000020ad   _ZN10__cxxabiv117__class_type_infoD0Ev
000020b5   _ZN10__cxxabiv117__array_type_infoD1Ev
000020b5   _ZN10__cxxabiv117__array_type_infoD2Ev
000020b7   _ZN10__cxxabiv117__array_type_infoD0Ev
000020bf   _ZN10__cxxabiv116__enum_type_infoD1Ev
000020bf   _ZN10__cxxabiv116__enum_type_infoD2Ev
000020c1   _ZN10__cxxabiv116__enum_type_infoD0Ev
000020d1   __aeabi_memcpy
000020d1   __aeabi_memcpy4
000020d1   __aeabi_memcpy8
000020d1   memcpy
0000216d   __TI_auto_init
00002201   ADCSequenceStepConfigure
0000227f   IntEnable
000022fb   main
00002371   TimerConfigure
000023df   ADCIntRegister
000024a1   ADCSequenceConfigure
000024f5   GPIOPinConfigure
00002547   IntRegister
00002595   _c_int00
000025dd   copy_in
00002621   C$$EXIT
00002625   abort
0000262d   exit
00002665   SysCtlPeripheralEnable
00002699   _ZN8ADCClass10ISR0StaticEv
000026b1   _ZN8ADCClass10ISR1StaticEv
000026c9   _ZN26CommutationControllerClass10ISR0StaticEv
000026e1   _ZN26CommutationControllerClass10ISR1StaticEv
000026f9   PWMGenConfigure
00002725   ADCSequenceDataGet
00002747   GPIOPinTypeGPIOOutput
00002769   GPIOPinTypeADC
00002787   PWMPulseWidthSet
000027a5   GPIOPinTypePWM
000027c1   _args_main
000027d9   PWMOutputInvert
000027ef   PWMOutputState
00002805   SysCtlPWMClockSet
00002819   TimerDisable
0000282d   _register_unlock
00002833   _register_lock
0000283b   _nop
00002841   PWMGenPeriodSet
00002853   TimerLoadSet
00002865   __TI_zero_init
00002877   ADCIntEnable
00002887   ADCIntDisable
00002895   ADCSequenceEnable
000028a3   TimerEnable
000028b1   __TI_decompress_none
000028bf   PWMGenEnable
000028cb   ResetISR
000028d7   ADCIntClear
000028e1   PWMGenIntTrigEnable
000028eb   TimerIntDisable
000028f5   TimerLoadGet
000028ff   TimerValueGet
00002909   TimerIntEnable
00002911   _ZdlPv
00002919   GPIOPinWrite
0000291f   SysCtlDelay
00002925   __TI_decompress_rle24
0000292b   PWMSyncTimeBase
0000292f   PWMSyncUpdate
00002933   TimerIntClear
00002d04   _ZTSN10__cxxabiv123__fundamental_type_infoE
00002d2c   _ZTSN10__cxxabiv120__si_class_type_infoE
00002d51   _ZTSN10__cxxabiv119__pointer_type_infoE
00002d75   _ZTSN10__cxxabiv117__class_type_infoE
00002d97   _ZTSN10__cxxabiv117__pbase_type_infoE
00002db9   _ZTS26CommutationControllerClass
00002dd6   _ZTS15CommutatorClass
00002de8   _ZTS15ZCDetectorClass
00002dfa   _ZTSe
00002dfc   _ZTIPKe
00002e0c   _ZTV10motorClass
00002e1c   _ZTV15CommutatorClass
00002e2c   _ZTV15ZCDetectorClass
00002e3c   _ZTV26CommutationControllerClass
00002e4c   _ZTV8ADCClass
00002e5c   _ZTV8LEDClass
00002e6c   _ZTV8PWMClass
00002e7c   _ZTVN10__cxxabiv117__class_type_infoE
00002e8c   _ZTVN10__cxxabiv119__pointer_type_infoE
00002e9c   _ZTVN10__cxxabiv120__si_class_type_infoE
00002eac   _ZTVN10__cxxabiv123__fundamental_type_infoE
00002ebc   _ZTS10motorClass
00002ec9   _ZTSSt9type_info
00002ed8   _ZTI15CommutatorClass
00002ee4   _ZTI26CommutationControllerClass
00002ef0   _ZTI8ADCClass
00002efc   _ZTIN10__cxxabiv117__class_type_infoE
00002f08   _ZTIN10__cxxabiv117__pbase_type_infoE
00002f14   _ZTIN10__cxxabiv119__pointer_type_infoE
00002f20   _ZTIN10__cxxabiv120__si_class_type_infoE
00002f2c   _ZTIN10__cxxabiv123__fundamental_type_infoE
00002f38   _ZTS8ADCClass
00002f42   _ZTS8LEDClass
00002f4c   _ZTS8PWMClass
00002f58   _ZTI10motorClass
00002f60   _ZTI15ZCDetectorClass
00002f68   _ZTI8LEDClass
00002f70   _ZTI8PWMClass
00002f78   _ZTISt9type_info
00002f80   _ZTIe
00002f88   _ZTSPKe
00002fac   __TI_Handler_Table_Base
00002fb8   __TI_Handler_Table_Limit
00002fc8   __TI_CINIT_Base
00002fe0   __TI_CINIT_Limit
20000000   g_pfnRAMVectors
2000026c   __stack
2000046c   __STACK_TOP
20000a6c   __STACK_END
20000a78   _lock
20000a7c   _unlock
20000a80   __TI_cleanup_ptr
20000a84   __TI_dtors_ptr
20000a88   main_func_sp
20000a8c   ADC0
20000a90   ADC1
20000a94   CommTimer0
20000a98   CommTimer1
20000a9c   _ZSt16__dummy_typeinfo
20000aa0   _sys_memory
ffffffff   __binit__
ffffffff   __c_args__
ffffffff   binit
UNDEFED    SHT$$INIT_ARRAY$$Base
UNDEFED    SHT$$INIT_ARRAY$$Limit

[257 symbols]
