******************************************************************************
                  TI ARM Linker PC v5.1.6                      
******************************************************************************
>> Linked Mon Apr 27 00:55:20 2015

OUTPUT FILE NAME:   <Overseer.out>
ENTRY POINT SYMBOL: "_c_int00"  address: 00020975


MEMORY CONFIGURATION

         name            origin    length      used     unused   attr    fill
----------------------  --------  ---------  --------  --------  ----  --------
  FLASH                 00000000   00040000  0002e14b  00011eb5  R  X
  SRAM                  20000000   00008000  00006e30  000011d0  RW X


SEGMENT ALLOCATION MAP

run origin  load origin   length   init length attrs members
----------  ----------- ---------- ----------- ----- -------
00000000    00000000    0002e158   0002e158    r-x
  00000000    00000000    0000026c   0000026c    r-- .intvecs
  0000026c    0000026c    0002b32e   0002b32e    r-x .text
  0002b5a0    0002b5a0    00002a15   00002a15    r-- .const
  0002dfb8    0002dfb8    00000044   00000044    r-- .init_array
  0002e000    0002e000    00000158   00000158    r-- .cinit
20000000    20000000    00006e34   00000000    rw-
  20000000    20000000    0000026c   00000000    rw- .vtable
  20000270    20000270    00004000   00000000    rw- .sysmem
  20004270    20004270    00002000   00000000    rw- .stack
  20006270    20006270    00000834   00000000    rw- .data
  20006aa4    20006aa4    00000390   00000000    rw- .bss


SECTION ALLOCATION MAP

 output                                  attributes/
section   page    origin      length       input sections
--------  ----  ----------  ----------   ----------------
.intvecs   0    00000000    0000026c     
                  00000000    0000026c     tm4c123ah6pm_startup_ccs.obj (.intvecs)

.text      0    0000026c    0002b32e     
                  0000026c    0000129c     ExtendedKalman.obj (.text)
                  00001508    00000f00     MessageParser.obj (.text)
                  00002408    00000f00     rtsv7M4_T_le_v4SPD16_eabi.lib : locale.obj (.text)
                  00003308    00000ec0                                   : _printfi.obj (.text)
                  000041c8    00000af6     RPiControlledCopter.obj (.text)
                  00004cbe    00000002     EigenTest.obj (.text:_ZN5Eigen15PlainObjectBaseINS_6MatrixIdLin1ELin1ELi0ELin1ELin1EEEE22_check_template_paramsEv)
                  00004cc0    000009bc     rtsv7M4_T_le_v4SPD16_eabi.lib : wlocale.obj (.text)
                  0000567c    00000964                                   : xlocale.obj (.text:_ZNKSt9money_getIcSt19istreambuf_iteratorIcSt11char_traitsIcEEE8_GetmfldERS3_S5_bRSt8ios_base)
                  00005fe0    00000942                                   : wlocale.obj (.text:_ZNKSt9money_getIwSt19istreambuf_iteratorIwSt11char_traitsIwEEE8_GetmfldERS3_S5_bRSt8ios_base)
                  00006922    00000002     ExtendedKalman.obj (.text:_ZN5Eigen15PlainObjectBaseINS_6MatrixIfLi3ELi1ELi0ELi3ELi1EEEE22_check_template_paramsEv)
                  00006924    000008c8     InputCapture.obj (.text)
                  000071ec    00000864     MPU9150Test.obj (.text)
                  00007a50    00000792     rtsv7M4_T_le_v4SPD16_eabi.lib : wlocale.obj (.text:_ZNKSt9money_putIwSt19ostreambuf_iteratorIwSt11char_traitsIwEEE8_PutmfldES3_bRSt8ios_basewbSbIwS2_SaIwEE)
                  000081e2    0000073c                                   : xlocale.obj (.text:_ZNKSt9money_putIcSt19ostreambuf_iteratorIcSt11char_traitsIcEEE8_PutmfldES3_bRSt8ios_basecbSs)
                  0000891e    00000002     ExtendedKalman.obj (.text:_ZN5Eigen15PlainObjectBaseINS_6MatrixIfLi3ELi3ELi0ELi3ELi3EEEE22_check_template_paramsEv)
                  00008920    0000072c     Control.obj (.text)
                  0000904c    0000070a     rtsv7M4_T_le_v4SPD16_eabi.lib : locale.obj (.text:_ZNKSt7num_getIcSt19istreambuf_iteratorIcSt11char_traitsIcEEE8_GetffldEPcRS3_S6_RKSt6locale)
                  00009756    00000002     ExtendedKalman.obj (.text:_ZN5Eigen15PlainObjectBaseINS_6MatrixIfLi3ELi3ELi1ELi3ELi3EEEE22_check_template_paramsEv)
                  00009758    0000067c     rtsv7M4_T_le_v4SPD16_eabi.lib : xlocale.obj (.text)
                  00009dd4    000005ea                                   : wlocale.obj (.text:_ZNKSt7num_getIwSt19istreambuf_iteratorIwSt11char_traitsIwEEE8_GetffldEPcRS3_S6_RKSt6locale)
                  0000a3be    00000002     ExtendedKalman.obj (.text:_ZN5Eigen15PlainObjectBaseINS_6MatrixIfLi3ELi7ELi0ELi3ELi7EEEE22_check_template_paramsEv)
                  0000a3c0    000005bc     rtsv7M4_T_le_v4SPD16_eabi.lib : locale0.obj (.text)
                  0000a97c    000005a4                                   : wlocale.obj (.text:_ZNKSt7num_putIwSt19ostreambuf_iteratorIwSt11char_traitsIwEEE5_FputES3_RSt8ios_basewPKcjjjj)
                  0000af20    00000594                                   : wiostrea.obj (.text)
                  0000b4b4    00000590     MPU9150.obj (.text)
                  0000ba44    00000574     rtsv7M4_T_le_v4SPD16_eabi.lib : ios.obj (.text)
                  0000bfb8    00000534     PrintfTest.obj (.text)
                  0000c4ec    00000528     AHRS.obj (.text)
                  0000ca14    000004ec     I2C.obj (.text)
                  0000cf00    00000486     rtsv7M4_T_le_v4SPD16_eabi.lib : wlocale.obj (.text:_ZNKSt8time_getIwSt19istreambuf_iteratorIwSt11char_traitsIwEEE11do_get_dateES3_S3_RSt8ios_baseRNSt5_IosbIiE8_IostateEPSt2tm)
                  0000d386    00000002     ExtendedKalman.obj (.text:_ZN5Eigen15PlainObjectBaseINS_6MatrixIfLi7ELi1ELi0ELi7ELi1EEEE22_check_template_paramsEv)
                  0000d388    00000478     rtsv7M4_T_le_v4SPD16_eabi.lib : iostream.obj (.text)
                  0000d800    00000464     PID.obj (.text:_ZNKSt7num_putIcSt19ostreambuf_iteratorIcSt11char_traitsIcEEE5_FputES3_RSt8ios_basecPKcjjjj)
                  0000dc64    00000460     EigenTest.obj (.text)
                  0000e0c4    00000418     rtsv7M4_T_le_v4SPD16_eabi.lib : locale.obj (.text:_ZNKSt7num_getIcSt19istreambuf_iteratorIcSt11char_traitsIcEEE8_GetifldEPcRS3_S6_NSt5_IosbIiE9_FmtflagsERKSt6locale)
                  0000e4dc    0000040a                                   : xlocale.obj (.text:_ZNKSt8time_getIcSt19istreambuf_iteratorIcSt11char_traitsIcEEE11do_get_dateES3_S3_RSt8ios_baseRNSt5_IosbIiE8_IostateEPSt2tm)
                  0000e8e6    00000002     ExtendedKalman.obj (.text:_ZN5Eigen15PlainObjectBaseINS_6MatrixIfLi7ELi3ELi0ELi7ELi3EEEE22_check_template_paramsEv)
                  0000e8e8    000003e4     rtsv7M4_T_le_v4SPD16_eabi.lib : wlocale.obj (.text:_ZNKSt7num_getIwSt19istreambuf_iteratorIwSt11char_traitsIwEEE8_GetifldEPcRS3_S6_NSt5_IosbIiE9_FmtflagsERKSt6locale)
                  0000eccc    000003cc                                   : memory.obj (.text)
                  0000f098    0000036e     SPISlave.obj (.text:_ZN13SPISlaveClass3ISREv)
                  0000f406    00000002     ExtendedKalman.obj (.text:_ZN5Eigen15PlainObjectBaseINS_6MatrixIfLi7ELi3ELi1ELi7ELi3EEEE22_check_template_paramsEv)
                  0000f408    00000344     SPIMaster.obj (.text)
                  0000f74c    0000033c     rtsv7M4_T_le_v4SPD16_eabi.lib : strftime.obj (.text)
                  0000fa88    00000320     PinController.obj (.text)
                  0000fda8    00000310     rtsv7M4_T_le_v4SPD16_eabi.lib : lowlev.obj (.text)
                  000100b8    000002f4     PID.obj (.text)
                  000103ac    000002f0     GPIOOutput.obj (.text)
                  0001069c    000002ec     rtsv7M4_T_le_v4SPD16_eabi.lib : xlog.obj (.text)
                  00010988    000002dc     GPIOInput.obj (.text)
                  00010c64    000002d4     rtsv7M4_T_le_v4SPD16_eabi.lib : trgdrv.obj (.text)
                  00010f38    000002d0                                   : wlocale.obj (.text:_ZNKSt7num_getIwSt19istreambuf_iteratorIwSt11char_traitsIwEEE6do_getES3_S3_RSt8ios_baseRNSt5_IosbIiE8_IostateERb)
                  00011208    00000274                                   : wlocale.obj (.text:_ZNKSt9money_putIwSt19ostreambuf_iteratorIwSt11char_traitsIwEEE6do_putES3_bRSt8ios_basewe)
                  0001147c    00000264     SPISlave.obj (.text)
                  000116e0    0000025c     EigenTest.obj (.text:_ZN5Eigen8internal12print_matrixINS_6MatrixIdLin1ELin1ELi0ELin1ELin1EEEEERSoS4_RKT_RKNS_8IOFormatE)
                  0001193c    00000252     EigenTest.obj (.text:_ZN5Eigen8internal12print_matrixINS_6MatrixIfLi7ELi7ELi0ELi7ELi7EEEEERSoS4_RKT_RKNS_8IOFormatE)
                  00011b8e    0000024e     rtsv7M4_T_le_v4SPD16_eabi.lib : wlocale.obj (.text:_ZNKSt8time_getIwSt19istreambuf_iteratorIwSt11char_traitsIwEEE7_GetintERS3_S5_iiRi)
                  00011ddc    0000024e                                   : wiostrea.obj (.text:_ZNSt13basic_filebufIwSt11char_traitsIwEE8overflowEi)
                  0001202a    00000002     ExtendedKalman.obj (.text:_ZN5Eigen15PlainObjectBaseINS_6MatrixIfLi7ELi7ELi0ELi7ELi7EEEE22_check_template_paramsEv)
                  0001202c    0000024c     rtsv7M4_T_le_v4SPD16_eabi.lib : wlocale.obj (.text:_ZNKSt9money_putIwSt19ostreambuf_iteratorIwSt11char_traitsIwEEE6do_putES3_bRSt8ios_basewRKSbIwS2_SaIwEE)
                  00012278    0000024a                                   : wlocale.obj (.text:_ZNKSt9money_getIwSt19istreambuf_iteratorIwSt11char_traitsIwEEE6do_getES3_S3_bRSt8ios_baseRNSt5_IosbIiE8_IostateERe)
                  000124c2    00000002     ExtendedKalman.obj (.text:_ZN5Eigen15PlainObjectBaseINS_6MatrixIfLi7ELi7ELi1ELi7ELi7EEEE22_check_template_paramsEv)
                  000124c4    00000248     rtsv7M4_T_le_v4SPD16_eabi.lib : wlocale.obj (.text:_ZNKSt7num_putIwSt19ostreambuf_iteratorIwSt11char_traitsIwEEE6do_putES3_RSt8ios_basewb)
                  0001270c    00000240     EigenTest.obj (.text:_ZStlsIcSt11char_traitsIcESaIcEERSt13basic_ostreamIT_T0_ES7_RKSbIS4_S5_T1_E)
                  0001294c    0000023e     driverlib.lib : gpio.obj (.text:GPIOPadConfigSet)
                  00012b8a    00000002     ExtendedKalman.obj (.text:_ZN5Eigen8internal28check_static_allocation_sizeIfLi21EEEvv)
                  00012b8c    0000023c     rtsv7M4_T_le_v4SPD16_eabi.lib : strtod.obj (.text)
                  00012dc8    00000236                                   : iostream.obj (.text:_ZNSt13basic_filebufIcSt11char_traitsIcEE8overflowEi)
                  00012ffe    00000002     ExtendedKalman.obj (.text:_ZN5Eigen8internal28check_static_allocation_sizeIfLi3EEEvv)
                  00013000    00000234     rtsv7M4_T_le_v4SPD16_eabi.lib : strtold.obj (.text)
                  00013234    00000230     RXInterface.obj (.text)
                  00013464    00000230     rtsv7M4_T_le_v4SPD16_eabi.lib : xlocale.obj (.text:_ZNKSt9money_putIcSt19ostreambuf_iteratorIcSt11char_traitsIcEEE6do_putES3_bRSt8ios_basece)
                  00013694    0000022a                                   : iostream.obj (.text:_ZNSt13basic_filebufIcSt11char_traitsIcEE5uflowEv)
                  000138be    0000022a                                   : wiostrea.obj (.text:_ZNSt13basic_filebufIwSt11char_traitsIwEE5uflowEv)
                  00013ae8    0000021e     PID.obj (.text:_ZNKSt7num_putIcSt19ostreambuf_iteratorIcSt11char_traitsIcEEE5_IputES3_RSt8ios_basecPcj)
                  00013d06    0000021c     EigenTest.obj (.text:_ZNSt15basic_stringbufIcSt11char_traitsIcESaIcEE8overflowEi)
                  00013f22    0000020a     PID.obj (.text:_ZStlsISt11char_traitsIcEERSt13basic_ostreamIcT_ES5_PKc)
                  0001412c    00000200     GPTimer.obj (.text)
                  0001432c    000001f4     rtsv7M4_T_le_v4SPD16_eabi.lib : ull_div_t2.obj (.text)
                  00014520    000001e8     driverlib.lib : sysctl.obj (.text:SysCtlClockGet)
                  00014708    000001e4     rtsv7M4_T_le_v4SPD16_eabi.lib : strtoll.obj (.text)
                  000148ec    000001dc     driverlib.lib : sysctl.obj (.text:SysCtlClockSet)
                  00014ac8    000001d4     rtsv7M4_T_le_v4SPD16_eabi.lib : xlocale.obj (.text:_ZNKSt8time_getIcSt19istreambuf_iteratorIcSt11char_traitsIcEEE7_GetintERS3_S5_iiRi)
                  00014c9c    000001ca                                   : locale.obj (.text:_ZNKSt7num_getIcSt19istreambuf_iteratorIcSt11char_traitsIcEEE6do_getES3_S3_RSt8ios_baseRNSt5_IosbIiE8_IostateERb)
                  00014e66    000001ca                                   : wlocale.obj (.text:_ZNKSt7num_putIwSt19ostreambuf_iteratorIwSt11char_traitsIwEEE5_IputES3_RSt8ios_basewPcj)
                  00015030    000001c8                                   : iostream.obj (.text:_ZNSt13basic_filebufIcSt11char_traitsIcEE9_EndwriteEv)
                  000151f8    000001c8                                   : wiostrea.obj (.text:_ZNSt13basic_filebufIwSt11char_traitsIwEE9_EndwriteEv)
                  000153c0    000001c4     EigenTest.obj (.text:_ZNSt15basic_stringbufIcSt11char_traitsIcESaIcEE7seekoffElNSt5_IosbIiE8_SeekdirENS5_9_OpenmodeE)
                  00015584    000001c0     rtsv7M4_T_le_v4SPD16_eabi.lib : wlocale.obj (.text:_ZNKSt8time_putIwSt19ostreambuf_iteratorIwSt11char_traitsIwEEE6do_putES3_RSt8ios_basewPKSt2tmcc)
                  00015744    000001c0                                   : fopen.obj (.text)
                  00015904    000001b8     ArbitratorClass.obj (.text)
                  00015abc    000001b6     rtsv7M4_T_le_v4SPD16_eabi.lib : fd_add_t2.obj (.text)
                  00015c72    00000002     ExtendedKalman.obj (.text:_ZN5Eigen8internal28check_static_allocation_sizeIfLi49EEEvv)
                  00015c74    000001b4     PID.obj (.text:_ZNKSt7num_putIcSt19ostreambuf_iteratorIcSt11char_traitsIcEEE6do_putES3_RSt8ios_basecd)
                  00015e28    000001b4     PID.obj (.text:_ZNKSt7num_putIcSt19ostreambuf_iteratorIcSt11char_traitsIcEEE6do_putES3_RSt8ios_basece)
                  00015fdc    000001b0     MotorInterface.obj (.text)
                  0001618c    000001ac     rtsv7M4_T_le_v4SPD16_eabi.lib : wlocale.obj (.text:_ZSt10_GetloctxtIwSt19istreambuf_iteratorIwSt11char_traitsIwEEEiRT0_S5_jPKT_)
                  00016338    0000019c     OptimusPiInterface.obj (.text)
                  000164d4    00000192     rtsv7M4_T_le_v4SPD16_eabi.lib : locale.obj (.text:_ZSt10_GetloctxtIcSt19istreambuf_iteratorIcSt11char_traitsIcEEEiRT0_S5_jPKT_)
                  00016666    00000002     ExtendedKalman.obj (.text:_ZN5Eigen8internal28check_static_allocation_sizeIfLi7EEEvv)
                  00016668    00000178     rtsv7M4_T_le_v4SPD16_eabi.lib : xflog.obj (.text)
                  000167e0    00000172                                   : xlocale.obj (.text:_ZNKSt9money_putIcSt19ostreambuf_iteratorIcSt11char_traitsIcEEE6do_putES3_bRSt8ios_basecRKSs)
                  00016952    0000016e     PID.obj (.text:_ZNKSt7num_putIcSt19ostreambuf_iteratorIcSt11char_traitsIcEEE6do_putES3_RSt8ios_basecb)
                  00016ac0    0000016c     rtsv7M4_T_le_v4SPD16_eabi.lib : strtoull.obj (.text)
                  00016c2c    0000016a                                   : xlocale.obj (.text:_ZNKSt9money_getIcSt19istreambuf_iteratorIcSt11char_traitsIcEEE6do_getES3_S3_bRSt8ios_baseRNSt5_IosbIiE8_IostateERe)
                  00016d96    00000002     ExtendedKalman.obj (.text:_ZN5Eigen8internal28check_static_allocation_sizeIfLi9EEEvv)
                  00016d98    00000168     MotorController.obj (.text)
                  00016f00    00000168     StandaloneCopter.obj (.text)
                  00017068    00000168     rtsv7M4_T_le_v4SPD16_eabi.lib : fwrite.obj (.text)
                  000171d0    00000160                                   : wlocale.obj (.text:_ZNKSt7num_putIwSt19ostreambuf_iteratorIwSt11char_traitsIwEEE6do_putES3_RSt8ios_basewd)
                  00017330    00000160                                   : wlocale.obj (.text:_ZNKSt7num_putIwSt19ostreambuf_iteratorIwSt11char_traitsIwEEE6do_putES3_RSt8ios_basewe)
                  00017490    00000160                                   : xlocale.obj (.text:_ZNKSt8time_putIcSt19ostreambuf_iteratorIcSt11char_traitsIcEEE6do_putES3_RSt8ios_basecPKSt2tmcc)
                  000175f0    00000148                                   : wlocale.obj (.text:_ZNKSt7collateIwE12do_transformEPKwS2_)
                  00017738    00000148                                   : sqrt.obj (.text)
                  00017880    00000146                                   : wchar.obj (.text)
                  000179c6    00000142                                   : xlocale.obj (.text:_ZNKSt7collateIcE12do_transformEPKcS2_)
                  00017b08    00000140     InputCapture.obj (.text:retain)
                  00017c48    0000013c     EigenTest.obj (.text:_ZNSt15basic_stringbufIcSt11char_traitsIcESaIcEE7seekposESt4fposIiENSt5_IosbIiE9_OpenmodeE)
                  00017d84    00000136     rtsv7M4_T_le_v4SPD16_eabi.lib : fd_div_t2.obj (.text)
                  00017eba    00000002     EigenTest.obj (.text:_ZN5Eigen8internal28check_that_malloc_is_allowedEv)
                  00017ebc    00000134     rtsv7M4_T_le_v4SPD16_eabi.lib : fputs.obj (.text)
                  00017ff0    00000130                                   : wlocale.obj (.text:_ZNSt7_MpunctIwE5_InitERKSt8_Locinfo)
                  00018120    00000130                                   : strtol.obj (.text)
                  00018250    0000012c                                   : string.obj (.text)
                  0001837c    00000110                                   : strtoul.obj (.text)
                  0001848c    00000110                                   : xdscale.obj (.text)
                  0001859c    00000108                                   : wlocale.obj (.text:_ZNKSt9money_getIwSt19istreambuf_iteratorIwSt11char_traitsIwEEE6do_getES3_S3_bRSt8ios_baseRNSt5_IosbIiE8_IostateERSbIwS2_SaIwEE)
                  000186a4    00000104                                   : wiostrea.obj (.text:_ZNSt9basic_iosIwSt11char_traitsIwEE4initEPSt15basic_streambufIwS1_Eb)
                  000187a8    00000102     ExtendedKalman.obj (.text:_ZN5Eigen8internal28compute_inverse_size3_helperINS_6MatrixIfLi3ELi3ELi0ELi3ELi3EEES3_EEvRKT_RKNT0_6ScalarERKNS2_IS8_Li3ELi1ELi0ELi3ELi1EEERS7_)
                  000188aa    00000100     rtsv7M4_T_le_v4SPD16_eabi.lib : xlocale.obj (.text:_ZNKSt9money_getIcSt19istreambuf_iteratorIcSt11char_traitsIcEEE6do_getES3_S3_bRSt8ios_baseRNSt5_IosbIiE8_IostateERSs)
                  000189aa    00000002                                   : xlocale.obj (.text:_ZNKSt8messagesIcE8do_closeEi)
                  000189ac    000000fc     Quaternion.obj (.text)
                  00018aa8    000000fc     rtsv7M4_T_le_v4SPD16_eabi.lib : fd_mul_t2.obj (.text)
                  00018ba4    000000fa                                   : wlocale.obj (.text:_ZNKSt7_MpunctIwE11do_groupingEv)
                  00018c9e    000000fa                                   : wlocale.obj (.text:_ZNKSt8numpunctIwE11do_groupingEv)
                  00018d98    000000f8                                   : xlocale.obj (.text:_ZNSt7_MpunctIcE5_InitERKSt8_Locinfo)
                  00018e90    000000f4                                   : dtor_list.obj (.text)
                  00018f84    000000ec     MerayoCalib.obj (.text)
                  00019070    000000e4     rtsv7M4_T_le_v4SPD16_eabi.lib : wlocale.obj (.text:_ZNKSt8time_getIwSt19istreambuf_iteratorIwSt11char_traitsIwEEE11do_get_timeES3_S3_RSt8ios_baseRNSt5_IosbIiE8_IostateEPSt2tm)
                  00019154    000000e2     PID.obj (.text:_ZNSolsEf)
                  00019236    00000002     rtsv7M4_T_le_v4SPD16_eabi.lib : wlocale.obj (.text:_ZNKSt8messagesIwE8do_closeEi)
                  00019238    000000dc                                   : setvbuf.obj (.text)
                  00019314    000000da     EigenTest.obj (.text:_ZNSolsEd)
                  000193ee    00000002     rtsv7M4_T_le_v4SPD16_eabi.lib : ios.obj (.text:_ZNKSt9exception8_DoraiseEv)
                  000193f0    000000d8                                   : atan2f.obj (.text)
                  000194c8    000000d0                                   : iostream.obj (.text:_ZNSt13basic_filebufIcSt11char_traitsIcEE5imbueERKSt6locale)
                  00019598    000000d0                                   : wiostrea.obj (.text:_ZNSt13basic_filebufIwSt11char_traitsIwEE5imbueERKSt6locale)
                  00019668    000000ce     PrintfTest.obj (.text:_ZNSolsEj)
                  00019736    000000c8     PID.obj (.text:_ZNKSt7num_putIcSt19ostreambuf_iteratorIcSt11char_traitsIcEEE5_IfmtEPcPKcNSt5_IosbIiE9_FmtflagsE)
                  000197fe    000000c4     rtsv7M4_T_le_v4SPD16_eabi.lib : xdnorm.obj (.text)
                  000198c2    000000c2     PID.obj (.text:_ZNSt8numpunctIcE5_InitERKSt8_Locinfo)
                  00019984    000000c0     rtsv7M4_T_le_v4SPD16_eabi.lib : xlocale.obj (.text:_ZNKSt8time_getIcSt19istreambuf_iteratorIcSt11char_traitsIcEEE11do_get_timeES3_S3_RSt8ios_baseRNSt5_IosbIiE8_IostateEPSt2tm)
                  00019a44    000000c0                                   : fflush.obj (.text)
                  00019b04    000000bc                                   : typeinfo_.obj (.text)
                  00019bc0    000000b8     EigenTest.obj (.text:_ZNKSt15basic_stringbufIcSt11char_traitsIcESaIcEE3strEv)
                  00019c78    000000b8     rtsv7M4_T_le_v4SPD16_eabi.lib : ceil.obj (.text)
                  00019d30    000000b6     EigenTest.obj (.text:_ZN5EigenlsINS_14CwiseNullaryOpINS_8internal18scalar_constant_opIfEENS_6MatrixIfLi7ELi7ELi0ELi7ELi7EEEEEEERSoS8_RKNS_9DenseBaseIT_EE)
                  00019de6    000000b6     rtsv7M4_T_le_v4SPD16_eabi.lib : locale.obj (.text:_ZNKSt7num_getIcSt19istreambuf_iteratorIcSt11char_traitsIcEEE6do_getES3_S3_RSt8ios_baseRNSt5_IosbIiE8_IostateERt)
                  00019e9c    000000b6                                   : wlocale.obj (.text:_ZNKSt7num_getIwSt19istreambuf_iteratorIwSt11char_traitsIwEEE6do_getES3_S3_RSt8ios_baseRNSt5_IosbIiE8_IostateERt)
                  00019f52    00000002                                   : wiostrea.obj (.text:_ZNSt15basic_streambufIwSt11char_traitsIwEE5_LockEv)
                  00019f54    000000b4                                   : wlocale.obj (.text:_ZNKSt7_MpunctIwE14do_curr_symbolEv)
                  0001a008    000000b4                                   : wlocale.obj (.text:_ZNKSt7_MpunctIwE16do_negative_signEv)
                  0001a0bc    000000b4                                   : wlocale.obj (.text:_ZNKSt7_MpunctIwE16do_positive_signEv)
                  0001a170    000000b4     PID.obj (.text:_ZNKSt7num_putIcSt19ostreambuf_iteratorIcSt11char_traitsIcEEE5_FfmtEPccNSt5_IosbIiE9_FmtflagsE)
                  0001a224    000000b4     rtsv7M4_T_le_v4SPD16_eabi.lib : wlocale.obj (.text:_ZNKSt7num_putIwSt19ostreambuf_iteratorIwSt11char_traitsIwEEE11_PutgroupedES3_PKcjw)
                  0001a2d8    000000b4                                   : wlocale.obj (.text:_ZNKSt8numpunctIwE11do_truenameEv)
                  0001a38c    000000b4                                   : wlocale.obj (.text:_ZNKSt8numpunctIwE12do_falsenameEv)
                  0001a440    000000b4                                   : wlocale.obj (.text:_ZNSbIwSt11char_traitsIwESaIwEE6insertEjjw)
                  0001a4f4    000000b4                                   : wlocale.obj (.text:_ZNSt8numpunctIwE5_InitERKSt8_Locinfo)
                  0001a5a8    000000b4                                   : xlocinfo.obj (.text)
                  0001a65c    000000b0                                   : iostream.obj (.text:_ZNSt13basic_filebufIcSt11char_traitsIcEE7seekoffElNSt5_IosbIiE8_SeekdirENS4_9_OpenmodeE)
                  0001a70c    000000b0                                   : wiostrea.obj (.text:_ZNSt13basic_filebufIwSt11char_traitsIwEE7seekoffElNSt5_IosbIiE8_SeekdirENS4_9_OpenmodeE)
                  0001a7bc    000000b0                                   : asinf.obj (.text)
                  0001a86c    000000ae                                   : locale.obj (.text:_ZNKSt7num_getIcSt19istreambuf_iteratorIcSt11char_traitsIcEEE6do_getES3_S3_RSt8ios_baseRNSt5_IosbIiE8_IostateERj)
                  0001a91a    000000ae                                   : wlocale.obj (.text:_ZNKSt7num_getIwSt19istreambuf_iteratorIwSt11char_traitsIwEEE6do_getES3_S3_RSt8ios_baseRNSt5_IosbIiE8_IostateERj)
                  0001a9c8    000000ad     EigenTest.obj (.text:_ZN5EigenlsINS_6MatrixIdLin1ELin1ELi0ELin1ELin1EEEEERSoS3_RKNS_9DenseBaseIT_EE)
                  0001aa75    00000001     --HOLE-- [fill = 0]
                  0001aa76    000000ac     rtsv7M4_T_le_v4SPD16_eabi.lib : _io_perm.obj (.text)
                  0001ab22    00000002                                   : wiostrea.obj (.text:_ZNSt15basic_streambufIwSt11char_traitsIwEE5imbueERKSt6locale)
                  0001ab24    000000a8                                   : wlocale.obj (.text:_ZNSbIwSt11char_traitsIwESaIwEE6assignERKS2_jj)
                  0001abcc    000000a8                                   : xfatan.obj (.text)
                  0001ac74    000000a6     EigenTest.obj (.text:_ZNSt15basic_streambufIcSt11char_traitsIcEE6xsgetnEPci)
                  0001ad1a    000000a6     EigenTest.obj (.text:_ZNSt15basic_stringbufIcSt11char_traitsIcESaIcEE9underflowEv)
                  0001adc0    000000a4     rtsv7M4_T_le_v4SPD16_eabi.lib : iostream.obj (.text:_ZNSt13basic_filebufIcSt11char_traitsIcEE7seekposESt4fposIiENSt5_IosbIiE9_OpenmodeE)
                  0001ae64    000000a4                                   : wiostrea.obj (.text:_ZNSt13basic_filebufIwSt11char_traitsIwEE7seekposESt4fposIiENSt5_IosbIiE9_OpenmodeE)
                  0001af08    000000a4     EigenTest.obj (.text:_ZNSt15basic_streambufIcSt11char_traitsIcEE6xsputnEPKci)
                  0001afac    000000a2     ExtendedKalman.obj (.text:_ZN5Eigen8internal15compute_inverseINS_6MatrixIfLi3ELi3ELi0ELi3ELi3EEES3_Li3EE3runERKS3_RS3_)
                  0001b04e    000000a2     PID.obj (.text:_ZNKSt7num_putIcSt19ostreambuf_iteratorIcSt11char_traitsIcEEE11_PutgroupedES3_PKcjc)
                  0001b0f0    000000a0     EigenTest.obj (.text:_ZN5Eigen8IOFormatC1EiiRKSsS2_S2_S2_S2_S2_)
                  0001b190    000000a0     PID.obj (.text:_ZNSs5_CopyEjj)
                  0001b230    0000009c     rtsv7M4_T_le_v4SPD16_eabi.lib : locale.obj (.text:_ZNKSt7num_getIcSt19istreambuf_iteratorIcSt11char_traitsIcEEE6do_getES3_S3_RSt8ios_baseRNSt5_IosbIiE8_IostateERx)
                  0001b2cc    0000009c                                   : locale.obj (.text:_ZNKSt7num_getIcSt19istreambuf_iteratorIcSt11char_traitsIcEEE6do_getES3_S3_RSt8ios_baseRNSt5_IosbIiE8_IostateERy)
                  0001b368    0000009c                                   : wlocale.obj (.text:_ZNKSt7num_getIwSt19istreambuf_iteratorIwSt11char_traitsIwEEE6do_getES3_S3_RSt8ios_baseRNSt5_IosbIiE8_IostateERx)
                  0001b404    0000009c                                   : wlocale.obj (.text:_ZNKSt7num_getIwSt19istreambuf_iteratorIwSt11char_traitsIwEEE6do_getES3_S3_RSt8ios_baseRNSt5_IosbIiE8_IostateERy)
                  0001b4a0    0000009c     EigenTest.obj (.text:_ZNSt15basic_stringbufIcSt11char_traitsIcESaIcEE5_InitEPKcji)
                  0001b53c    0000009c     ExtendedKalman.obj (.text:_ZSt8_Pow_intIfET_S0_i)
                  0001b5d8    0000009c     rtsv7M4_T_le_v4SPD16_eabi.lib : _bufread.obj (.text)
                  0001b674    0000009c                                   : fputc.obj (.text)
                  0001b710    0000009c                                   : memcpy_t2.obj (.text)
                  0001b7ac    0000009a                                   : locale.obj (.text:_ZNKSt7num_getIcSt19istreambuf_iteratorIcSt11char_traitsIcEEE6do_getES3_S3_RSt8ios_baseRNSt5_IosbIiE8_IostateERf)
                  0001b846    0000009a                                   : wlocale.obj (.text:_ZNKSt7num_getIwSt19istreambuf_iteratorIwSt11char_traitsIwEEE6do_getES3_S3_RSt8ios_baseRNSt5_IosbIiE8_IostateERf)
                  0001b8e0    00000098     Overseer.obj (.text)
                  0001b978    00000098     rtsv7M4_T_le_v4SPD16_eabi.lib : wlocale.obj (.text:_ZNKSt8messagesIwE6do_getEiiiRKSbIwSt11char_traitsIwESaIwEE)
                  0001ba10    00000098     PID.obj (.text:_ZNSs6appendERKSsjj)
                  0001baa8    00000098     PID.obj (.text:_ZNSs6insertEjjc)
                  0001bb40    00000098     EigenTest.obj (.text:_ZNSt15basic_stringbufIcSt11char_traitsIcESaIcEE9pbackfailEi)
                  0001bbd8    00000098     rtsv7M4_T_le_v4SPD16_eabi.lib : wlocale.obj (.text:_ZNSt8time_getIwSt19istreambuf_iteratorIwSt11char_traitsIwEEE5_InitERKSt8_Locinfo)
                  0001bc70    00000098                                   : ceilf.obj (.text)
                  0001bd08    00000098                                   : fclose.obj (.text)
                  0001bda0    00000098                                   : stox.obj (.text)
                  0001be38    00000096                                   : locale.obj (.text:_ZNKSt7num_getIcSt19istreambuf_iteratorIcSt11char_traitsIcEEE6do_getES3_S3_RSt8ios_baseRNSt5_IosbIiE8_IostateERPv)
                  0001bece    00000096                                   : wlocale.obj (.text:_ZNKSt7num_getIwSt19istreambuf_iteratorIwSt11char_traitsIwEEE6do_getES3_S3_RSt8ios_baseRNSt5_IosbIiE8_IostateERPv)
                  0001bf64    00000094     driverlib.lib : timer.obj (.text:_TimerIntNumberGet)
                  0001bff8    00000094     rtsv7M4_T_le_v4SPD16_eabi.lib : locale.obj (.text:_ZNKSt7num_getIcSt19istreambuf_iteratorIcSt11char_traitsIcEEE6do_getES3_S3_RSt8ios_baseRNSt5_IosbIiE8_IostateERd)
                  0001c08c    00000094                                   : locale.obj (.text:_ZNKSt7num_getIcSt19istreambuf_iteratorIcSt11char_traitsIcEEE6do_getES3_S3_RSt8ios_baseRNSt5_IosbIiE8_IostateERe)
                  0001c120    00000094                                   : locale.obj (.text:_ZNKSt7num_getIcSt19istreambuf_iteratorIcSt11char_traitsIcEEE6do_getES3_S3_RSt8ios_baseRNSt5_IosbIiE8_IostateERl)
                  0001c1b4    00000094                                   : locale.obj (.text:_ZNKSt7num_getIcSt19istreambuf_iteratorIcSt11char_traitsIcEEE6do_getES3_S3_RSt8ios_baseRNSt5_IosbIiE8_IostateERm)
                  0001c248    00000094                                   : wlocale.obj (.text:_ZNKSt7num_getIwSt19istreambuf_iteratorIwSt11char_traitsIwEEE6do_getES3_S3_RSt8ios_baseRNSt5_IosbIiE8_IostateERd)
                  0001c2dc    00000094                                   : wlocale.obj (.text:_ZNKSt7num_getIwSt19istreambuf_iteratorIwSt11char_traitsIwEEE6do_getES3_S3_RSt8ios_baseRNSt5_IosbIiE8_IostateERe)
                  0001c370    00000094                                   : wlocale.obj (.text:_ZNKSt7num_getIwSt19istreambuf_iteratorIwSt11char_traitsIwEEE6do_getES3_S3_RSt8ios_baseRNSt5_IosbIiE8_IostateERl)
                  0001c404    00000094                                   : wlocale.obj (.text:_ZNKSt7num_getIwSt19istreambuf_iteratorIwSt11char_traitsIwEEE6do_getES3_S3_RSt8ios_baseRNSt5_IosbIiE8_IostateERm)
                  0001c498    00000094     PID.obj (.text:_ZNSs6assignERKSsjj)
                  0001c52c    00000094     rtsv7M4_T_le_v4SPD16_eabi.lib : xlocale.obj (.text:_ZSt9use_facetISt10moneypunctIcLb1EEERKT_RKSt6locale)
                  0001c5c0    00000094                                   : wlocale.obj (.text:_ZSt9use_facetISt10moneypunctIwLb1EEERKT_RKSt6locale)
                  0001c654    00000094                                   : auto_init.obj (.text)
                  0001c6e8    00000094                                   : fgetc.obj (.text)
                  0001c77c    00000092                                   : xlocale.obj (.text:_ZNKSt8messagesIcE6do_getEiiiRKSs)
                  0001c80e    00000002                                   : wiostrea.obj (.text:_ZNSt15basic_streambufIwSt11char_traitsIwEE6setbufEPwi)
                  0001c810    00000090                                   : xlocale.obj (.text:_ZSt9use_facetISt10moneypunctIcLb0EEERKT_RKSt6locale)
                  0001c8a0    00000090                                   : wlocale.obj (.text:_ZSt9use_facetISt10moneypunctIwLb0EEERKT_RKSt6locale)
                  0001c930    0000008e                                   : multibyte.obj (.text)
                  0001c9be    0000008c     driverlib.lib : ssi.obj (.text:SSIConfigSetExpClk)
                  0001ca4a    00000002     rtsv7M4_T_le_v4SPD16_eabi.lib : wiostrea.obj (.text:_ZNSt15basic_streambufIwSt11char_traitsIwEE7_UnlockEv)
                  0001ca4c    0000008c     driverlib.lib : sysctl.obj (.text:SysCtlPeripheralReset)
                  0001cad8    0000008c                   : timer.obj (.text:TimerConfigure)
                  0001cb64    0000008c     rtsv7M4_T_le_v4SPD16_eabi.lib : wiostrea.obj (.text:_ZNSt13basic_filebufIwSt11char_traitsIwEED0Ev)
                  0001cbf0    00000088                                   : wlocale.obj (.text:_ZSt9use_facetISt5ctypeIwEERKT_RKSt6locale)
                  0001cc78    00000086     PID.obj (.text:_ZNSo3putEc)
                  0001ccfe    00000086     rtsv7M4_T_le_v4SPD16_eabi.lib : fd_cmp_t2.obj (.text:__aeabi_cdcmple)
                  0001cd84    00000086                                   : fd_cmp_t2.obj (.text:__aeabi_cdrcmple)
                  0001ce0a    00000002                                   : iostream.obj (.text:_ZNSt7codecvtIcciED1Ev)
                  0001ce0c    00000084     driverlib.lib : i2c.obj (.text:I2CMasterInitExpClk)
                  0001ce90    00000084     rtsv7M4_T_le_v4SPD16_eabi.lib : wiostrea.obj (.text:_ZNKSt7codecvtIwciE6do_outERiPKwS3_RS3_PcS5_RS5_)
                  0001cf14    00000084     PID.obj (.text:_ZNSs6appendEPKcj)
                  0001cf98    00000084     rtsv7M4_T_le_v4SPD16_eabi.lib : wiostrea.obj (.text:_ZNSt13basic_filebufIwSt11char_traitsIwEED1Ev)
                  0001d01c    00000084                                   : wlocale.obj (.text:_ZSt9use_facetISt8numpunctIwEERKT_RKSt6locale)
                  0001d0a0    00000080     driverlib.lib : interrupt.obj (.text:IntEnable)
                  0001d120    00000080                   : ssi.obj (.text:_SSIIntNumberGet)
                  0001d1a0    00000080     rtsv7M4_T_le_v4SPD16_eabi.lib : ungetc.obj (.text)
                  0001d220    0000007e     PID.obj (.text:_ZNSo6sentryC1ERSo)
                  0001d29e    00000002     rtsv7M4_T_le_v4SPD16_eabi.lib : wiostrea.obj (.text:_ZNSt7codecvtIwciED1Ev)
                  0001d2a0    0000007c     EigenTest.obj (.text:_ZNSdC2EPSt15basic_streambufIcSt11char_traitsIcEE)
                  0001d31c    0000007c     PID.obj (.text:_ZNSs5eraseEjj)
                  0001d398    0000007c     rtsv7M4_T_le_v4SPD16_eabi.lib : wiostrea.obj (.text:_ZNSt13basic_filebufIwSt11char_traitsIwEE6setbufEPwi)
                  0001d414    0000007c     PID.obj (.text:_ZSt9use_facetISt5ctypeIcEERKT_RKSt6locale)
                  0001d490    0000007c     PID.obj (.text:_ZSt9use_facetISt7num_putIcSt19ostreambuf_iteratorIcSt11char_traitsIcEEEERKT_RKSt6locale)
                  0001d50c    0000007c     PID.obj (.text:_ZSt9use_facetISt8numpunctIcEERKT_RKSt6locale)
                  0001d588    0000007a     rtsv7M4_T_le_v4SPD16_eabi.lib : xfdnorm.obj (.text)
                  0001d602    00000002                                   : xlocale.obj (.text:_ZNSt7collateIcED1Ev)
                  0001d604    00000078     EigenTest.obj (.text:_ZNSiC2EPSt15basic_streambufIcSt11char_traitsIcEEbb)
                  0001d67c    00000078     rtsv7M4_T_le_v4SPD16_eabi.lib : memset_t2.obj (.text)
                  0001d6f4    00000076                                   : iostream.obj (.text:_ZNSt13basic_filebufIcSt11char_traitsIcEE9pbackfailEi)
                  0001d76a    00000076                                   : wiostrea.obj (.text:_ZNSt13basic_filebufIwSt11char_traitsIwEE9pbackfailEi)
                  0001d7e0    00000074     SPISlave.obj (.text:_ZN15RingBufferClassI9message_sE4pushES0_)
                  0001d854    00000074     rtsv7M4_T_le_v4SPD16_eabi.lib : wlocale.obj (.text:_ZNSbIwSt11char_traitsIwESaIwEE5_CopyEjj)
                  0001d8c8    00000074                                   : wlocale.obj (.text:_ZNSbIwSt11char_traitsIwESaIwEE6appendEjw)
                  0001d93c    00000074     EigenTest.obj (.text:_ZNSt18basic_stringstreamIcSt11char_traitsIcESaIcEEC2ENSt5_IosbIiE9_OpenmodeE)
                  0001d9b0    00000072     PID.obj (.text:_ZNSs5_GrowEjb)
                  0001da22    00000002     rtsv7M4_T_le_v4SPD16_eabi.lib : wlocale.obj (.text:_ZNSt7collateIwED1Ev)
                  0001da24    00000070     PID.obj (.text:_ZNKSt7num_putIcSt19ostreambuf_iteratorIcSt11char_traitsIcEEE6do_putES3_RSt8ios_basecPKv)
                  0001da94    00000070     rtsv7M4_T_le_v4SPD16_eabi.lib : printf.obj (.text)
                  0001db04    0000006e                                   : wiostrea.obj (.text:_ZNKSt7codecvtIwciE5do_inERiPKcS3_RS3_PwS5_RS5_)
                  0001db72    00000002                                   : locale.obj (.text:_ZNSt7num_getIcSt19istreambuf_iteratorIcSt11char_traitsIcEEED1Ev)
                  0001db74    0000006c     EigenTest.obj (.text:_ZNSoC2EPSt15basic_streambufIcSt11char_traitsIcEEb)
                  0001dbe0    0000006c     rtsv7M4_T_le_v4SPD16_eabi.lib : wiostrea.obj (.text:_ZNSt15basic_streambufIwSt11char_traitsIwEE6xsputnEPKwi)
                  0001dc4c    0000006c                                   : wlocale.obj (.text:_ZSt10_MaklocstrIwEPT_PKcS1_RKSt7_Cvtvec)
                  0001dcb8    0000006a     EigenTest.obj (.text:_ZNSt15basic_stringbufIcSt11char_traitsIcESaIcEE5_TidyEv)
                  0001dd22    00000002     rtsv7M4_T_le_v4SPD16_eabi.lib : wlocale.obj (.text:_ZNSt7num_getIwSt19istreambuf_iteratorIwSt11char_traitsIwEEED1Ev)
                  0001dd24    00000068     driverlib.lib : gpio.obj (.text:GPIOPinConfigure)
                  0001dd8c    00000068     rtsv7M4_T_le_v4SPD16_eabi.lib : xlocale.obj (.text:_ZNKSt8time_getIcSt19istreambuf_iteratorIcSt11char_traitsIcEEE11do_get_yearES3_S3_RSt8ios_baseRNSt5_IosbIiE8_IostateEPSt2tm)
                  0001ddf4    00000068                                   : wlocale.obj (.text:_ZNKSt8time_getIwSt19istreambuf_iteratorIwSt11char_traitsIwEEE11do_get_yearES3_S3_RSt8ios_baseRNSt5_IosbIiE8_IostateEPSt2tm)
                  0001de5c    00000064     PID.obj (.text:_ZNKSt7num_putIcSt19ostreambuf_iteratorIcSt11char_traitsIcEEE6do_putES3_RSt8ios_basecx)
                  0001dec0    00000064     PID.obj (.text:_ZNKSt7num_putIcSt19ostreambuf_iteratorIcSt11char_traitsIcEEE6do_putES3_RSt8ios_basecy)
                  0001df24    00000064     rtsv7M4_T_le_v4SPD16_eabi.lib : wiostrea.obj (.text:_ZNSt15basic_streambufIwSt11char_traitsIwEE6xsgetnEPwi)
                  0001df88    00000064     PID.obj (.text:_ZNSt5ctypeIcEC1EPKsbj)
                  0001dfec    00000064     rtsv7M4_T_le_v4SPD16_eabi.lib : fseek.obj (.text)
                  0001e050    00000064                                   : ftell.obj (.text)
                  0001e0b4    00000064                                   : xdunscal.obj (.text)
                  0001e118    00000062     SPISlave.obj (.text:_ZN15RingBufferClassI9message_sE3popEPS0_)
                  0001e17a    00000002     rtsv7M4_T_le_v4SPD16_eabi.lib : wlocale.obj (.text:_ZNSt7num_putIwSt19ostreambuf_iteratorIwSt11char_traitsIwEEED1Ev)
                  0001e17c    00000060     PID.obj (.text:_ZNKSt7num_putIcSt19ostreambuf_iteratorIcSt11char_traitsIcEEE6do_putES3_RSt8ios_basecl)
                  0001e1dc    00000060     PID.obj (.text:_ZNKSt7num_putIcSt19ostreambuf_iteratorIcSt11char_traitsIcEEE6do_putES3_RSt8ios_basecm)
                  0001e23c    00000060     PID.obj (.text:_ZNSs6appendEjc)
                  0001e29c    00000060     rtsv7M4_T_le_v4SPD16_eabi.lib : iostream.obj (.text:_ZNSt13basic_filebufIcSt11char_traitsIcEE6setbufEPci)
                  0001e2fc    00000060                                   : xlocale.obj (.text:_ZNSt8time_getIcSt19istreambuf_iteratorIcSt11char_traitsIcEEE5_InitERKSt8_Locinfo)
                  0001e35c    00000060                                   : i_divt2.obj (.text)
                  0001e3bc    00000060                                   : sprintf.obj (.text)
                  0001e41c    00000060                                   : throw.obj (.text)
                  0001e47c    00000060                                   : trgmsg.obj (.text)
                  0001e4dc    0000005e     ExtendedKalman.obj (.text:_ZN5Eigen8internal11assign_implINS_6MatrixIfLi7ELi7ELi0ELi7ELi7EEENS_17CoeffBasedProductIRKS3_S6_Li6EEELi0ELi0ELi0EE3runERS3_RKS7_)
                  0001e53a    0000005e     ExtendedKalman.obj (.text:_ZN5Eigen8internal11assign_implINS_6MatrixIfLi7ELi7ELi0ELi7ELi7EEENS_17CoeffBasedProductIS3_RKS3_Li6EEELi0ELi0ELi0EE3runERS3_RKS7_)
                  0001e598    0000005e     ExtendedKalman.obj (.text:_ZN5Eigen8internal11assign_implINS_6MatrixIfLi7ELi7ELi1ELi7ELi7EEENS_17CoeffBasedProductIRKNS2_IfLi7ELi7ELi0ELi7ELi7EEEKNS_9TransposeIS5_EELi6EEELi0ELi0ELi0EE3runERS3_RKSB_)
                  0001e5f6    0000005e     rtsv7M4_T_le_v4SPD16_eabi.lib : copy_decompress_rle.obj (.text)
                  0001e654    0000005c     driverlib.lib : gpio.obj (.text:GPIODirModeSet)
                  0001e6b0    0000005c                   : interrupt.obj (.text:IntRegister)
                  0001e70c    0000005c     rtsv7M4_T_le_v4SPD16_eabi.lib : wlocale.obj (.text:_ZNKSt7num_putIwSt19ostreambuf_iteratorIwSt11char_traitsIwEEE6do_putES3_RSt8ios_basewPKv)
                  0001e768    0000005c                                   : wlocale.obj (.text:_ZNKSt7num_putIwSt19ostreambuf_iteratorIwSt11char_traitsIwEEE6do_putES3_RSt8ios_basewx)
                  0001e7c4    0000005c                                   : wlocale.obj (.text:_ZNKSt7num_putIwSt19ostreambuf_iteratorIwSt11char_traitsIwEEE6do_putES3_RSt8ios_basewy)
                  0001e820    0000005c                                   : wlocale.obj (.text:_ZNSbIwSt11char_traitsIwESaIwEE5eraseEjj)
                  0001e87c    0000005c     PID.obj (.text:_ZNSo12_Sentry_baseC1ERSo)
                  0001e8d8    0000005a     PID.obj (.text:_ZNKSt7num_putIcSt19ostreambuf_iteratorIcSt11char_traitsIcEEE5_PutcES3_PKcj)
                  0001e932    0000005a     rtsv7M4_T_le_v4SPD16_eabi.lib : wlocale.obj (.text:_ZNKSt7num_putIwSt19ostreambuf_iteratorIwSt11char_traitsIwEEE5_IfmtEPcPKcNSt5_IosbIiE9_FmtflagsE)
                  0001e98c    0000005a                                   : ltoa.obj (.text)
                  0001e9e6    00000058                                   : locale0.obj (.text:_ZNKSs7compareEjjPKcj)
                  0001ea3e    00000002                                   : xlocale.obj (.text:_ZNSt8messagesIcED1Ev)
                  0001ea40    00000058                                   : wlocale.obj (.text:_ZNKSt7num_putIwSt19ostreambuf_iteratorIwSt11char_traitsIwEEE6do_putES3_RSt8ios_basewl)
                  0001ea98    00000058                                   : wlocale.obj (.text:_ZNKSt7num_putIwSt19ostreambuf_iteratorIwSt11char_traitsIwEEE6do_putES3_RSt8ios_basewm)
                  0001eaf0    00000058     PID.obj (.text:_ZNSo5flushEv)
                  0001eb48    00000058     rtsv7M4_T_le_v4SPD16_eabi.lib : iostream.obj (.text:_ZNSt13basic_filebufIcSt11char_traitsIcEED0Ev)
                  0001eba0    00000056     EigenTest.obj (.text:_ZN5Eigen12DenseStorageIdLin1ELin1ELin1ELi0EE6resizeEiii)
                  0001ebf6    00000002     rtsv7M4_T_le_v4SPD16_eabi.lib : wlocale.obj (.text:_ZNSt8messagesIwED1Ev)
                  0001ebf8    00000054     driverlib.lib : interrupt.obj (.text:IntPrioritySet)
                  0001ec4c    00000054     ExtendedKalman.obj (.text:_ZN5Eigen15PlainObjectBaseINS_6MatrixIfLi3ELi3ELi0ELi3ELi3EEEE10resizeLikeINS_13CwiseBinaryOpINS_8internal13scalar_sum_opIfEEKNS_17CoeffBasedProductIRKNS1_IfLi3ELi7ELi0ELi3ELi7EEEKNS_9TransposeISA_EELi6EEEKS2_EEEEvRKNS_9EigenBaseIT_EE)
                  0001eca0    00000054     ExtendedKalman.obj (.text:_ZN5Eigen15PlainObjectBaseINS_6MatrixIfLi3ELi3ELi0ELi3ELi3EEEE10resizeLikeINS_14CwiseNullaryOpINS_8internal18scalar_constant_opIfEES2_EEEEvRKNS_9EigenBaseIT_EE)
                  0001ecf4    00000054     ExtendedKalman.obj (.text:_ZN5Eigen15PlainObjectBaseINS_6MatrixIfLi3ELi3ELi1ELi3ELi3EEEE10resizeLikeINS_17CoeffBasedProductIRKNS1_IfLi3ELi7ELi0ELi3ELi7EEEKNS_9TransposeIS6_EELi6EEEEEvRKNS_9EigenBaseIT_EE)
                  0001ed48    00000054     ExtendedKalman.obj (.text:_ZN5Eigen15PlainObjectBaseINS_6MatrixIfLi3ELi7ELi0ELi3ELi7EEEE10resizeLikeINS_14CwiseNullaryOpINS_8internal18scalar_constant_opIfEES2_EEEEvRKNS_9EigenBaseIT_EE)
                  0001ed9c    00000054     ExtendedKalman.obj (.text:_ZN5Eigen15PlainObjectBaseINS_6MatrixIfLi3ELi7ELi0ELi3ELi7EEEE10resizeLikeINS_17CoeffBasedProductIRKS2_RKNS1_IfLi7ELi7ELi0ELi7ELi7EEELi6EEEEEvRKNS_9EigenBaseIT_EE)
                  0001edf0    00000054     ExtendedKalman.obj (.text:_ZN5Eigen15PlainObjectBaseINS_6MatrixIfLi7ELi3ELi0ELi7ELi3EEEE10resizeLikeINS_14CwiseNullaryOpINS_8internal18scalar_constant_opIfEES2_EEEEvRKNS_9EigenBaseIT_EE)
                  0001ee44    00000054     ExtendedKalman.obj (.text:_ZN5Eigen15PlainObjectBaseINS_6MatrixIfLi7ELi3ELi0ELi7ELi3EEEE10resizeLikeINS_17CoeffBasedProductIRKNS1_IfLi7ELi3ELi1ELi7ELi3EEENS1_IfLi3ELi3ELi0ELi3ELi3EEELi6EEEEEvRKNS_9EigenBaseIT_EE)
                  0001ee98    00000054     ExtendedKalman.obj (.text:_ZN5Eigen15PlainObjectBaseINS_6MatrixIfLi7ELi3ELi0ELi7ELi3EEEE10resizeLikeIS2_EEvRKNS_9EigenBaseIT_EE)
                  0001eeec    00000054     ExtendedKalman.obj (.text:_ZN5Eigen15PlainObjectBaseINS_6MatrixIfLi7ELi3ELi1ELi7ELi3EEEE10resizeLikeINS_17CoeffBasedProductIRKNS1_IfLi7ELi7ELi0ELi7ELi7EEEKNS_9TransposeINS1_IfLi3ELi7ELi0ELi3ELi7EEEEELi6EEEEEvRKNS_9EigenBaseIT_EE)
                  0001ef40    00000054     ExtendedKalman.obj (.text:_ZN5Eigen15PlainObjectBaseINS_6MatrixIfLi7ELi7ELi0ELi7ELi7EEEE10resizeLikeINS_13CwiseBinaryOpINS_8internal13scalar_sum_opIfEEKNS_17CoeffBasedProductIRKS2_KNS_9TransposeIS2_EELi6EEESA_EEEEvRKNS_9EigenBaseIT_EE)
                  0001ef94    00000054     ExtendedKalman.obj (.text:_ZN5Eigen15PlainObjectBaseINS_6MatrixIfLi7ELi7ELi0ELi7ELi7EEEE10resizeLikeINS_13CwiseBinaryOpINS_8internal20scalar_difference_opIfEEKS2_KNS_17CoeffBasedProductIRKNS1_IfLi7ELi3ELi0ELi7ELi3EEERKNS1_IfLi3ELi7ELi0ELi3ELi7EEELi6EEEEEEEvRKNS_9EigenBaseIT_EE)
                  0001efe8    00000054     ExtendedKalman.obj (.text:_ZN5Eigen15PlainObjectBaseINS_6MatrixIfLi7ELi7ELi0ELi7ELi7EEEE10resizeLikeINS_14CwiseNullaryOpINS_8internal18scalar_constant_opIfEES2_EEEEvRKNS_9EigenBaseIT_EE)
                  0001f03c    00000054     ExtendedKalman.obj (.text:_ZN5Eigen15PlainObjectBaseINS_6MatrixIfLi7ELi7ELi0ELi7ELi7EEEE10resizeLikeINS_14CwiseNullaryOpINS_8internal18scalar_identity_opIfEES2_EEEEvRKNS_9EigenBaseIT_EE)
                  0001f090    00000054     ExtendedKalman.obj (.text:_ZN5Eigen15PlainObjectBaseINS_6MatrixIfLi7ELi7ELi0ELi7ELi7EEEE10resizeLikeINS_17CoeffBasedProductIRKNS1_IfLi7ELi3ELi0ELi7ELi3EEERKNS1_IfLi3ELi7ELi0ELi3ELi7EEELi6EEEEEvRKNS_9EigenBaseIT_EE)
                  0001f0e4    00000054     ExtendedKalman.obj (.text:_ZN5Eigen15PlainObjectBaseINS_6MatrixIfLi7ELi7ELi0ELi7ELi7EEEE10resizeLikeINS_17CoeffBasedProductIRKS2_S7_Li6EEEEEvRKNS_9EigenBaseIT_EE)
                  0001f138    00000054     ExtendedKalman.obj (.text:_ZN5Eigen15PlainObjectBaseINS_6MatrixIfLi7ELi7ELi0ELi7ELi7EEEE10resizeLikeINS_17CoeffBasedProductIS2_RKS2_Li6EEEEEvRKNS_9EigenBaseIT_EE)
                  0001f18c    00000054     ExtendedKalman.obj (.text:_ZN5Eigen15PlainObjectBaseINS_6MatrixIfLi7ELi7ELi0ELi7ELi7EEEE10resizeLikeIS2_EEvRKNS_9EigenBaseIT_EE)
                  0001f1e0    00000054     ExtendedKalman.obj (.text:_ZN5Eigen15PlainObjectBaseINS_6MatrixIfLi7ELi7ELi1ELi7ELi7EEEE10resizeLikeINS_17CoeffBasedProductIRKNS1_IfLi7ELi7ELi0ELi7ELi7EEEKNS_9TransposeIS6_EELi6EEEEEvRKNS_9EigenBaseIT_EE)
                  0001f234    00000054     ExtendedKalman.obj (.text:_ZN5Eigen8internal12cofactor_3x3INS_6MatrixIfLi3ELi3ELi0ELi3ELi3EEELi0ELi0EEENT_6ScalarERKS4_)
                  0001f288    00000054     ExtendedKalman.obj (.text:_ZN5Eigen8internal12cofactor_3x3INS_6MatrixIfLi3ELi3ELi0ELi3ELi3EEELi0ELi1EEENT_6ScalarERKS4_)
                  0001f2dc    00000054     ExtendedKalman.obj (.text:_ZN5Eigen8internal12cofactor_3x3INS_6MatrixIfLi3ELi3ELi0ELi3ELi3EEELi0ELi2EEENT_6ScalarERKS4_)
                  0001f330    00000054     ExtendedKalman.obj (.text:_ZN5Eigen8internal12cofactor_3x3INS_6MatrixIfLi3ELi3ELi0ELi3ELi3EEELi1ELi0EEENT_6ScalarERKS4_)
                  0001f384    00000054     ExtendedKalman.obj (.text:_ZN5Eigen8internal12cofactor_3x3INS_6MatrixIfLi3ELi3ELi0ELi3ELi3EEELi1ELi1EEENT_6ScalarERKS4_)
                  0001f3d8    00000054     ExtendedKalman.obj (.text:_ZN5Eigen8internal12cofactor_3x3INS_6MatrixIfLi3ELi3ELi0ELi3ELi3EEELi1ELi2EEENT_6ScalarERKS4_)
                  0001f42c    00000054     ExtendedKalman.obj (.text:_ZN5Eigen8internal12cofactor_3x3INS_6MatrixIfLi3ELi3ELi0ELi3ELi3EEELi2ELi0EEENT_6ScalarERKS4_)
                  0001f480    00000054     ExtendedKalman.obj (.text:_ZN5Eigen8internal12cofactor_3x3INS_6MatrixIfLi3ELi3ELi0ELi3ELi3EEELi2ELi1EEENT_6ScalarERKS4_)
                  0001f4d4    00000054     ExtendedKalman.obj (.text:_ZN5Eigen8internal12cofactor_3x3INS_6MatrixIfLi3ELi3ELi0ELi3ELi3EEELi2ELi2EEENT_6ScalarERKS4_)
                  0001f528    00000054     ExtendedKalman.obj (.text:_ZN5Eigen8internal18product_coeff_implILi0ELi1ENS_6MatrixIfLi3ELi7ELi0ELi3ELi7EEENS2_IfLi7ELi7ELi0ELi7ELi7EEEfE3runEiiRKS3_RKS4_Rf)
                  0001f57c    00000054     ExtendedKalman.obj (.text:_ZN5Eigen8internal18product_coeff_implILi0ELi1ENS_6MatrixIfLi3ELi7ELi0ELi3ELi7EEENS_9TransposeIS3_EEfE3runEiiRKS3_RKS5_Rf)
                  0001f5d0    00000054     ExtendedKalman.obj (.text:_ZN5Eigen8internal18product_coeff_implILi0ELi1ENS_6MatrixIfLi7ELi3ELi0ELi7ELi3EEENS2_IfLi3ELi1ELi0ELi3ELi1EEEfE3runEiiRKS3_RKS4_Rf)
                  0001f624    00000054     ExtendedKalman.obj (.text:_ZN5Eigen8internal18product_coeff_implILi0ELi1ENS_6MatrixIfLi7ELi3ELi0ELi7ELi3EEENS2_IfLi3ELi7ELi0ELi3ELi7EEEfE3runEiiRKS3_RKS4_Rf)
                  0001f678    00000054     ExtendedKalman.obj (.text:_ZN5Eigen8internal18product_coeff_implILi0ELi1ENS_6MatrixIfLi7ELi3ELi1ELi7ELi3EEENS2_IfLi3ELi3ELi0ELi3ELi3EEEfE3runEiiRKS3_RKS4_Rf)
                  0001f6cc    00000054     ExtendedKalman.obj (.text:_ZN5Eigen8internal18product_coeff_implILi0ELi1ENS_6MatrixIfLi7ELi7ELi0ELi7ELi7EEENS_9TransposeINS2_IfLi3ELi7ELi0ELi3ELi7EEEEEfE3runEiiRKS3_RKS6_Rf)
                  0001f720    00000054     ExtendedKalman.obj (.text:_ZN5Eigen8internal18product_coeff_implILi0ELi1ENS_6MatrixIfLi7ELi7ELi0ELi7ELi7EEENS_9TransposeIS3_EEfE3runEiiRKS3_RKS5_Rf)
                  0001f774    00000054     ExtendedKalman.obj (.text:_ZN5Eigen8internal18product_coeff_implILi0ELi1ENS_6MatrixIfLi7ELi7ELi0ELi7ELi7EEES3_fE3runEiiRKS3_S6_Rf)
                  0001f7c8    00000054     ExtendedKalman.obj (.text:_ZN5Eigen8internal18product_coeff_implILi0ELi2ENS_6MatrixIfLi3ELi7ELi0ELi3ELi7EEENS2_IfLi7ELi7ELi0ELi7ELi7EEEfE3runEiiRKS3_RKS4_Rf)
                  0001f81c    00000054     ExtendedKalman.obj (.text:_ZN5Eigen8internal18product_coeff_implILi0ELi2ENS_6MatrixIfLi3ELi7ELi0ELi3ELi7EEENS_9TransposeIS3_EEfE3runEiiRKS3_RKS5_Rf)
                  0001f870    00000054     ExtendedKalman.obj (.text:_ZN5Eigen8internal18product_coeff_implILi0ELi2ENS_6MatrixIfLi7ELi3ELi0ELi7ELi3EEENS2_IfLi3ELi1ELi0ELi3ELi1EEEfE3runEiiRKS3_RKS4_Rf)
                  0001f8c4    00000054     ExtendedKalman.obj (.text:_ZN5Eigen8internal18product_coeff_implILi0ELi2ENS_6MatrixIfLi7ELi3ELi0ELi7ELi3EEENS2_IfLi3ELi7ELi0ELi3ELi7EEEfE3runEiiRKS3_RKS4_Rf)
                  0001f918    00000054     ExtendedKalman.obj (.text:_ZN5Eigen8internal18product_coeff_implILi0ELi2ENS_6MatrixIfLi7ELi3ELi1ELi7ELi3EEENS2_IfLi3ELi3ELi0ELi3ELi3EEEfE3runEiiRKS3_RKS4_Rf)
                  0001f96c    00000054     ExtendedKalman.obj (.text:_ZN5Eigen8internal18product_coeff_implILi0ELi2ENS_6MatrixIfLi7ELi7ELi0ELi7ELi7EEENS_9TransposeINS2_IfLi3ELi7ELi0ELi3ELi7EEEEEfE3runEiiRKS3_RKS6_Rf)
                  0001f9c0    00000054     ExtendedKalman.obj (.text:_ZN5Eigen8internal18product_coeff_implILi0ELi2ENS_6MatrixIfLi7ELi7ELi0ELi7ELi7EEENS_9TransposeIS3_EEfE3runEiiRKS3_RKS5_Rf)
                  0001fa14    00000054     ExtendedKalman.obj (.text:_ZN5Eigen8internal18product_coeff_implILi0ELi2ENS_6MatrixIfLi7ELi7ELi0ELi7ELi7EEES3_fE3runEiiRKS3_S6_Rf)
                  0001fa68    00000054     ExtendedKalman.obj (.text:_ZN5Eigen8internal18product_coeff_implILi0ELi3ENS_6MatrixIfLi3ELi7ELi0ELi3ELi7EEENS2_IfLi7ELi7ELi0ELi7ELi7EEEfE3runEiiRKS3_RKS4_Rf)
                  0001fabc    00000054     ExtendedKalman.obj (.text:_ZN5Eigen8internal18product_coeff_implILi0ELi3ENS_6MatrixIfLi3ELi7ELi0ELi3ELi7EEENS_9TransposeIS3_EEfE3runEiiRKS3_RKS5_Rf)
                  0001fb10    00000054     ExtendedKalman.obj (.text:_ZN5Eigen8internal18product_coeff_implILi0ELi3ENS_6MatrixIfLi7ELi7ELi0ELi7ELi7EEENS_9TransposeINS2_IfLi3ELi7ELi0ELi3ELi7EEEEEfE3runEiiRKS3_RKS6_Rf)
                  0001fb64    00000054     ExtendedKalman.obj (.text:_ZN5Eigen8internal18product_coeff_implILi0ELi3ENS_6MatrixIfLi7ELi7ELi0ELi7ELi7EEENS_9TransposeIS3_EEfE3runEiiRKS3_RKS5_Rf)
                  0001fbb8    00000054     ExtendedKalman.obj (.text:_ZN5Eigen8internal18product_coeff_implILi0ELi3ENS_6MatrixIfLi7ELi7ELi0ELi7ELi7EEES3_fE3runEiiRKS3_S6_Rf)
                  0001fc0c    00000054     ExtendedKalman.obj (.text:_ZN5Eigen8internal18product_coeff_implILi0ELi4ENS_6MatrixIfLi3ELi7ELi0ELi3ELi7EEENS2_IfLi7ELi7ELi0ELi7ELi7EEEfE3runEiiRKS3_RKS4_Rf)
                  0001fc60    00000054     ExtendedKalman.obj (.text:_ZN5Eigen8internal18product_coeff_implILi0ELi4ENS_6MatrixIfLi3ELi7ELi0ELi3ELi7EEENS_9TransposeIS3_EEfE3runEiiRKS3_RKS5_Rf)
                  0001fcb4    00000054     ExtendedKalman.obj (.text:_ZN5Eigen8internal18product_coeff_implILi0ELi4ENS_6MatrixIfLi7ELi7ELi0ELi7ELi7EEENS_9TransposeINS2_IfLi3ELi7ELi0ELi3ELi7EEEEEfE3runEiiRKS3_RKS6_Rf)
                  0001fd08    00000054     ExtendedKalman.obj (.text:_ZN5Eigen8internal18product_coeff_implILi0ELi4ENS_6MatrixIfLi7ELi7ELi0ELi7ELi7EEENS_9TransposeIS3_EEfE3runEiiRKS3_RKS5_Rf)
                  0001fd5c    00000054     ExtendedKalman.obj (.text:_ZN5Eigen8internal18product_coeff_implILi0ELi4ENS_6MatrixIfLi7ELi7ELi0ELi7ELi7EEES3_fE3runEiiRKS3_S6_Rf)
                  0001fdb0    00000054     ExtendedKalman.obj (.text:_ZN5Eigen8internal18product_coeff_implILi0ELi5ENS_6MatrixIfLi3ELi7ELi0ELi3ELi7EEENS2_IfLi7ELi7ELi0ELi7ELi7EEEfE3runEiiRKS3_RKS4_Rf)
                  0001fe04    00000054     ExtendedKalman.obj (.text:_ZN5Eigen8internal18product_coeff_implILi0ELi5ENS_6MatrixIfLi3ELi7ELi0ELi3ELi7EEENS_9TransposeIS3_EEfE3runEiiRKS3_RKS5_Rf)
                  0001fe58    00000054     ExtendedKalman.obj (.text:_ZN5Eigen8internal18product_coeff_implILi0ELi5ENS_6MatrixIfLi7ELi7ELi0ELi7ELi7EEENS_9TransposeINS2_IfLi3ELi7ELi0ELi3ELi7EEEEEfE3runEiiRKS3_RKS6_Rf)
                  0001feac    00000054     ExtendedKalman.obj (.text:_ZN5Eigen8internal18product_coeff_implILi0ELi5ENS_6MatrixIfLi7ELi7ELi0ELi7ELi7EEENS_9TransposeIS3_EEfE3runEiiRKS3_RKS5_Rf)
                  0001ff00    00000054     ExtendedKalman.obj (.text:_ZN5Eigen8internal18product_coeff_implILi0ELi5ENS_6MatrixIfLi7ELi7ELi0ELi7ELi7EEES3_fE3runEiiRKS3_S6_Rf)
                  0001ff54    00000054     ExtendedKalman.obj (.text:_ZN5Eigen8internal18product_coeff_implILi0ELi6ENS_6MatrixIfLi3ELi7ELi0ELi3ELi7EEENS2_IfLi7ELi7ELi0ELi7ELi7EEEfE3runEiiRKS3_RKS4_Rf)
                  0001ffa8    00000054     ExtendedKalman.obj (.text:_ZN5Eigen8internal18product_coeff_implILi0ELi6ENS_6MatrixIfLi3ELi7ELi0ELi3ELi7EEENS_9TransposeIS3_EEfE3runEiiRKS3_RKS5_Rf)
                  0001fffc    00000054     ExtendedKalman.obj (.text:_ZN5Eigen8internal18product_coeff_implILi0ELi6ENS_6MatrixIfLi7ELi7ELi0ELi7ELi7EEENS_9TransposeINS2_IfLi3ELi7ELi0ELi3ELi7EEEEEfE3runEiiRKS3_RKS6_Rf)
                  00020050    00000054     ExtendedKalman.obj (.text:_ZN5Eigen8internal18product_coeff_implILi0ELi6ENS_6MatrixIfLi7ELi7ELi0ELi7ELi7EEENS_9TransposeIS3_EEfE3runEiiRKS3_RKS5_Rf)
                  000200a4    00000054     ExtendedKalman.obj (.text:_ZN5Eigen8internal18product_coeff_implILi0ELi6ENS_6MatrixIfLi7ELi7ELi0ELi7ELi7EEES3_fE3runEiiRKS3_S6_Rf)
                  000200f8    00000054     EigenTest.obj (.text:_ZN5Eigen8internal33significant_decimals_default_implIdLb0EE3runEv)
                  0002014c    00000054     rtsv7M4_T_le_v4SPD16_eabi.lib : wiostrea.obj (.text:_ZNKSt7codecvtIwciE10do_unshiftERiPcS2_RS2_)
                  000201a0    00000054                                   : wlocale.obj (.text:_ZNKSt7num_putIwSt19ostreambuf_iteratorIwSt11char_traitsIwEEE5_FfmtEPccNSt5_IosbIiE9_FmtflagsE)
                  000201f4    00000054                                   : wlocale.obj (.text:_ZNKSt7num_putIwSt19ostreambuf_iteratorIwSt11char_traitsIwEEE5_PutcES3_PKcj)
                  00020248    00000054     PID.obj (.text:_ZNSo12_Sentry_baseD1Ev)
                  0002029c    00000054     rtsv7M4_T_le_v4SPD16_eabi.lib : xfdunsca.obj (.text)
                  000202f0    00000052     PID.obj (.text:_ZNSs5_TidyEbj)
                  00020342    00000002     rtsv7M4_T_le_v4SPD16_eabi.lib : xlocale.obj (.text:_ZNSt8time_putIcSt19ostreambuf_iteratorIcSt11char_traitsIcEEED1Ev)
                  00020344    00000050                                   : iostream.obj (.text:_ZNSt13basic_filebufIcSt11char_traitsIcEED1Ev)
                  00020394    00000050     EigenTest.obj (.text:_ZNSt9basic_iosIcSt11char_traitsIcEE4initEPSt15basic_streambufIcS1_Eb)
                  000203e4    00000050     rtsv7M4_T_le_v4SPD16_eabi.lib : _tvaltostr.obj (.text)
                  00020434    0000004e     RXInterface.obj (.text:_ZN16RXInterfaceClass9constrainEPff)
                  00020482    0000004e     PID.obj (.text:_ZN8PIDClass10constrain_EPff)
                  000204d0    0000004e     PID.obj (.text:_ZNSs6assignEPKcj)
                  0002051e    00000002     rtsv7M4_T_le_v4SPD16_eabi.lib : wlocale.obj (.text:_ZNSt8time_putIwSt19ostreambuf_iteratorIwSt11char_traitsIwEEED1Ev)
                  00020520    0000004c                                   : string.obj (.text:_ZNSt12out_of_rangeC1ERKSs)
                  0002056c    0000004c     EigenTest.obj (.text:_ZNSt15basic_streambufIcSt11char_traitsIcEE5_InitEv)
                  000205b8    0000004c     EigenTest.obj (.text:_ZNSt15basic_stringbufIcSt11char_traitsIcESaIcEE9_GetstateENSt5_IosbIiE9_OpenmodeE)
                  00020604    0000004c     PID.obj (.text:_ZSt10_MaklocstrIcEPT_PKcS1_RKSt7_Cvtvec)
                  00020650    0000004c     rtsv7M4_T_le_v4SPD16_eabi.lib : atoi.obj (.text)
                  0002069c    0000004a     PID.obj (.text:_ZNKSt7num_putIcSt19ostreambuf_iteratorIcSt11char_traitsIcEEE3putES3_RSt8ios_basecd)
                  000206e6    0000004a     PID.obj (.text:_ZNKSt7num_putIcSt19ostreambuf_iteratorIcSt11char_traitsIcEEE4_PutES3_PKcj)
                  00020730    0000004a     rtsv7M4_T_le_v4SPD16_eabi.lib : fd_tos_t2.obj (.text)
                  0002077a    00000048     SPISlave.obj (.text:_ZN15RingBufferClassIhE13returnToQueueEh)
                  000207c2    00000048     SPISlave.obj (.text:_ZN15RingBufferClassIhE4pushEh)
                  0002080a    00000048     ExtendedKalman.obj (.text:_ZN5Eigen15PlainObjectBaseINS_6MatrixIfLi3ELi1ELi0ELi3ELi1EEEE10resizeLikeINS_13CwiseBinaryOpINS_8internal20scalar_difference_opIfEEKS2_S9_EEEEvRKNS_9EigenBaseIT_EE)
                  00020852    00000048     ExtendedKalman.obj (.text:_ZN5Eigen15PlainObjectBaseINS_6MatrixIfLi3ELi1ELi0ELi3ELi1EEEE10resizeLikeINS_14CwiseNullaryOpINS_8internal18scalar_constant_opIfEES2_EEEEvRKNS_9EigenBaseIT_EE)
                  0002089a    00000048     ExtendedKalman.obj (.text:_ZN5Eigen15PlainObjectBaseINS_6MatrixIfLi7ELi1ELi0ELi7ELi1EEEE10resizeLikeINS_13CwiseBinaryOpINS_8internal13scalar_sum_opIfEEKS2_KNS_17CoeffBasedProductIRKNS1_IfLi7ELi3ELi0ELi7ELi3EEERKNS1_IfLi3ELi1ELi0ELi3ELi1EEELi6EEEEEEEvRKNS_9EigenBaseIT_EE)
                  000208e2    00000048     ExtendedKalman.obj (.text:_ZN5Eigen15PlainObjectBaseINS_6MatrixIfLi7ELi1ELi0ELi7ELi1EEEE10resizeLikeINS_14CwiseNullaryOpINS_8internal18scalar_constant_opIfEES2_EEEEvRKNS_9EigenBaseIT_EE)
                  0002092a    00000048     ExtendedKalman.obj (.text:_ZN5Eigen15PlainObjectBaseINS_6MatrixIfLi7ELi1ELi0ELi7ELi1EEEE10resizeLikeINS_17CoeffBasedProductIRKNS1_IfLi7ELi3ELi0ELi7ELi3EEERKNS1_IfLi3ELi1ELi0ELi3ELi1EEELi6EEEEEvRKNS_9EigenBaseIT_EE)
                  00020972    00000002     rtsv7M4_T_le_v4SPD16_eabi.lib : locale.obj (.text:_ZNSt9bad_allocD1Ev)
                  00020974    00000048                                   : boot.obj (.text)
                  000209bc    00000048                                   : fd_toi_t2.obj (.text)
                  00020a04    00000046     ExtendedKalman.obj (.text:_ZN5Eigen9DenseBaseINS_6MatrixIfLi7ELi7ELi0ELi7ELi7EEEEmLERKf)
                  00020a4a    00000046     ExtendedKalman.obj (.text:_ZNK5Eigen17CwiseBinaryOpImplINS_8internal13scalar_sum_opIfEEKNS_17CoeffBasedProductIRKNS_6MatrixIfLi3ELi7ELi0ELi3ELi7EEEKNS_9TransposeIS6_EELi6EEEKNS5_IfLi3ELi3ELi0ELi3ELi3EEENS_5DenseEE5coeffEii)
                  00020a90    00000046     ExtendedKalman.obj (.text:_ZNK5Eigen17CwiseBinaryOpImplINS_8internal13scalar_sum_opIfEEKNS_17CoeffBasedProductIRKNS_6MatrixIfLi7ELi7ELi0ELi7ELi7EEEKNS_9TransposeIS6_EELi6EEES7_NS_5DenseEE5coeffEii)
                  00020ad6    00000046     ExtendedKalman.obj (.text:_ZNK5Eigen17CwiseBinaryOpImplINS_8internal17scalar_product_opIffEEKNS_6MatrixIfLi3ELi1ELi0ELi3ELi1EEEKNS_5BlockIKNS4_IfLi3ELi3ELi0ELi3ELi3EEELi3ELi1ELb1EEENS_5DenseEE5coeffEii)
                  00020b1c    00000046     rtsv7M4_T_le_v4SPD16_eabi.lib : wiostrea.obj (.text:_ZNKSt7codecvtIwciE9do_lengthERKiPKcS4_j)
                  00020b62    00000044     SPISlave.obj (.text:_ZN15RingBufferClassIhE3popEPh)
                  00020ba6    00000002     rtsv7M4_T_le_v4SPD16_eabi.lib : ios.obj (.text:_ZNSt9exceptionD1Ev)
                  00020ba8    00000044     EigenTest.obj (.text:_ZNSdD2Ev)
                  00020bec    00000044     PID.obj (.text:_ZNSs9_ChassignEjjc)
                  00020c30    00000044     rtsv7M4_T_le_v4SPD16_eabi.lib : string.obj (.text:_ZNSt11logic_errorC2ERKSs)
                  00020c74    00000044                                   : cpy_tbl.obj (.text)
                  00020cb8    00000044                                   : exit.obj (.text)
                  00020cfc    00000044                                   : xdtest.obj (.text)
                  00020d40    00000042     ExtendedKalman.obj (.text:_ZN5Eigen17SelfCwiseBinaryOpINS_8internal17scalar_product_opIffEENS_6MatrixIfLi7ELi7ELi0ELi7ELi7EEENS_14CwiseNullaryOpINS1_18scalar_constant_opIfEES5_EEE9copyCoeffIS9_EEviRKNS_9DenseBaseIT_EE)
                  00020d82    00000042     ExtendedKalman.obj (.text:_ZN5Eigen6MatrixIfLi3ELi3ELi1ELi3ELi3EEC1INS_17CoeffBasedProductIRKNS0_IfLi3ELi7ELi0ELi3ELi7EEEKNS_9TransposeIS4_EELi6EEEEERKNS_10MatrixBaseIT_EE)
                  00020dc4    00000042     ExtendedKalman.obj (.text:_ZN5Eigen6MatrixIfLi7ELi1ELi0ELi7ELi1EEC1INS_17CoeffBasedProductIRKNS0_IfLi7ELi3ELi0ELi7ELi3EEERKNS0_IfLi3ELi1ELi0ELi3ELi1EEELi6EEEEERKNS_10MatrixBaseIT_EE)
                  00020e06    00000042     ExtendedKalman.obj (.text:_ZN5Eigen6MatrixIfLi7ELi3ELi0ELi7ELi3EEC1INS_17CoeffBasedProductIRKNS0_IfLi7ELi3ELi1ELi7ELi3EEENS0_IfLi3ELi3ELi0ELi3ELi3EEELi6EEEEERKNS_10MatrixBaseIT_EE)
                  00020e48    00000042     ExtendedKalman.obj (.text:_ZN5Eigen6MatrixIfLi7ELi7ELi0ELi7ELi7EEC1INS_13CwiseBinaryOpINS_8internal20scalar_difference_opIfEEKS1_KNS_17CoeffBasedProductIRKNS0_IfLi7ELi3ELi0ELi7ELi3EEERKNS0_IfLi3ELi7ELi0ELi3ELi7EEELi6EEEEEEERKNS_10MatrixBaseIT_EE)
                  00020e8a    00000042     EigenTest.obj (.text:_ZN5Eigen6MatrixIfLi7ELi7ELi0ELi7ELi7EEC1INS_14CwiseNullaryOpINS_8internal18scalar_constant_opIfEES1_EEEERKNS_10MatrixBaseIT_EE)
                  00020ecc    00000042     ExtendedKalman.obj (.text:_ZN5Eigen6MatrixIfLi7ELi7ELi0ELi7ELi7EEC1INS_17CoeffBasedProductIRKNS0_IfLi7ELi3ELi0ELi7ELi3EEERKNS0_IfLi3ELi7ELi0ELi3ELi7EEELi6EEEEERKNS_10MatrixBaseIT_EE)
                  00020f0e    00000042     ExtendedKalman.obj (.text:_ZN5Eigen6MatrixIfLi7ELi7ELi0ELi7ELi7EEC1INS_17CoeffBasedProductIS1_RKS1_Li6EEEEERKNS_10MatrixBaseIT_EE)
                  00020f50    00000042     ExtendedKalman.obj (.text:_ZN5Eigen6MatrixIfLi7ELi7ELi1ELi7ELi7EEC1INS_17CoeffBasedProductIRKNS0_IfLi7ELi7ELi0ELi7ELi7EEEKNS_9TransposeIS4_EELi6EEEEERKNS_10MatrixBaseIT_EE)
                  00020f92    00000042     rtsv7M4_T_le_v4SPD16_eabi.lib : wiostrea.obj (.text:_ZNKSt5ctypeIwE10do_toupperEPwPKw)
                  00020fd4    00000042     PID.obj (.text:_ZNKSt7num_putIcSt19ostreambuf_iteratorIcSt11char_traitsIcEEE4_RepES3_cj)
                  00021016    00000042     rtsv7M4_T_le_v4SPD16_eabi.lib : xlocale.obj (.text:_ZNKSt8time_getIcSt19istreambuf_iteratorIcSt11char_traitsIcEEE14do_get_weekdayES3_S3_RSt8ios_baseRNSt5_IosbIiE8_IostateEPSt2tm)
                  00021058    00000042                                   : xlocale.obj (.text:_ZNKSt8time_getIcSt19istreambuf_iteratorIcSt11char_traitsIcEEE16do_get_monthnameES3_S3_RSt8ios_baseRNSt5_IosbIiE8_IostateEPSt2tm)
                  0002109a    00000042                                   : wlocale.obj (.text:_ZNKSt8time_getIwSt19istreambuf_iteratorIwSt11char_traitsIwEEE14do_get_weekdayES3_S3_RSt8ios_baseRNSt5_IosbIiE8_IostateEPSt2tm)
                  000210dc    00000042                                   : wlocale.obj (.text:_ZNKSt8time_getIwSt19istreambuf_iteratorIwSt11char_traitsIwEEE16do_get_monthnameES3_S3_RSt8ios_baseRNSt5_IosbIiE8_IostateEPSt2tm)
                  0002111e    00000002                                   : xlocale.obj (.text:_ZNSt9money_getIcSt19istreambuf_iteratorIcSt11char_traitsIcEEED1Ev)
                  00021120    00000040     driverlib.lib : sysctl.obj (.text:SysCtlPeripheralEnable)
                  00021160    00000040     ExtendedKalman.obj (.text:_ZN5Eigen8internal18product_coeff_implILi0ELi0ENS_6MatrixIfLi3ELi7ELi0ELi3ELi7EEENS2_IfLi7ELi7ELi0ELi7ELi7EEEfE3runEiiRKS3_RKS4_Rf)
                  000211a0    00000040     ExtendedKalman.obj (.text:_ZN5Eigen8internal18product_coeff_implILi0ELi0ENS_6MatrixIfLi3ELi7ELi0ELi3ELi7EEENS_9TransposeIS3_EEfE3runEiiRKS3_RKS5_Rf)
                  000211e0    00000040     ExtendedKalman.obj (.text:_ZN5Eigen8internal18product_coeff_implILi0ELi0ENS_6MatrixIfLi7ELi3ELi0ELi7ELi3EEENS2_IfLi3ELi1ELi0ELi3ELi1EEEfE3runEiiRKS3_RKS4_Rf)
                  00021220    00000040     ExtendedKalman.obj (.text:_ZN5Eigen8internal18product_coeff_implILi0ELi0ENS_6MatrixIfLi7ELi3ELi0ELi7ELi3EEENS2_IfLi3ELi7ELi0ELi3ELi7EEEfE3runEiiRKS3_RKS4_Rf)
                  00021260    00000040     ExtendedKalman.obj (.text:_ZN5Eigen8internal18product_coeff_implILi0ELi0ENS_6MatrixIfLi7ELi3ELi1ELi7ELi3EEENS2_IfLi3ELi3ELi0ELi3ELi3EEEfE3runEiiRKS3_RKS4_Rf)
                  000212a0    00000040     ExtendedKalman.obj (.text:_ZN5Eigen8internal18product_coeff_implILi0ELi0ENS_6MatrixIfLi7ELi7ELi0ELi7ELi7EEENS_9TransposeINS2_IfLi3ELi7ELi0ELi3ELi7EEEEEfE3runEiiRKS3_RKS6_Rf)
                  000212e0    00000040     ExtendedKalman.obj (.text:_ZN5Eigen8internal18product_coeff_implILi0ELi0ENS_6MatrixIfLi7ELi7ELi0ELi7ELi7EEENS_9TransposeIS3_EEfE3runEiiRKS3_RKS5_Rf)
                  00021320    00000040     ExtendedKalman.obj (.text:_ZN5Eigen8internal18product_coeff_implILi0ELi0ENS_6MatrixIfLi7ELi7ELi0ELi7ELi7EEES3_fE3runEiiRKS3_S6_Rf)
                  00021360    00000040     EigenTest.obj (.text:_ZN5Eigen8internal28check_rows_cols_for_overflowILin1EE3runIiEEvT_S4_)
                  000213a0    00000040     ExtendedKalman.obj (.text:_ZNK5Eigen17CwiseBinaryOpImplINS_8internal13scalar_sum_opIfEEKNS_6MatrixIfLi7ELi1ELi0ELi7ELi1EEEKNS_17CoeffBasedProductIRKNS4_IfLi7ELi3ELi0ELi7ELi3EEERKNS4_IfLi3ELi1ELi0ELi3ELi1EEELi6EEENS_5DenseEE5coeffEi)
                  000213e0    00000040     ExtendedKalman.obj (.text:_ZNK5Eigen17CwiseBinaryOpImplINS_8internal20scalar_difference_opIfEEKNS_6MatrixIfLi3ELi1ELi0ELi3ELi1EEES6_NS_5DenseEE5coeffEi)
                  00021420    00000040     ExtendedKalman.obj (.text:_ZNK5Eigen17CwiseBinaryOpImplINS_8internal20scalar_difference_opIfEEKNS_6MatrixIfLi7ELi7ELi0ELi7ELi7EEEKNS_17CoeffBasedProductIRKNS4_IfLi7ELi3ELi0ELi7ELi3EEERKNS4_IfLi3ELi7ELi0ELi3ELi7EEELi6EEENS_5DenseEE5coeffEi)
                  00021460    00000040     EigenTest.obj (.text:_ZNSt18basic_stringstreamIcSt11char_traitsIcESaIcEED2Ev)
                  000214a0    00000040     rtsv7M4_T_le_v4SPD16_eabi.lib : signal.obj (.text)
                  000214e0    0000003e     ExtendedKalman.obj (.text:_ZN5Eigen15DenseCoeffsBaseINS_6MatrixIfLi3ELi3ELi0ELi3ELi3EEELi1EE9copyCoeffINS_13CwiseBinaryOpINS_8internal13scalar_sum_opIfEEKNS_17CoeffBasedProductIRKNS1_IfLi3ELi7ELi0ELi3ELi7EEEKNS_9TransposeISA_EELi6EEEKS2_EEEEviiRKNS_9DenseBaseIT_EE)
                  0002151e    0000003e     ExtendedKalman.obj (.text:_ZN5Eigen15DenseCoeffsBaseINS_6MatrixIfLi3ELi3ELi1ELi3ELi3EEELi1EE9copyCoeffINS_17CoeffBasedProductIRKNS1_IfLi3ELi7ELi0ELi3ELi7EEEKNS_9TransposeIS6_EELi6EEEEEviiRKNS_9DenseBaseIT_EE)
                  0002155c    0000003e     ExtendedKalman.obj (.text:_ZN5Eigen15DenseCoeffsBaseINS_6MatrixIfLi3ELi7ELi0ELi3ELi7EEELi1EE9copyCoeffINS_17CoeffBasedProductIRKS2_RKNS1_IfLi7ELi7ELi0ELi7ELi7EEELi6EEEEEviiRKNS_9DenseBaseIT_EE)
                  0002159a    0000003e     ExtendedKalman.obj (.text:_ZN5Eigen15DenseCoeffsBaseINS_6MatrixIfLi7ELi1ELi0ELi7ELi1EEELi1EE9copyCoeffINS_17CoeffBasedProductIRKNS1_IfLi7ELi3ELi0ELi7ELi3EEERKNS1_IfLi3ELi1ELi0ELi3ELi1EEELi6EEEEEviiRKNS_9DenseBaseIT_EE)
                  000215d8    0000003e     ExtendedKalman.obj (.text:_ZN5Eigen15DenseCoeffsBaseINS_6MatrixIfLi7ELi3ELi0ELi7ELi3EEELi1EE9copyCoeffINS_17CoeffBasedProductIRKNS1_IfLi7ELi3ELi1ELi7ELi3EEENS1_IfLi3ELi3ELi0ELi3ELi3EEELi6EEEEEviiRKNS_9DenseBaseIT_EE)
                  00021616    0000003e     ExtendedKalman.obj (.text:_ZN5Eigen15DenseCoeffsBaseINS_6MatrixIfLi7ELi3ELi1ELi7ELi3EEELi1EE9copyCoeffINS_17CoeffBasedProductIRKNS1_IfLi7ELi7ELi0ELi7ELi7EEEKNS_9TransposeINS1_IfLi3ELi7ELi0ELi3ELi7EEEEELi6EEEEEviiRKNS_9DenseBaseIT_EE)
                  00021654    0000003e     ExtendedKalman.obj (.text:_ZN5Eigen15DenseCoeffsBaseINS_6MatrixIfLi7ELi7ELi0ELi7ELi7EEELi1EE9copyCoeffINS_13CwiseBinaryOpINS_8internal13scalar_sum_opIfEEKNS_17CoeffBasedProductIRKS2_KNS_9TransposeIS2_EELi6EEESA_EEEEviiRKNS_9DenseBaseIT_EE)
                  00021692    0000003e     ExtendedKalman.obj (.text:_ZN5Eigen15DenseCoeffsBaseINS_6MatrixIfLi7ELi7ELi0ELi7ELi7EEELi1EE9copyCoeffINS_14CwiseNullaryOpINS_8internal18scalar_identity_opIfEES2_EEEEviiRKNS_9DenseBaseIT_EE)
                  000216d0    0000003e     ExtendedKalman.obj (.text:_ZN5Eigen15DenseCoeffsBaseINS_6MatrixIfLi7ELi7ELi0ELi7ELi7EEELi1EE9copyCoeffINS_17CoeffBasedProductIRKNS1_IfLi7ELi3ELi0ELi7ELi3EEERKNS1_IfLi3ELi7ELi0ELi3ELi7EEELi6EEEEEviiRKNS_9DenseBaseIT_EE)
                  0002170e    0000003e     ExtendedKalman.obj (.text:_ZN5Eigen15DenseCoeffsBaseINS_6MatrixIfLi7ELi7ELi0ELi7ELi7EEELi1EE9copyCoeffINS_17CoeffBasedProductIRKS2_S7_Li6EEEEEviiRKNS_9DenseBaseIT_EE)
                  0002174c    0000003e     ExtendedKalman.obj (.text:_ZN5Eigen15DenseCoeffsBaseINS_6MatrixIfLi7ELi7ELi0ELi7ELi7EEELi1EE9copyCoeffINS_17CoeffBasedProductIS2_RKS2_Li6EEEEEviiRKNS_9DenseBaseIT_EE)
                  0002178a    0000003e     ExtendedKalman.obj (.text:_ZN5Eigen15DenseCoeffsBaseINS_6MatrixIfLi7ELi7ELi1ELi7ELi7EEELi1EE9copyCoeffINS_17CoeffBasedProductIRKNS1_IfLi7ELi7ELi0ELi7ELi7EEEKNS_9TransposeIS6_EELi6EEEEEviiRKNS_9DenseBaseIT_EE)
                  000217c8    0000003e     EigenTest.obj (.text:_ZN5Eigen8IOFormatD1Ev)
                  00021806    0000003e     rtsv7M4_T_le_v4SPD16_eabi.lib : iostream.obj (.text:_ZNSt13basic_filebufIcSt11char_traitsIcEE9underflowEv)
                  00021844    0000003e                                   : wiostrea.obj (.text:_ZNSt13basic_filebufIwSt11char_traitsIwEE9underflowEv)
                  00021882    0000003e     PID.obj (.text:_ZNSt15basic_streambufIcSt11char_traitsIcEE5sputcEc)
                  000218c0    0000003e     PID.obj (.text:_ZNSt19ostreambuf_iteratorIcSt11char_traitsIcEEaSEc)
                  000218fe    0000003c     ExtendedKalman.obj (.text:_ZN5Eigen8internal15BlockImpl_denseIKNS_6MatrixIfLi3ELi3ELi0ELi3ELi3EEELi3ELi1ELb1ELb1EEC1ERS4_i)
                  0002193a    0000003c     ExtendedKalman.obj (.text:_ZN5Eigen8internal15BlockImpl_denseINS_6MatrixIfLi3ELi3ELi0ELi3ELi3EEELi1ELi3ELb0ELb1EEC1ERS3_i)
                  00021976    0000003c     EigenTest.obj (.text:_ZN5Eigen8internal33significant_decimals_default_implIfLb0EE3runEv)
                  000219b2    0000003c     rtsv7M4_T_le_v4SPD16_eabi.lib : wiostrea.obj (.text:_ZNKSt5ctypeIwE10do_tolowerEPwPKw)
                  000219ee    0000003c                                   : wiostrea.obj (.text:_ZNKSt5ctypeIwE8do_widenEPKcS2_Pw)
                  00021a2a    0000003c                                   : wiostrea.obj (.text:_ZNKSt5ctypeIwE9do_narrowEPKwS2_cPc)
                  00021a66    0000003c     PrintfTest.obj (.text:_ZNKSt7num_putIcSt19ostreambuf_iteratorIcSt11char_traitsIcEEE3putES3_RSt8ios_basecm)
                  00021aa2    00000002     rtsv7M4_T_le_v4SPD16_eabi.lib : wlocale.obj (.text:_ZNSt9money_getIwSt19istreambuf_iteratorIwSt11char_traitsIwEEED1Ev)
                  00021aa4    0000003c     EigenTest.obj (.text:_ZNSt15basic_stringbufIcSt11char_traitsIcESaIcEEC1ENSt5_IosbIiE9_OpenmodeE)
                  00021ae0    0000003c     rtsv7M4_T_le_v4SPD16_eabi.lib : locale.obj (.text:_ZNSt19istreambuf_iteratorIcSt11char_traitsIcEEppEv)
                  00021b1c    0000003c                                   : wlocale.obj (.text:_ZNSt19istreambuf_iteratorIwSt11char_traitsIwEEppEv)
                  00021b58    0000003c     PID.obj (.text:_ZNSt6locale5facet7_DecrefEv)
                  00021b94    0000003c     rtsv7M4_T_le_v4SPD16_eabi.lib : xlocale.obj (.text:_ZNSt7_MpunctIcE7_MakpatERNSt10money_base7patternEjjj)
                  00021bd0    0000003c                                   : wlocale.obj (.text:_ZNSt7_MpunctIwE7_MakpatERNSt10money_base7patternEjjj)
                  00021c0c    0000003c     PID.obj (.text:_ZNSt7num_putIcSt19ostreambuf_iteratorIcSt11char_traitsIcEEEC1Ej)
                  00021c48    0000003c     PID.obj (.text:_ZNSt8numpunctIcEC1Ej)
                  00021c84    0000003a     ExtendedKalman.obj (.text:_ZN5Eigen15DenseCoeffsBaseINS_6MatrixIfLi3ELi3ELi0ELi3ELi3EEELi1EE21copyCoeffByOuterInnerINS_13CwiseBinaryOpINS_8internal13scalar_sum_opIfEEKNS_17CoeffBasedProductIRKNS1_IfLi3ELi7ELi0ELi3ELi7EEEKNS_9TransposeISA_EELi6EEEKS2_EEEEviiRKNS_9DenseBaseIT_EE)
                  00021cbe    0000003a     ExtendedKalman.obj (.text:_ZN5Eigen15DenseCoeffsBaseINS_6MatrixIfLi3ELi3ELi1ELi3ELi3EEELi1EE21copyCoeffByOuterInnerINS_17CoeffBasedProductIRKNS1_IfLi3ELi7ELi0ELi3ELi7EEEKNS_9TransposeIS6_EELi6EEEEEviiRKNS_9DenseBaseIT_EE)
                  00021cf8    0000003a     ExtendedKalman.obj (.text:_ZN5Eigen15DenseCoeffsBaseINS_6MatrixIfLi3ELi7ELi0ELi3ELi7EEELi1EE21copyCoeffByOuterInnerINS_17CoeffBasedProductIRKS2_RKNS1_IfLi7ELi7ELi0ELi7ELi7EEELi6EEEEEviiRKNS_9DenseBaseIT_EE)
                  00021d32    0000003a     ExtendedKalman.obj (.text:_ZN5Eigen15DenseCoeffsBaseINS_6MatrixIfLi7ELi1ELi0ELi7ELi1EEELi1EE21copyCoeffByOuterInnerINS_17CoeffBasedProductIRKNS1_IfLi7ELi3ELi0ELi7ELi3EEERKNS1_IfLi3ELi1ELi0ELi3ELi1EEELi6EEEEEviiRKNS_9DenseBaseIT_EE)
                  00021d6c    0000003a     ExtendedKalman.obj (.text:_ZN5Eigen15DenseCoeffsBaseINS_6MatrixIfLi7ELi3ELi0ELi7ELi3EEELi1EE21copyCoeffByOuterInnerINS_17CoeffBasedProductIRKNS1_IfLi7ELi3ELi1ELi7ELi3EEENS1_IfLi3ELi3ELi0ELi3ELi3EEELi6EEEEEviiRKNS_9DenseBaseIT_EE)
                  00021da6    0000003a     ExtendedKalman.obj (.text:_ZN5Eigen15DenseCoeffsBaseINS_6MatrixIfLi7ELi3ELi1ELi7ELi3EEELi1EE21copyCoeffByOuterInnerINS_17CoeffBasedProductIRKNS1_IfLi7ELi7ELi0ELi7ELi7EEEKNS_9TransposeINS1_IfLi3ELi7ELi0ELi3ELi7EEEEELi6EEEEEviiRKNS_9DenseBaseIT_EE)
                  00021de0    0000003a     ExtendedKalman.obj (.text:_ZN5Eigen15DenseCoeffsBaseINS_6MatrixIfLi7ELi7ELi0ELi7ELi7EEELi1EE21copyCoeffByOuterInnerINS_13CwiseBinaryOpINS_8internal13scalar_sum_opIfEEKNS_17CoeffBasedProductIRKS2_KNS_9TransposeIS2_EELi6EEESA_EEEEviiRKNS_9DenseBaseIT_EE)
                  00021e1a    0000003a     ExtendedKalman.obj (.text:_ZN5Eigen15DenseCoeffsBaseINS_6MatrixIfLi7ELi7ELi0ELi7ELi7EEELi1EE21copyCoeffByOuterInnerINS_14CwiseNullaryOpINS_8internal18scalar_identity_opIfEES2_EEEEviiRKNS_9DenseBaseIT_EE)
                  00021e54    0000003a     ExtendedKalman.obj (.text:_ZN5Eigen15DenseCoeffsBaseINS_6MatrixIfLi7ELi7ELi0ELi7ELi7EEELi1EE21copyCoeffByOuterInnerINS_17CoeffBasedProductIRKNS1_IfLi7ELi3ELi0ELi7ELi3EEERKNS1_IfLi3ELi7ELi0ELi3ELi7EEELi6EEEEEviiRKNS_9DenseBaseIT_EE)
                  00021e8e    0000003a     ExtendedKalman.obj (.text:_ZN5Eigen15DenseCoeffsBaseINS_6MatrixIfLi7ELi7ELi0ELi7ELi7EEELi1EE21copyCoeffByOuterInnerINS_17CoeffBasedProductIRKS2_S7_Li6EEEEEviiRKNS_9DenseBaseIT_EE)
                  00021ec8    0000003a     ExtendedKalman.obj (.text:_ZN5Eigen15DenseCoeffsBaseINS_6MatrixIfLi7ELi7ELi0ELi7ELi7EEELi1EE21copyCoeffByOuterInnerINS_17CoeffBasedProductIS2_RKS2_Li6EEEEEviiRKNS_9DenseBaseIT_EE)
                  00021f02    0000003a     ExtendedKalman.obj (.text:_ZN5Eigen15DenseCoeffsBaseINS_6MatrixIfLi7ELi7ELi1ELi7ELi7EEELi1EE21copyCoeffByOuterInnerINS_17CoeffBasedProductIRKNS1_IfLi7ELi7ELi0ELi7ELi7EEEKNS_9TransposeIS6_EELi6EEEEEviiRKNS_9DenseBaseIT_EE)
                  00021f3c    0000003a     ExtendedKalman.obj (.text:_ZN5Eigen7MapBaseINS_5BlockIKNS_6MatrixIfLi3ELi3ELi0ELi3ELi3EEELi3ELi1ELb1EEELi0EEC1EPKfii)
                  00021f76    0000003a     ExtendedKalman.obj (.text:_ZN5Eigen7MapBaseINS_5BlockINS_6MatrixIfLi3ELi3ELi0ELi3ELi3EEELi1ELi3ELb0EEELi0EEC1EPfii)
                  00021fb0    0000003a     ExtendedKalman.obj (.text:_ZN5Eigen8internal11assign_implINS_6MatrixIfLi3ELi3ELi1ELi3ELi3EEENS_17CoeffBasedProductIRKNS2_IfLi3ELi7ELi0ELi3ELi7EEEKNS_9TransposeIS5_EELi6EEELi0ELi1ELi0EE3runERS3_RKSB_)
                  00021fea    0000003a     ExtendedKalman.obj (.text:_ZN5Eigen8internal11assign_implINS_6MatrixIfLi3ELi7ELi0ELi3ELi7EEENS_17CoeffBasedProductIRKS3_RKNS2_IfLi7ELi7ELi0ELi7ELi7EEELi6EEELi0ELi1ELi0EE3runERS3_RKSA_)
                  00022024    0000003a     ExtendedKalman.obj (.text:_ZN5Eigen8internal11assign_implINS_6MatrixIfLi7ELi3ELi0ELi7ELi3EEENS_17CoeffBasedProductIRKNS2_IfLi7ELi3ELi1ELi7ELi3EEENS2_IfLi3ELi3ELi0ELi3ELi3EEELi6EEELi0ELi1ELi0EE3runERS3_RKS9_)
                  0002205e    0000003a     ExtendedKalman.obj (.text:_ZN5Eigen8internal11assign_implINS_6MatrixIfLi7ELi3ELi1ELi7ELi3EEENS_17CoeffBasedProductIRKNS2_IfLi7ELi7ELi0ELi7ELi7EEEKNS_9TransposeINS2_IfLi3ELi7ELi0ELi3ELi7EEEEELi6EEELi0ELi1ELi0EE3runERS3_RKSC_)
                  00022098    0000003a     ExtendedKalman.obj (.text:_ZN5Eigen8internal11assign_implINS_6MatrixIfLi7ELi7ELi0ELi7ELi7EEENS_13CwiseBinaryOpINS0_13scalar_sum_opIfEEKNS_17CoeffBasedProductIRKS3_KNS_9TransposeIS3_EELi6EEES8_EELi0ELi1ELi0EE3runERS3_RKSF_)
                  000220d2    0000003a     ExtendedKalman.obj (.text:_ZN5Eigen8internal11assign_implINS_6MatrixIfLi7ELi7ELi0ELi7ELi7EEENS_13CwiseBinaryOpINS0_20scalar_difference_opIfEEKS3_KNS_17CoeffBasedProductIRKNS2_IfLi7ELi3ELi0ELi7ELi3EEERKNS2_IfLi3ELi7ELi0ELi3ELi7EEELi6EEEEELi1ELi0ELi0EE3runERS3_RKSH_)
                  0002210c    0000003a     ExtendedKalman.obj (.text:_ZN5Eigen8internal11assign_implINS_6MatrixIfLi7ELi7ELi0ELi7ELi7EEENS_17CoeffBasedProductIRKNS2_IfLi7ELi3ELi0ELi7ELi3EEERKNS2_IfLi3ELi7ELi0ELi3ELi7EEELi6EEELi0ELi1ELi0EE3runERS3_RKSB_)
                  00022146    0000003a     rtsv7M4_T_le_v4SPD16_eabi.lib : locale.obj (.text:_ZNSt19istreambuf_iteratorIcSt11char_traitsIcEE5_PeekEv)
                  00022180    0000003a                                   : wlocale.obj (.text:_ZNSt19istreambuf_iteratorIwSt11char_traitsIwEE5_PeekEv)
                  000221ba    00000038     ExtendedKalman.obj (.text:_ZN5Eigen15DenseCoeffsBaseINS_5BlockINS_6MatrixIfLi3ELi3ELi0ELi3ELi3EEELi1ELi3ELb0EEELi1EE9copyCoeffINS_9TransposeIKNS_12CwiseUnaryOpINS_8internal18scalar_multiple_opIfEEKNS2_IfLi3ELi1ELi0ELi3ELi1EEEEEEEEEviRKNS_9DenseBaseIT_EE)
                  000221f2    00000038     ExtendedKalman.obj (.text:_ZN5Eigen15DenseCoeffsBaseINS_6MatrixIfLi3ELi1ELi0ELi3ELi1EEELi1EE9copyCoeffINS_13CwiseBinaryOpINS_8internal20scalar_difference_opIfEEKS2_S9_EEEEviRKNS_9DenseBaseIT_EE)
                  0002222a    00000038     ExtendedKalman.obj (.text:_ZN5Eigen15DenseCoeffsBaseINS_6MatrixIfLi3ELi1ELi0ELi3ELi1EEELi1EE9copyCoeffINS_14CwiseNullaryOpINS_8internal18scalar_constant_opIfEES2_EEEEviRKNS_9DenseBaseIT_EE)
                  00022262    00000038     ExtendedKalman.obj (.text:_ZN5Eigen15DenseCoeffsBaseINS_6MatrixIfLi3ELi3ELi0ELi3ELi3EEELi1EE9copyCoeffINS_14CwiseNullaryOpINS_8internal18scalar_constant_opIfEES2_EEEEviRKNS_9DenseBaseIT_EE)
                  0002229a    00000038     ExtendedKalman.obj (.text:_ZN5Eigen15DenseCoeffsBaseINS_6MatrixIfLi3ELi7ELi0ELi3ELi7EEELi1EE9copyCoeffINS_14CwiseNullaryOpINS_8internal18scalar_constant_opIfEES2_EEEEviRKNS_9DenseBaseIT_EE)
                  000222d2    00000038     ExtendedKalman.obj (.text:_ZN5Eigen15DenseCoeffsBaseINS_6MatrixIfLi7ELi1ELi0ELi7ELi1EEELi1EE9copyCoeffINS_13CwiseBinaryOpINS_8internal13scalar_sum_opIfEEKS2_KNS_17CoeffBasedProductIRKNS1_IfLi7ELi3ELi0ELi7ELi3EEERKNS1_IfLi3ELi1ELi0ELi3ELi1EEELi6EEEEEEEviRKNS_9DenseBaseIT_EE)
                  0002230a    00000038     ExtendedKalman.obj (.text:_ZN5Eigen15DenseCoeffsBaseINS_6MatrixIfLi7ELi1ELi0ELi7ELi1EEELi1EE9copyCoeffINS_14CwiseNullaryOpINS_8internal18scalar_constant_opIfEES2_EEEEviRKNS_9DenseBaseIT_EE)
                  00022342    00000038     ExtendedKalman.obj (.text:_ZN5Eigen15DenseCoeffsBaseINS_6MatrixIfLi7ELi3ELi0ELi7ELi3EEELi1EE9copyCoeffINS_14CwiseNullaryOpINS_8internal18scalar_constant_opIfEES2_EEEEviRKNS_9DenseBaseIT_EE)
                  0002237a    00000038     ExtendedKalman.obj (.text:_ZN5Eigen15DenseCoeffsBaseINS_6MatrixIfLi7ELi7ELi0ELi7ELi7EEELi1EE9copyCoeffINS_13CwiseBinaryOpINS_8internal20scalar_difference_opIfEEKS2_KNS_17CoeffBasedProductIRKNS1_IfLi7ELi3ELi0ELi7ELi3EEERKNS1_IfLi3ELi7ELi0ELi3ELi7EEELi6EEEEEEEviRKNS_9DenseBaseIT_EE)
                  000223b2    00000038     ExtendedKalman.obj (.text:_ZN5Eigen15DenseCoeffsBaseINS_6MatrixIfLi7ELi7ELi0ELi7ELi7EEELi1EE9copyCoeffINS_14CwiseNullaryOpINS_8internal18scalar_constant_opIfEES2_EEEEviRKNS_9DenseBaseIT_EE)
                  000223ea    00000002     rtsv7M4_T_le_v4SPD16_eabi.lib : xlocale.obj (.text:_ZNSt9money_putIcSt19ostreambuf_iteratorIcSt11char_traitsIcEEED1Ev)
                  000223ec    00000038     EigenTest.obj (.text:_ZNSsC1ERKSs)
                  00022424    00000038     rtsv7M4_T_le_v4SPD16_eabi.lib : wlocale.obj (.text:_ZNSt19ostreambuf_iteratorIwSt11char_traitsIwEEaSEw)
                  0002245c    00000038                                   : fs_tod_t2.obj (.text)
                  00022494    00000036     ExtendedKalman.obj (.text:_ZN5Eigen14CwiseNullaryOpINS_8internal18scalar_constant_opIfEENS_6MatrixIfLi3ELi1ELi0ELi3ELi1EEEEC1EiiRKS3_)
                  000224ca    00000036     ExtendedKalman.obj (.text:_ZN5Eigen14CwiseNullaryOpINS_8internal18scalar_constant_opIfEENS_6MatrixIfLi3ELi3ELi0ELi3ELi3EEEEC1EiiRKS3_)
                  00022500    00000036     ExtendedKalman.obj (.text:_ZN5Eigen14CwiseNullaryOpINS_8internal18scalar_constant_opIfEENS_6MatrixIfLi3ELi7ELi0ELi3ELi7EEEEC1EiiRKS3_)
                  00022536    00000036     ExtendedKalman.obj (.text:_ZN5Eigen14CwiseNullaryOpINS_8internal18scalar_constant_opIfEENS_6MatrixIfLi7ELi1ELi0ELi7ELi1EEEEC1EiiRKS3_)
                  0002256c    00000036     ExtendedKalman.obj (.text:_ZN5Eigen14CwiseNullaryOpINS_8internal18scalar_constant_opIfEENS_6MatrixIfLi7ELi3ELi0ELi7ELi3EEEEC1EiiRKS3_)
                  000225a2    00000036     ExtendedKalman.obj (.text:_ZN5Eigen14CwiseNullaryOpINS_8internal18scalar_constant_opIfEENS_6MatrixIfLi7ELi7ELi0ELi7ELi7EEEEC1EiiRKS3_)
                  000225d8    00000036     rtsv7M4_T_le_v4SPD16_eabi.lib : xlocale.obj (.text:_ZNKSt7collateIcE10do_compareEPKcS2_S2_S2_)
                  0002260e    00000036                                   : wlocale.obj (.text:_ZNKSt7collateIwE10do_compareEPKwS2_S2_S2_)
                  00022644    00000036     EigenTest.obj (.text:_ZNSt15basic_streambufIcSt11char_traitsIcEE5uflowEv)
                  0002267a    00000034     ExtendedKalman.obj (.text:_ZN5Eigen13CwiseBinaryOpINS_8internal13scalar_sum_opIfEEKNS_17CoeffBasedProductIRKNS_6MatrixIfLi7ELi7ELi0ELi7ELi7EEEKNS_9TransposeIS6_EELi6EEES7_EC1ERSD_S8_RKS3_)
                  000226ae    00000034     ExtendedKalman.obj (.text:_ZN5Eigen13CwiseBinaryOpINS_8internal13scalar_sum_opIfEEKNS_6MatrixIfLi7ELi1ELi0ELi7ELi1EEEKNS_17CoeffBasedProductIRKNS4_IfLi7ELi3ELi0ELi7ELi3EEERKNS4_IfLi3ELi1ELi0ELi3ELi1EEELi6EEEEC1ERS6_RSF_RKS3_)
                  000226e2    00000034     ExtendedKalman.obj (.text:_ZN5Eigen13CwiseBinaryOpINS_8internal20scalar_difference_opIfEEKNS_6MatrixIfLi7ELi7ELi0ELi7ELi7EEEKNS_17CoeffBasedProductIRKNS4_IfLi7ELi3ELi0ELi7ELi3EEERKNS4_IfLi3ELi7ELi0ELi3ELi7EEELi6EEEEC1ERS6_RSF_RKS3_)
                  00022716    00000034     ExtendedKalman.obj (.text:_ZN5Eigen14CwiseNullaryOpINS_8internal18scalar_identity_opIfEENS_6MatrixIfLi7ELi7ELi0ELi7ELi7EEEEC1EiiRKS3_)
                  0002274a    00000034     ExtendedKalman.obj (.text:_ZN5Eigen6MatrixIfLi3ELi3ELi0ELi3ELi3EEC1INS_8internal12inverse_implIS1_EEEERKNS_13ReturnByValueIT_EE)
                  0002277e    00000034     ExtendedKalman.obj (.text:_ZNK5Eigen10MatrixBaseINS_6MatrixIfLi3ELi1ELi0ELi3ELi1EEEE12cwiseProductINS_5BlockIKNS1_IfLi3ELi3ELi0ELi3ELi3EEELi3ELi1ELb1EEEEEKNS_13CwiseBinaryOpINS_8internal17scalar_product_opIfNSA_6traitsIT_E6ScalarEEEKS2_KSD_EERKNS0_ISD_EE)
                  000227b2    00000034     PID.obj (.text:_ZNKSt9basic_iosIcSt11char_traitsIcEE5widenEc)
                  000227e6    00000034     EigenTest.obj (.text:_ZNSsC1EPKcj)
                  0002281a    00000002     rtsv7M4_T_le_v4SPD16_eabi.lib : wlocale.obj (.text:_ZNSt9money_putIwSt19ostreambuf_iteratorIwSt11char_traitsIwEEED1Ev)
                  0002281c    00000034     PID.obj (.text:_ZNSt6locale2idcvjEv)
                  00022850    00000034     rtsv7M4_T_le_v4SPD16_eabi.lib : locale.obj (.text:_ZStneIcSt11char_traitsIcEEbRKSt19istreambuf_iteratorIT_T0_ES7_)
                  00022884    00000034                                   : wlocale.obj (.text:_ZStneIwSt11char_traitsIwEEbRKSt19istreambuf_iteratorIT_T0_ES7_)
                  000228b8    00000034                                   : feraiseexcept.obj (.text)
                  000228ec    00000034                                   : xfdtest.obj (.text)
                  00022920    00000032     ExtendedKalman.obj (.text:_ZN5Eigen13CwiseBinaryOpINS_8internal13scalar_sum_opIfEEKNS_17CoeffBasedProductIRKNS_6MatrixIfLi3ELi7ELi0ELi3ELi7EEEKNS_9TransposeIS6_EELi6EEEKNS5_IfLi3ELi3ELi0ELi3ELi3EEEEC1ERSD_RSF_RKS3_)
                  00022952    00000032     PID.obj (.text:_ZNKSt5ctypeIcE10do_tolowerEPcPKc)
                  00022984    00000032     PID.obj (.text:_ZNKSt5ctypeIcE10do_toupperEPcPKc)
                  000229b6    00000032     rtsv7M4_T_le_v4SPD16_eabi.lib : xlocale.obj (.text:_ZNSt9money_putIcSt19ostreambuf_iteratorIcSt11char_traitsIcEEE4_PutES3_St22_String_const_iteratorIcS2_SaIcEEj)
                  000229e8    00000032                                   : wlocale.obj (.text:_ZNSt9money_putIwSt19ostreambuf_iteratorIwSt11char_traitsIwEEE4_PutES3_St22_String_const_iteratorIwS2_SaIwEEj)
                  00022a1a    00000002                                   : newhandler.obj (.text)
                  00022a1c    00000030     SPISlave.obj (.text:_ZN15RingBufferClassI9message_sEC1Ev)
                  00022a4c    00000030     ExtendedKalman.obj (.text:_ZN5Eigen13CwiseBinaryOpINS_8internal17scalar_product_opIffEEKNS_6MatrixIfLi3ELi1ELi0ELi3ELi1EEEKNS_5BlockIKNS4_IfLi3ELi3ELi0ELi3ELi3EEELi3ELi1ELb1EEEEC1ERS6_RSB_RKS3_)
                  00022a7c    00000030     ExtendedKalman.obj (.text:_ZN5Eigen8internal20redux_novec_unrollerINS0_13scalar_sum_opIfEENS_13CwiseBinaryOpINS0_17scalar_product_opIffEEKNS_6MatrixIfLi3ELi1ELi0ELi3ELi1EEEKNS_5BlockIKNS7_IfLi3ELi3ELi0ELi3ELi3EEELi3ELi1ELb1EEEEELi0ELi3EE3runERKSF_RKS3_)
                  00022aac    00000030     ExtendedKalman.obj (.text:_ZN5Eigen8internal20redux_novec_unrollerINS0_13scalar_sum_opIfEENS_13CwiseBinaryOpINS0_17scalar_product_opIffEEKNS_6MatrixIfLi3ELi1ELi0ELi3ELi1EEEKNS_5BlockIKNS7_IfLi3ELi3ELi0ELi3ELi3EEELi3ELi1ELb1EEEEELi1ELi2EE3runERKSF_RKS3_)
                  00022adc    00000030     ExtendedKalman.obj (.text:_ZNK5Eigen10MatrixBaseINS_6MatrixIfLi3ELi1ELi0ELi3ELi1EEEEmiIS2_EEKNS_13CwiseBinaryOpINS_8internal20scalar_difference_opIfEEKS2_KT_EERKNS0_ISA_EE)
                  00022b0c    00000030     rtsv7M4_T_le_v4SPD16_eabi.lib : wlocale.obj (.text:_ZNKSt7num_putIwSt19ostreambuf_iteratorIwSt11char_traitsIwEEE4_RepES3_wj)
                  00022b3c    00000030                                   : xlocale.obj (.text:_ZNSt10moneypunctIcLb0EED0Ev)
                  00022b6c    00000030                                   : xlocale.obj (.text:_ZNSt10moneypunctIcLb1EED0Ev)
                  00022b9c    00000030                                   : wlocale.obj (.text:_ZNSt10moneypunctIwLb0EED0Ev)
                  00022bcc    00000030                                   : wlocale.obj (.text:_ZNSt10moneypunctIwLb1EED0Ev)
                  00022bfc    00000030                                   : iostream.obj (.text:_ZNSt13basic_filebufIcSt11char_traitsIcEE4syncEv)
                  00022c2c    00000030                                   : wiostrea.obj (.text:_ZNSt13basic_filebufIwSt11char_traitsIwEE4syncEv)
                  00022c5c    00000030     EigenTest.obj (.text:_ZNSt15basic_streambufIcSt11char_traitsIcEEC1Ev)
                  00022c8c    00000030     rtsv7M4_T_le_v4SPD16_eabi.lib : wiostrea.obj (.text:_ZNSt15basic_streambufIwSt11char_traitsIwEE7seekposESt4fposIiENSt5_IosbIiE9_OpenmodeE)
                  00022cbc    00000030     PID.obj (.text:_ZNSt5ctypeIcE7_GetcatEPPKNSt6locale5facetE)
                  00022cec    00000030     rtsv7M4_T_le_v4SPD16_eabi.lib : xlocale.obj (.text:_ZNSt7_MpunctIcED0Ev)
                  00022d1c    00000030                                   : wlocale.obj (.text:_ZNSt7_MpunctIwED0Ev)
                  00022d4c    00000030                                   : xlocale.obj (.text:_ZNSt9money_putIcSt19ostreambuf_iteratorIcSt11char_traitsIcEEE4_RepES3_cj)
                  00022d7c    00000030     PID.obj (.text:_ZSt4endlIcSt11char_traitsIcEERSt13basic_ostreamIT_T0_ES6_)
                  00022dac    00000030     rtsv7M4_T_le_v4SPD16_eabi.lib : strncpy.obj (.text)
                  00022ddc    00000030                                   : xferaise.obj (.text)
                  00022e0c    0000002e     ExtendedKalman.obj (.text:_ZN5Eigen13CwiseBinaryOpINS_8internal20scalar_difference_opIfEEKNS_6MatrixIfLi3ELi1ELi0ELi3ELi1EEES6_EC1ERS6_S8_RKS3_)
                  00022e3a    0000002e     ExtendedKalman.obj (.text:_ZN5Eigen17CoeffBasedProductIRKNS_6MatrixIfLi7ELi3ELi1ELi7ELi3EEENS1_IfLi3ELi3ELi0ELi3ELi3EEELi6EEC1INS0_IRKNS1_IfLi7ELi7ELi0ELi7ELi7EEEKNS_9TransposeINS1_IfLi3ELi7ELi0ELi3ELi7EEEEELi6EEENS_13ReturnByValueINS_8internal12inverse_implIS5_EEEEEERKT_RKT0_)
                  00022e68    0000002e     rtsv7M4_T_le_v4SPD16_eabi.lib : wiostrea.obj (.text:_ZNKSt5ctypeIwE5do_isEPKwS2_Ps)
                  00022e96    0000002e                                   : ios.obj (.text:_ZNSt13runtime_errorD0Ev)
                  00022ec4    0000002e                                   : ios.obj (.text:_ZNSt6localeaSERKS_)
                  00022ef2    0000002e                                   : ios.obj (.text:_ZNSt8ios_base7failureD0Ev)
                  00022f20    0000002e                                   : locale.obj (.text:_ZSteqIcSt11char_traitsIcEEbRKSt19istreambuf_iteratorIT_T0_ES7_)
                  00022f4e    0000002e                                   : wlocale.obj (.text:_ZSteqIwSt11char_traitsIwEEbRKSt19istreambuf_iteratorIT_T0_ES7_)
                  00022f7c    0000002e                                   : i_tofd_t2.obj (.text)
                  00022faa    0000002e                                   : raise.obj (.text)
                  00022fd8    0000002c     ExtendedKalman.obj (.text:_ZN5Eigen17CoeffBasedProductIRKNS_6MatrixIfLi3ELi7ELi0ELi3ELi7EEEKNS_9TransposeIS2_EELi6EEC1INS0_IS4_RKNS1_IfLi7ELi7ELi0ELi7ELi7EEELi6EEES6_EERKT_RKT0_)
                  00023004    0000002c     ExtendedKalman.obj (.text:_ZN5Eigen17CoeffBasedProductIRKNS_6MatrixIfLi7ELi7ELi0ELi7ELi7EEEKNS_9TransposeIS2_EELi6EEC1INS0_IS4_S4_Li6EEES6_EERKT_RKT0_)
                  00023030    0000002c     EigenTest.obj (.text:_ZN5Eigen8internal23handmade_aligned_mallocEj)
                  0002305c    0000002c     ExtendedKalman.obj (.text:_ZNK5Eigen15DenseCoeffsBaseINS_13CwiseBinaryOpINS_8internal17scalar_product_opIffEEKNS_6MatrixIfLi3ELi1ELi0ELi3ELi1EEEKNS_5BlockIKNS5_IfLi3ELi3ELi0ELi3ELi3EEELi3ELi1ELb1EEEEELi0EE17coeffByOuterInnerEii)
                  00023088    0000002c     ExtendedKalman.obj (.text:_ZNK5Eigen16CwiseUnaryOpImplINS_8internal18scalar_multiple_opIfEEKNS_6MatrixIfLi3ELi1ELi0ELi3ELi1EEENS_5DenseEE5coeffEi)
                  000230b4    0000002c     ExtendedKalman.obj (.text:_ZNK5Eigen7MapBaseINS_5BlockIKNS_6MatrixIfLi3ELi3ELi0ELi3ELi3EEELi3ELi1ELb1EEELi0EE5coeffEii)
                  000230e0    0000002c     PID.obj (.text:_ZNKSt8_Locinfo9_GetctypeEv)
                  0002310c    0000002c     rtsv7M4_T_le_v4SPD16_eabi.lib : wlocale.obj (.text:_ZNSbIwSt11char_traitsIwESaIwEE9_ChassignEjjw)
                  00023138    0000002c     EigenTest.obj (.text:_ZNSiD2Ev)
                  00023164    0000002c     EigenTest.obj (.text:_ZNSoD2Ev)
                  00023190    0000002c     PID.obj (.text:_ZNSs7_InsideEPKc)
                  000231bc    0000002c     EigenTest.obj (.text:_ZNSt15basic_streambufIcSt11char_traitsIcEE7seekposESt4fposIiENSt5_IosbIiE9_OpenmodeE)
                  000231e8    0000002c     rtsv7M4_T_le_v4SPD16_eabi.lib : wiostrea.obj (.text:_ZNSt15basic_streambufIwSt11char_traitsIwEE7seekoffElNSt5_IosbIiE8_SeekdirENS4_9_OpenmodeE)
                  00023214    0000002c     EigenTest.obj (.text:_ZNSt4fposIiEC1El)
                  00023240    0000002c     PID.obj (.text:_ZNSt7num_putIcSt19ostreambuf_iteratorIcSt11char_traitsIcEEE7_GetcatEPPKNSt6locale5facetE)
                  0002326c    0000002c     PID.obj (.text:_ZNSt8numpunctIcE7_GetcatEPPKNSt6locale5facetE)
                  00023298    0000002c     PID.obj (.text:_ZNSt9basic_iosIcSt11char_traitsIcEE5clearENSt5_IosbIiE8_IostateEb)
                  000232c4    0000002c     PID.obj (.text:_ZNSt9basic_iosIcSt11char_traitsIcEE8setstateENSt5_IosbIiE8_IostateEb)
                  000232f0    0000002c     rtsv7M4_T_le_v4SPD16_eabi.lib : new_.obj (.text)
                  0002331c    0000002c                                   : setlocale.obj (.text)
                  00023348    0000002a     driverlib.lib : timer.obj (.text:TimerControlEvent)
                  00023372    0000002a                   : timer.obj (.text:TimerLoadSet)
                  0002339c    0000002a                   : timer.obj (.text:TimerMatchSet)
                  000233c6    0000002a                   : timer.obj (.text:TimerPrescaleMatchSet)
                  000233f0    0000002a                   : timer.obj (.text:TimerPrescaleSet)
                  0002341a    0000002a     EigenTest.obj (.text:_ZN5Eigen15PlainObjectBaseINS_6MatrixIdLin1ELin1ELi0ELin1ELin1EEEE6resizeEii)
                  00023444    0000002a     ExtendedKalman.obj (.text:_ZN5Eigen15PlainObjectBaseINS_6MatrixIfLi3ELi1ELi0ELi3ELi1EEEE6resizeEii)
                  0002346e    0000002a     ExtendedKalman.obj (.text:_ZN5Eigen15PlainObjectBaseINS_6MatrixIfLi3ELi3ELi0ELi3ELi3EEEE6resizeEii)
                  00023498    0000002a     ExtendedKalman.obj (.text:_ZN5Eigen15PlainObjectBaseINS_6MatrixIfLi3ELi3ELi1ELi3ELi3EEEE6resizeEii)
                  000234c2    0000002a     ExtendedKalman.obj (.text:_ZN5Eigen15PlainObjectBaseINS_6MatrixIfLi3ELi7ELi0ELi3ELi7EEEE6resizeEii)
                  000234ec    0000002a     ExtendedKalman.obj (.text:_ZN5Eigen15PlainObjectBaseINS_6MatrixIfLi7ELi1ELi0ELi7ELi1EEEE6resizeEii)
                  00023516    0000002a     ExtendedKalman.obj (.text:_ZN5Eigen15PlainObjectBaseINS_6MatrixIfLi7ELi3ELi0ELi7ELi3EEEE6resizeEii)
                  00023540    0000002a     ExtendedKalman.obj (.text:_ZN5Eigen15PlainObjectBaseINS_6MatrixIfLi7ELi3ELi1ELi7ELi3EEEE6resizeEii)
                  0002356a    0000002a     ExtendedKalman.obj (.text:_ZN5Eigen15PlainObjectBaseINS_6MatrixIfLi7ELi7ELi0ELi7ELi7EEEE6resizeEii)
                  00023594    0000002a     ExtendedKalman.obj (.text:_ZN5Eigen15PlainObjectBaseINS_6MatrixIfLi7ELi7ELi1ELi7ELi7EEEE6resizeEii)
                  000235be    0000002a     ExtendedKalman.obj (.text:_ZN5Eigen17CoeffBasedProductINS_6MatrixIfLi7ELi7ELi0ELi7ELi7EEERKS2_Li6EEC1INS_13CwiseBinaryOpINS_8internal20scalar_difference_opIfEES3_KNS0_IRKNS1_IfLi7ELi3ELi0ELi7ELi3EEERKNS1_IfLi3ELi7ELi0ELi3ELi7EEELi6EEEEES2_EERKT_RKT0_)
                  000235e8    0000002a     rtsv7M4_T_le_v4SPD16_eabi.lib : wiostrea.obj (.text:_ZNKSt5ctypeIwE10do_toupperEw)
                  00023612    0000002a     PID.obj (.text:_ZNSsC1EPKc)
                  0002363c    0000002a     EigenTest.obj (.text:_ZNSt11char_traitsIcE7not_eofERKi)
                  00023666    0000002a     rtsv7M4_T_le_v4SPD16_eabi.lib : ios.obj (.text:_ZNSt13runtime_errorD1Ev)
                  00023690    0000002a                                   : ios.obj (.text:_ZNSt8ios_base7failureD1Ev)
                  000236ba    00000028     driverlib.lib : timer.obj (.text:TimerIntRegister)
                  000236e2    00000002     --HOLE-- [fill = 0]
                  000236e4    00000028     SPISlave.obj (.text:_ZN15RingBufferClassIhEC1Ev)
                  0002370c    00000028     ExtendedKalman.obj (.text:_ZN5Eigen15DenseCoeffsBaseINS_6MatrixIfLi7ELi3ELi0ELi7ELi3EEELi1EE9copyCoeffIS2_EEviRKNS_9DenseBaseIT_EE)
                  00023734    00000028     ExtendedKalman.obj (.text:_ZN5Eigen15DenseCoeffsBaseINS_6MatrixIfLi7ELi7ELi0ELi7ELi7EEELi1EE9copyCoeffIS2_EEviRKNS_9DenseBaseIT_EE)
                  0002375c    00000028     EigenTest.obj (.text:_ZN5Eigen15PlainObjectBaseINS_6MatrixIdLin1ELin1ELi0ELin1ELin1EEEE8coeffRefEii)
                  00023784    00000028     ExtendedKalman.obj (.text:_ZN5Eigen17CoeffBasedProductIRKNS_6MatrixIfLi7ELi7ELi0ELi7ELi7EEEKNS_9TransposeINS1_IfLi3ELi7ELi0ELi3ELi7EEEEELi6EEC1IS2_S7_EERKT_RKT0_)
                  000237ac    00000028     ExtendedKalman.obj (.text:_ZN5Eigen9DenseBaseINS_6MatrixIfLi7ELi7ELi0ELi7ELi7EEEE11NullaryExprINS_8internal18scalar_identity_opIfEEEEKNS_14CwiseNullaryOpIT_S2_EEiiRKS9_)
                  000237d4    00000028     EigenTest.obj (.text:_ZNK5Eigen15PlainObjectBaseINS_6MatrixIdLin1ELin1ELi0ELin1ELin1EEEE5coeffEii)
                  000237fc    00000028     ExtendedKalman.obj (.text:_ZNK5Eigen17CoeffBasedProductINS_6MatrixIfLi7ELi7ELi0ELi7ELi7EEERKS2_Li6EE5coeffEii)
                  00023824    00000028     ExtendedKalman.obj (.text:_ZNK5Eigen17CoeffBasedProductIRKNS_6MatrixIfLi3ELi7ELi0ELi3ELi7EEEKNS_9TransposeIS2_EELi6EE5coeffEii)
                  0002384c    00000028     ExtendedKalman.obj (.text:_ZNK5Eigen17CoeffBasedProductIRKNS_6MatrixIfLi3ELi7ELi0ELi3ELi7EEERKNS1_IfLi7ELi7ELi0ELi7ELi7EEELi6EE5coeffEii)
                  00023874    00000028     ExtendedKalman.obj (.text:_ZNK5Eigen17CoeffBasedProductIRKNS_6MatrixIfLi7ELi3ELi0ELi7ELi3EEERKNS1_IfLi3ELi1ELi0ELi3ELi1EEELi6EE5coeffEii)
                  0002389c    00000028     ExtendedKalman.obj (.text:_ZNK5Eigen17CoeffBasedProductIRKNS_6MatrixIfLi7ELi3ELi0ELi7ELi3EEERKNS1_IfLi3ELi7ELi0ELi3ELi7EEELi6EE5coeffEii)
                  000238c4    00000028     ExtendedKalman.obj (.text:_ZNK5Eigen17CoeffBasedProductIRKNS_6MatrixIfLi7ELi3ELi1ELi7ELi3EEENS1_IfLi3ELi3ELi0ELi3ELi3EEELi6EE5coeffEii)
                  000238ec    00000028     ExtendedKalman.obj (.text:_ZNK5Eigen17CoeffBasedProductIRKNS_6MatrixIfLi7ELi7ELi0ELi7ELi7EEEKNS_9TransposeINS1_IfLi3ELi7ELi0ELi3ELi7EEEEELi6EE5coeffEii)
                  00023914    00000028     ExtendedKalman.obj (.text:_ZNK5Eigen17CoeffBasedProductIRKNS_6MatrixIfLi7ELi7ELi0ELi7ELi7EEEKNS_9TransposeIS2_EELi6EE5coeffEii)
                  0002393c    00000028     ExtendedKalman.obj (.text:_ZNK5Eigen17CoeffBasedProductIRKNS_6MatrixIfLi7ELi7ELi0ELi7ELi7EEES4_Li6EE5coeffEii)
                  00023964    00000028     ExtendedKalman.obj (.text:_ZNK5Eigen8internal18scalar_identity_opIfEclIiEEKfT_S5_)
                  0002398c    00000028     rtsv7M4_T_le_v4SPD16_eabi.lib : wiostrea.obj (.text:_ZNKSt5ctypeIwE10do_tolowerEw)
                  000239b4    00000028                                   : wiostrea.obj (.text:_ZNKSt5ctypeIwE11do_scan_notEsPKwS2_)
                  000239dc    00000028                                   : ios.obj (.text:_ZNKSt9exception6_RaiseEv)
                  00023a04    00000028                                   : xlocale.obj (.text:_ZNSt10moneypunctIcLb0EED1Ev)
                  00023a2c    00000028                                   : xlocale.obj (.text:_ZNSt10moneypunctIcLb1EED1Ev)
                  00023a54    00000028                                   : wlocale.obj (.text:_ZNSt10moneypunctIwLb0EED1Ev)
                  00023a7c    00000028                                   : wlocale.obj (.text:_ZNSt10moneypunctIwLb1EED1Ev)
                  00023aa4    00000028                                   : string.obj (.text:_ZNSt11logic_errorD0Ev)
                  00023acc    00000028                                   : string.obj (.text:_ZNSt12length_errorD0Ev)
                  00023af4    00000028                                   : string.obj (.text:_ZNSt12out_of_rangeD0Ev)
                  00023b1c    00000028     EigenTest.obj (.text:_ZNSt15basic_streambufIcSt11char_traitsIcEE4setgEPcS3_S3_)
                  00023b44    00000028     EigenTest.obj (.text:_ZNSt15basic_streambufIcSt11char_traitsIcEE4setpEPcS3_S3_)
                  00023b6c    00000028     EigenTest.obj (.text:_ZNSt15basic_streambufIcSt11char_traitsIcEE7seekoffElNSt5_IosbIiE8_SeekdirENS4_9_OpenmodeE)
                  00023b94    00000028     PID.obj (.text:_ZNSt5ctypeIcE5_TidyEv)
                  00023bbc    00000028     rtsv7M4_T_le_v4SPD16_eabi.lib : xlocale.obj (.text:_ZNSt7_MpunctIcED1Ev)
                  00023be4    00000028                                   : wlocale.obj (.text:_ZNSt7_MpunctIwED1Ev)
                  00023c0c    00000028                                   : wlocale.obj (.text:_ZNSt8numpunctIwED0Ev)
                  00023c34    00000028     EigenTest.obj (.text:_ZNSt9basic_iosIcSt11char_traitsIcEE7copyfmtERKS2_)
                  00023c5c    00000028     rtsv7M4_T_le_v4SPD16_eabi.lib : fgetpos.obj (.text)
                  00023c84    00000026     ExtendedKalman.obj (.text:_ZN5Eigen14CwiseNullaryOpINS_8internal18scalar_constant_opIfEENS_6MatrixIfLi7ELi7ELi0ELi7ELi7EEEEC1ERKS6_)
                  00023caa    00000026     ExtendedKalman.obj (.text:_ZN5Eigen15PlainObjectBaseINS_6MatrixIfLi3ELi3ELi0ELi3ELi3EEEE8coeffRefEii)
                  00023cd0    00000026     ExtendedKalman.obj (.text:_ZN5Eigen15PlainObjectBaseINS_6MatrixIfLi3ELi3ELi1ELi3ELi3EEEE8coeffRefEii)
                  00023cf6    00000026     ExtendedKalman.obj (.text:_ZN5Eigen15PlainObjectBaseINS_6MatrixIfLi3ELi3ELi1ELi3ELi3EEEEC1Eiii)
                  00023d1c    00000026     ExtendedKalman.obj (.text:_ZN5Eigen15PlainObjectBaseINS_6MatrixIfLi3ELi7ELi0ELi3ELi7EEEE8coeffRefEii)
                  00023d42    00000026     ExtendedKalman.obj (.text:_ZN5Eigen15PlainObjectBaseINS_6MatrixIfLi7ELi1ELi0ELi7ELi1EEEE8coeffRefEii)
                  00023d68    00000026     ExtendedKalman.obj (.text:_ZN5Eigen15PlainObjectBaseINS_6MatrixIfLi7ELi1ELi0ELi7ELi1EEEEC1Eiii)
                  00023d8e    00000026     ExtendedKalman.obj (.text:_ZN5Eigen15PlainObjectBaseINS_6MatrixIfLi7ELi3ELi0ELi7ELi3EEEE8coeffRefEii)
                  00023db4    00000026     ExtendedKalman.obj (.text:_ZN5Eigen15PlainObjectBaseINS_6MatrixIfLi7ELi3ELi0ELi7ELi3EEEEC1Eiii)
                  00023dda    00000026     ExtendedKalman.obj (.text:_ZN5Eigen15PlainObjectBaseINS_6MatrixIfLi7ELi3ELi1ELi7ELi3EEEE8coeffRefEii)
                  00023e00    00000026     ExtendedKalman.obj (.text:_ZN5Eigen15PlainObjectBaseINS_6MatrixIfLi7ELi7ELi0ELi7ELi7EEEE8coeffRefEii)
                  00023e26    00000026     ExtendedKalman.obj (.text:_ZN5Eigen15PlainObjectBaseINS_6MatrixIfLi7ELi7ELi0ELi7ELi7EEEEC1Eiii)
                  00023e4c    00000026     ExtendedKalman.obj (.text:_ZN5Eigen15PlainObjectBaseINS_6MatrixIfLi7ELi7ELi1ELi7ELi7EEEE8coeffRefEii)
                  00023e72    00000026     ExtendedKalman.obj (.text:_ZN5Eigen15PlainObjectBaseINS_6MatrixIfLi7ELi7ELi1ELi7ELi7EEEEC1Eiii)
                  00023e98    00000026     ExtendedKalman.obj (.text:_ZN5Eigen17CoeffBasedProductIRKNS_6MatrixIfLi3ELi7ELi0ELi3ELi7EEERKNS1_IfLi7ELi7ELi0ELi7ELi7EEELi6EEC1IS2_S5_EERKT_RKT0_)
                  00023ebe    00000026     ExtendedKalman.obj (.text:_ZN5Eigen17CoeffBasedProductIRKNS_6MatrixIfLi7ELi3ELi0ELi7ELi3EEERKNS1_IfLi3ELi1ELi0ELi3ELi1EEELi6EEC1IS2_S5_EERKT_RKT0_)
                  00023ee4    00000026     ExtendedKalman.obj (.text:_ZN5Eigen17CoeffBasedProductIRKNS_6MatrixIfLi7ELi3ELi0ELi7ELi3EEERKNS1_IfLi3ELi7ELi0ELi3ELi7EEELi6EEC1IS2_S5_EERKT_RKT0_)
                  00023f0a    00000026     ExtendedKalman.obj (.text:_ZN5Eigen17CoeffBasedProductIRKNS_6MatrixIfLi7ELi7ELi0ELi7ELi7EEES4_Li6EEC1IS2_S2_EERKT_RKT0_)
                  00023f30    00000026     EigenTest.obj (.text:_ZN5Eigen6MatrixIdLin1ELin1ELi0ELin1ELin1EEC1IiiEERKT_RKT0_)
                  00023f56    00000026     ExtendedKalman.obj (.text:_ZN5Eigen9DenseBaseINS_6MatrixIfLi3ELi3ELi0ELi3ELi3EEEE3rowEi)
                  00023f7c    00000026     ExtendedKalman.obj (.text:_ZN5Eigen9DenseBaseINS_6MatrixIfLi7ELi7ELi0ELi7ELi7EEEE8ConstantEiiRKf)
                  00023fa2    00000026     ExtendedKalman.obj (.text:_ZNK5Eigen10MatrixBaseINS_17CoeffBasedProductIRKNS_6MatrixIfLi3ELi7ELi0ELi3ELi7EEEKNS_9TransposeIS3_EELi6EEEEplINS2_IfLi3ELi3ELi0ELi3ELi3EEEEEKNS_13CwiseBinaryOpINS_8internal13scalar_sum_opIfEEKS9_KT_EERKNS0_ISI_EE)
                  00023fc8    00000026     ExtendedKalman.obj (.text:_ZNK5Eigen10MatrixBaseINS_17CoeffBasedProductIRKNS_6MatrixIfLi7ELi7ELi0ELi7ELi7EEEKNS_9TransposeIS3_EELi6EEEEplIS3_EEKNS_13CwiseBinaryOpINS_8internal13scalar_sum_opIfEEKS9_KT_EERKNS0_ISH_EE)
                  00023fee    00000026     ExtendedKalman.obj (.text:_ZNK5Eigen10MatrixBaseINS_6MatrixIfLi3ELi1ELi0ELi3ELi1EEEEmlERKf)
                  00024014    00000026     ExtendedKalman.obj (.text:_ZNK5Eigen10MatrixBaseINS_6MatrixIfLi7ELi1ELi0ELi7ELi1EEEEplINS_17CoeffBasedProductIRKNS1_IfLi7ELi3ELi0ELi7ELi3EEERKNS1_IfLi3ELi1ELi0ELi3ELi1EEELi6EEEEEKNS_13CwiseBinaryOpINS_8internal13scalar_sum_opIfEEKS2_KT_EERKNS0_ISI_EE)
                  0002403a    00000026     ExtendedKalman.obj (.text:_ZNK5Eigen10MatrixBaseINS_6MatrixIfLi7ELi7ELi0ELi7ELi7EEEEmiINS_17CoeffBasedProductIRKNS1_IfLi7ELi3ELi0ELi7ELi3EEERKNS1_IfLi3ELi7ELi0ELi3ELi7EEELi6EEEEEKNS_13CwiseBinaryOpINS_8internal20scalar_difference_opIfEEKS2_KT_EERKNS0_ISI_EE)
                  00024060    00000026     ExtendedKalman.obj (.text:_ZNK5Eigen15PlainObjectBaseINS_6MatrixIfLi3ELi1ELi0ELi3ELi1EEEE5coeffEii)
                  00024086    00000026     ExtendedKalman.obj (.text:_ZNK5Eigen15PlainObjectBaseINS_6MatrixIfLi3ELi3ELi0ELi3ELi3EEEE5coeffEii)
                  000240ac    00000026     ExtendedKalman.obj (.text:_ZNK5Eigen15PlainObjectBaseINS_6MatrixIfLi3ELi3ELi0ELi3ELi3EEEE8coeffRefEii)
                  000240d2    00000026     ExtendedKalman.obj (.text:_ZNK5Eigen15PlainObjectBaseINS_6MatrixIfLi3ELi3ELi1ELi3ELi3EEEE5coeffEii)
                  000240f8    00000026     ExtendedKalman.obj (.text:_ZNK5Eigen15PlainObjectBaseINS_6MatrixIfLi3ELi7ELi0ELi3ELi7EEEE5coeffEii)
                  0002411e    00000026     ExtendedKalman.obj (.text:_ZNK5Eigen15PlainObjectBaseINS_6MatrixIfLi7ELi3ELi0ELi7ELi3EEEE5coeffEii)
                  00024144    00000026     ExtendedKalman.obj (.text:_ZNK5Eigen15PlainObjectBaseINS_6MatrixIfLi7ELi3ELi1ELi7ELi3EEEE5coeffEii)
                  0002416a    00000026     ExtendedKalman.obj (.text:_ZNK5Eigen15PlainObjectBaseINS_6MatrixIfLi7ELi7ELi0ELi7ELi7EEEE5coeffEii)
                  00024190    00000026     ExtendedKalman.obj (.text:_ZNK5Eigen15PlainObjectBaseINS_6MatrixIfLi7ELi7ELi1ELi7ELi7EEEE5coeffEii)
                  000241b6    00000026     ExtendedKalman.obj (.text:_ZNK5Eigen9DenseBaseINS_6MatrixIfLi3ELi3ELi0ELi3ELi3EEEE3colEi)
                  000241dc    00000026     PID.obj (.text:_ZNSs4_EosEj)
                  00024202    00000026     EigenTest.obj (.text:_ZNSt15basic_streambufIcSt11char_traitsIcEE4setpEPcS3_)
                  00024228    00000026     rtsv7M4_T_le_v4SPD16_eabi.lib : wiostrea.obj (.text:_ZNSt15basic_streambufIwSt11char_traitsIwEE5uflowEv)
                  0002424e    00000026     PID.obj (.text:_ZNSt6locale5facet7_IncrefEv)
                  00024274    00000026     PID.obj (.text:_ZNSt6localeD1Ev)
                  0002429a    00000024     driverlib.lib : gpio.obj (.text:GPIOPinTypeGPIOInput)
                  000242be    00000024                   : gpio.obj (.text:GPIOPinTypeGPIOOutput)
                  000242e2    00000024                   : gpio.obj (.text:GPIOPinTypeI2C)
                  00024306    00000024                   : gpio.obj (.text:GPIOPinTypeI2CSCL)
                  0002432a    00000024                   : gpio.obj (.text:GPIOPinTypeSSI)
                  0002434e    00000024                   : gpio.obj (.text:GPIOPinTypeTimer)
                  00024372    00000024     ExtendedKalman.obj (.text:_ZN5Eigen9DenseBaseINS_5BlockINS_6MatrixIfLi3ELi3ELi0ELi3ELi3EEELi1ELi3ELb0EEEE10lazyAssignINS_9TransposeIKNS_12CwiseUnaryOpINS_8internal18scalar_multiple_opIfEEKNS2_IfLi3ELi1ELi0ELi3ELi1EEEEEEEEERS4_RKNS0_IT_EE)
                  00024396    00000024     ExtendedKalman.obj (.text:_ZN5Eigen9DenseBaseINS_6MatrixIfLi3ELi1ELi0ELi3ELi1EEEE10lazyAssignINS_13CwiseBinaryOpINS_8internal20scalar_difference_opIfEEKS2_S9_EEEERS2_RKNS0_IT_EE)
                  000243ba    00000024     ExtendedKalman.obj (.text:_ZN5Eigen9DenseBaseINS_6MatrixIfLi3ELi1ELi0ELi3ELi1EEEE10lazyAssignINS_14CwiseNullaryOpINS_8internal18scalar_constant_opIfEES2_EEEERS2_RKNS0_IT_EE)
                  000243de    00000024     ExtendedKalman.obj (.text:_ZN5Eigen9DenseBaseINS_6MatrixIfLi3ELi3ELi0ELi3ELi3EEEE10lazyAssignINS_13CwiseBinaryOpINS_8internal13scalar_sum_opIfEEKNS_17CoeffBasedProductIRKNS1_IfLi3ELi7ELi0ELi3ELi7EEEKNS_9TransposeISA_EELi6EEEKS2_EEEERS2_RKNS0_IT_EE)
                  00024402    00000024     ExtendedKalman.obj (.text:_ZN5Eigen9DenseBaseINS_6MatrixIfLi3ELi3ELi0ELi3ELi3EEEE10lazyAssignINS_14CwiseNullaryOpINS_8internal18scalar_constant_opIfEES2_EEEERS2_RKNS0_IT_EE)
                  00024426    00000024     ExtendedKalman.obj (.text:_ZN5Eigen9DenseBaseINS_6MatrixIfLi3ELi3ELi1ELi3ELi3EEEE10lazyAssignINS_17CoeffBasedProductIRKNS1_IfLi3ELi7ELi0ELi3ELi7EEEKNS_9TransposeIS6_EELi6EEEEERS2_RKNS0_IT_EE)
                  0002444a    00000024     ExtendedKalman.obj (.text:_ZN5Eigen9DenseBaseINS_6MatrixIfLi3ELi7ELi0ELi3ELi7EEEE10lazyAssignINS_14CwiseNullaryOpINS_8internal18scalar_constant_opIfEES2_EEEERS2_RKNS0_IT_EE)
                  0002446e    00000024     ExtendedKalman.obj (.text:_ZN5Eigen9DenseBaseINS_6MatrixIfLi3ELi7ELi0ELi3ELi7EEEE10lazyAssignINS_17CoeffBasedProductIRKS2_RKNS1_IfLi7ELi7ELi0ELi7ELi7EEELi6EEEEERS2_RKNS0_IT_EE)
                  00024492    00000024     ExtendedKalman.obj (.text:_ZN5Eigen9DenseBaseINS_6MatrixIfLi7ELi1ELi0ELi7ELi1EEEE10lazyAssignINS_13CwiseBinaryOpINS_8internal13scalar_sum_opIfEEKS2_KNS_17CoeffBasedProductIRKNS1_IfLi7ELi3ELi0ELi7ELi3EEERKNS1_IfLi3ELi1ELi0ELi3ELi1EEELi6EEEEEEERS2_RKNS0_IT_EE)
                  000244b6    00000024     ExtendedKalman.obj (.text:_ZN5Eigen9DenseBaseINS_6MatrixIfLi7ELi1ELi0ELi7ELi1EEEE10lazyAssignINS_14CwiseNullaryOpINS_8internal18scalar_constant_opIfEES2_EEEERS2_RKNS0_IT_EE)
                  000244da    00000024     ExtendedKalman.obj (.text:_ZN5Eigen9DenseBaseINS_6MatrixIfLi7ELi1ELi0ELi7ELi1EEEE10lazyAssignINS_17CoeffBasedProductIRKNS1_IfLi7ELi3ELi0ELi7ELi3EEERKNS1_IfLi3ELi1ELi0ELi3ELi1EEELi6EEEEERS2_RKNS0_IT_EE)
                  000244fe    00000024     ExtendedKalman.obj (.text:_ZN5Eigen9DenseBaseINS_6MatrixIfLi7ELi3ELi0ELi7ELi3EEEE10lazyAssignINS_14CwiseNullaryOpINS_8internal18scalar_constant_opIfEES2_EEEERS2_RKNS0_IT_EE)
                  00024522    00000024     ExtendedKalman.obj (.text:_ZN5Eigen9DenseBaseINS_6MatrixIfLi7ELi3ELi0ELi7ELi3EEEE10lazyAssignINS_17CoeffBasedProductIRKNS1_IfLi7ELi3ELi1ELi7ELi3EEENS1_IfLi3ELi3ELi0ELi3ELi3EEELi6EEEEERS2_RKNS0_IT_EE)
                  00024546    00000024     ExtendedKalman.obj (.text:_ZN5Eigen9DenseBaseINS_6MatrixIfLi7ELi3ELi0ELi7ELi3EEEE10lazyAssignIS2_EERS2_RKNS0_IT_EE)
                  0002456a    00000024     ExtendedKalman.obj (.text:_ZN5Eigen9DenseBaseINS_6MatrixIfLi7ELi3ELi1ELi7ELi3EEEE10lazyAssignINS_17CoeffBasedProductIRKNS1_IfLi7ELi7ELi0ELi7ELi7EEEKNS_9TransposeINS1_IfLi3ELi7ELi0ELi3ELi7EEEEELi6EEEEERS2_RKNS0_IT_EE)
                  0002458e    00000024     ExtendedKalman.obj (.text:_ZN5Eigen9DenseBaseINS_6MatrixIfLi7ELi7ELi0ELi7ELi7EEEE10lazyAssignINS_13CwiseBinaryOpINS_8internal13scalar_sum_opIfEEKNS_17CoeffBasedProductIRKS2_KNS_9TransposeIS2_EELi6EEESA_EEEERS2_RKNS0_IT_EE)
                  000245b2    00000024     ExtendedKalman.obj (.text:_ZN5Eigen9DenseBaseINS_6MatrixIfLi7ELi7ELi0ELi7ELi7EEEE10lazyAssignINS_13CwiseBinaryOpINS_8internal20scalar_difference_opIfEEKS2_KNS_17CoeffBasedProductIRKNS1_IfLi7ELi3ELi0ELi7ELi3EEERKNS1_IfLi3ELi7ELi0ELi3ELi7EEELi6EEEEEEERS2_RKNS0_IT_EE)
                  000245d6    00000024     ExtendedKalman.obj (.text:_ZN5Eigen9DenseBaseINS_6MatrixIfLi7ELi7ELi0ELi7ELi7EEEE10lazyAssignINS_14CwiseNullaryOpINS_8internal18scalar_constant_opIfEES2_EEEERS2_RKNS0_IT_EE)
                  000245fa    00000024     ExtendedKalman.obj (.text:_ZN5Eigen9DenseBaseINS_6MatrixIfLi7ELi7ELi0ELi7ELi7EEEE10lazyAssignINS_14CwiseNullaryOpINS_8internal18scalar_identity_opIfEES2_EEEERS2_RKNS0_IT_EE)
                  0002461e    00000024     ExtendedKalman.obj (.text:_ZN5Eigen9DenseBaseINS_6MatrixIfLi7ELi7ELi0ELi7ELi7EEEE10lazyAssignINS_17CoeffBasedProductIRKNS1_IfLi7ELi3ELi0ELi7ELi3EEERKNS1_IfLi3ELi7ELi0ELi3ELi7EEELi6EEEEERS2_RKNS0_IT_EE)
                  00024642    00000024     ExtendedKalman.obj (.text:_ZN5Eigen9DenseBaseINS_6MatrixIfLi7ELi7ELi0ELi7ELi7EEEE10lazyAssignINS_17CoeffBasedProductIRKS2_S7_Li6EEEEERS2_RKNS0_IT_EE)
                  00024666    00000024     ExtendedKalman.obj (.text:_ZN5Eigen9DenseBaseINS_6MatrixIfLi7ELi7ELi0ELi7ELi7EEEE10lazyAssignINS_17CoeffBasedProductIS2_RKS2_Li6EEEEERS2_RKNS0_IT_EE)
                  0002468a    00000024     ExtendedKalman.obj (.text:_ZN5Eigen9DenseBaseINS_6MatrixIfLi7ELi7ELi0ELi7ELi7EEEE10lazyAssignIS2_EERS2_RKNS0_IT_EE)
                  000246ae    00000024     ExtendedKalman.obj (.text:_ZN5Eigen9DenseBaseINS_6MatrixIfLi7ELi7ELi1ELi7ELi7EEEE10lazyAssignINS_17CoeffBasedProductIRKNS1_IfLi7ELi7ELi0ELi7ELi7EEEKNS_9TransposeIS6_EELi6EEEEERS2_RKNS0_IT_EE)
                  000246d2    00000024     ExtendedKalman.obj (.text:_ZNK5Eigen10MatrixBaseINS_13CwiseBinaryOpINS_8internal20scalar_difference_opIfEEKNS_6MatrixIfLi7ELi7ELi0ELi7ELi7EEEKNS_17CoeffBasedProductIRKNS5_IfLi7ELi3ELi0ELi7ELi3EEERKNS5_IfLi3ELi7ELi0ELi3ELi7EEELi6EEEEEEmlIS6_EEKNS_17ProductReturnTypeISH_T_XsrNS2_12product_typeISH_SL_EE5valueEE4TypeERKNS0_ISL_EE)
                  000246f6    00000024     ExtendedKalman.obj (.text:_ZNK5Eigen10MatrixBaseINS_17CoeffBasedProductIRKNS_6MatrixIfLi3ELi7ELi0ELi3ELi7EEERKNS2_IfLi7ELi7ELi0ELi7ELi7EEELi6EEEEmlINS_9TransposeIS3_EEEEKNS_17ProductReturnTypeIS9_T_XsrNS_8internal12product_typeIS9_SF_EE5valueEE4TypeERKNS0_ISF_EE)
                  0002471a    00000024     ExtendedKalman.obj (.text:_ZNK5Eigen10MatrixBaseINS_17CoeffBasedProductIRKNS_6MatrixIfLi7ELi7ELi0ELi7ELi7EEEKNS_9TransposeINS2_IfLi3ELi7ELi0ELi3ELi7EEEEELi6EEEEmlINS_13ReturnByValueINS_8internal12inverse_implINS2_IfLi3ELi3ELi0ELi3ELi3EEEEEEEEEKNS_17ProductReturnTypeISA_T_XsrNSE_12product_typeISA_SK_EE5valueEE4TypeERKNS0_ISK_EE)
                  0002473e    00000024     ExtendedKalman.obj (.text:_ZNK5Eigen10MatrixBaseINS_17CoeffBasedProductIRKNS_6MatrixIfLi7ELi7ELi0ELi7ELi7EEES5_Li6EEEEmlINS_9TransposeIS3_EEEEKNS_17ProductReturnTypeIS6_T_XsrNS_8internal12product_typeIS6_SC_EE5valueEE4TypeERKNS0_ISC_EE)
                  00024762    00000024     ExtendedKalman.obj (.text:_ZNK5Eigen10MatrixBaseINS_6MatrixIfLi3ELi7ELi0ELi3ELi7EEEEmlINS1_IfLi7ELi7ELi0ELi7ELi7EEEEEKNS_17ProductReturnTypeIS2_T_XsrNS_8internal12product_typeIS2_S7_EE5valueEE4TypeERKNS0_IS7_EE)
                  00024786    00000024     ExtendedKalman.obj (.text:_ZNK5Eigen10MatrixBaseINS_6MatrixIfLi7ELi3ELi0ELi7ELi3EEEEmlINS1_IfLi3ELi1ELi0ELi3ELi1EEEEEKNS_17ProductReturnTypeIS2_T_XsrNS_8internal12product_typeIS2_S7_EE5valueEE4TypeERKNS0_IS7_EE)
                  000247aa    00000024     ExtendedKalman.obj (.text:_ZNK5Eigen10MatrixBaseINS_6MatrixIfLi7ELi3ELi0ELi7ELi3EEEEmlINS1_IfLi3ELi7ELi0ELi3ELi7EEEEEKNS_17ProductReturnTypeIS2_T_XsrNS_8internal12product_typeIS2_S7_EE5valueEE4TypeERKNS0_IS7_EE)
                  000247ce    00000024     ExtendedKalman.obj (.text:_ZNK5Eigen10MatrixBaseINS_6MatrixIfLi7ELi7ELi0ELi7ELi7EEEEmlINS_9TransposeINS1_IfLi3ELi7ELi0ELi3ELi7EEEEEEEKNS_17ProductReturnTypeIS2_T_XsrNS_8internal12product_typeIS2_S9_EE5valueEE4TypeERKNS0_IS9_EE)
                  000247f2    00000024     ExtendedKalman.obj (.text:_ZNK5Eigen10MatrixBaseINS_6MatrixIfLi7ELi7ELi0ELi7ELi7EEEEmlIS2_EEKNS_17ProductReturnTypeIS2_T_XsrNS_8internal12product_typeIS2_S6_EE5valueEE4TypeERKNS0_IS6_EE)
                  00024816    00000024     EigenTest.obj (.text:_ZNKSt15basic_streambufIcSt11char_traitsIcEE8_GnavailEv)
                  0002483a    00000024     PID.obj (.text:_ZNKSt15basic_streambufIcSt11char_traitsIcEE8_PnavailEv)
                  0002485e    00000024     PID.obj (.text:_ZNKSt5ctypeIcE9do_narrowEPKcS2_cPc)
                  00024882    00000024     rtsv7M4_T_le_v4SPD16_eabi.lib : wiostrea.obj (.text:_ZNKSt5ctypeIwE10do_scan_isEsPKwS2_)
                  000248a6    00000024                                   : wiostrea.obj (.text:_ZNKSt5ctypeIwE8do_widenEc)
                  000248ca    00000024     PID.obj (.text:_ZNSo5_OsfxEv)
                  000248ee    00000002     --HOLE-- [fill = 0]
                  000248f0    00000024     rtsv7M4_T_le_v4SPD16_eabi.lib : wlocale.obj (.text:_ZNSt8numpunctIwED1Ev)
                  00024914    00000024                                   : xlocale.obj (.text:_ZNSt8time_getIcSt19istreambuf_iteratorIcSt11char_traitsIcEEED0Ev)
                  00024938    00000024                                   : wlocale.obj (.text:_ZNSt8time_getIwSt19istreambuf_iteratorIwSt11char_traitsIwEEED0Ev)
                  0002495c    00000024                                   : memmov.obj (.text)
                  00024980    00000024                                   : sqrtf.obj (.text)
                  000249a4    00000022     driverlib.lib : i2c.obj (.text:I2CMasterSlaveAddrSet)
                  000249c6    00000022                   : ssi.obj (.text:SSIDataGetNonBlocking)
                  000249e8    00000022     ExtendedKalman.obj (.text:_ZN5Eigen12CwiseUnaryOpINS_8internal18scalar_multiple_opIfEEKNS_6MatrixIfLi3ELi1ELi0ELi3ELi1EEEEC1ERS6_RKS3_)
                  00024a0a    00000022     PID.obj (.text:_ZNKSt5ctypeIcE8do_widenEPKcS2_Pc)
                  00024a2c    00000022     rtsv7M4_T_le_v4SPD16_eabi.lib : xlocale.obj (.text:_ZNKSt7_MpunctIcE11do_groupingEv)
                  00024a4e    00000022                                   : xlocale.obj (.text:_ZNKSt7_MpunctIcE14do_curr_symbolEv)
                  00024a70    00000022                                   : xlocale.obj (.text:_ZNKSt7_MpunctIcE16do_negative_signEv)
                  00024a92    00000022                                   : xlocale.obj (.text:_ZNKSt7_MpunctIcE16do_positive_signEv)
                  00024ab4    00000022                                   : string.obj (.text:_ZNSt11logic_errorD1Ev)
                  00024ad6    00000022                                   : string.obj (.text:_ZNSt12length_errorD1Ev)
                  00024af8    00000022                                   : string.obj (.text:_ZNSt12out_of_rangeD1Ev)
                  00024b1a    00000022                                   : wlocale.obj (.text:_ZSt10_MaklocchrIwET_cPS0_RKSt7_Cvtvec)
                  00024b3c    00000022                                   : memcmp.obj (.text)
                  00024b5e    00000022                                   : strcspn.obj (.text)
                  00024b80    00000020     driverlib.lib : gpio.obj (.text:GPIOPinWrite)
                  00024ba0    00000020                   : ssi.obj (.text:SSIDataPutNonBlocking)
                  00024bc0    00000020     ExtendedKalman.obj (.text:_ZN5Eigen15PlainObjectBaseINS_6MatrixIfLi7ELi3ELi0ELi7ELi3EEEE13_set_selectorINS_17CoeffBasedProductIRKNS1_IfLi7ELi3ELi1ELi7ELi3EEENS1_IfLi3ELi3ELi0ELi3ELi3EEELi6EEEEEvRKT_RKNS_8internal9true_typeE)
                  00024be0    00000020     ExtendedKalman.obj (.text:_ZN5Eigen15PlainObjectBaseINS_6MatrixIfLi7ELi7ELi0ELi7ELi7EEEE13_set_selectorINS_17CoeffBasedProductIS2_RKS2_Li6EEEEEvRKT_RKNS_8internal9true_typeE)
                  00024c00    00000020     ExtendedKalman.obj (.text:_ZN5Eigen7MapBaseINS_5BlockINS_6MatrixIfLi3ELi3ELi0ELi3ELi3EEELi1ELi3ELb0EEELi1EEC1EPfii)
                  00024c20    00000020     EigenTest.obj (.text:_ZN5Eigen8internal14aligned_mallocEj)
                  00024c40    00000020     ExtendedKalman.obj (.text:_ZN5Eigen8internal38assign_DefaultTraversal_InnerUnrollingINS_6MatrixIfLi3ELi3ELi1ELi3ELi3EEENS_17CoeffBasedProductIRKNS2_IfLi3ELi7ELi0ELi3ELi7EEEKNS_9TransposeIS5_EELi6EEELi0ELi3EE3runERS3_RKSB_i)
                  00024c60    00000020     ExtendedKalman.obj (.text:_ZN5Eigen8internal38assign_DefaultTraversal_InnerUnrollingINS_6MatrixIfLi3ELi3ELi1ELi3ELi3EEENS_17CoeffBasedProductIRKNS2_IfLi3ELi7ELi0ELi3ELi7EEEKNS_9TransposeIS5_EELi6EEELi1ELi3EE3runERS3_RKSB_i)
                  00024c80    00000020     ExtendedKalman.obj (.text:_ZN5Eigen8internal38assign_DefaultTraversal_InnerUnrollingINS_6MatrixIfLi3ELi3ELi1ELi3ELi3EEENS_17CoeffBasedProductIRKNS2_IfLi3ELi7ELi0ELi3ELi7EEEKNS_9TransposeIS5_EELi6EEELi2ELi3EE3runERS3_RKSB_i)
                  00024ca0    00000020     ExtendedKalman.obj (.text:_ZN5Eigen8internal38assign_DefaultTraversal_InnerUnrollingINS_6MatrixIfLi3ELi7ELi0ELi3ELi7EEENS_17CoeffBasedProductIRKS3_RKNS2_IfLi7ELi7ELi0ELi7ELi7EEELi6EEELi0ELi3EE3runERS3_RKSA_i)
                  00024cc0    00000020     ExtendedKalman.obj (.text:_ZN5Eigen8internal38assign_DefaultTraversal_InnerUnrollingINS_6MatrixIfLi3ELi7ELi0ELi3ELi7EEENS_17CoeffBasedProductIRKS3_RKNS2_IfLi7ELi7ELi0ELi7ELi7EEELi6EEELi1ELi3EE3runERS3_RKSA_i)
                  00024ce0    00000020     ExtendedKalman.obj (.text:_ZN5Eigen8internal38assign_DefaultTraversal_InnerUnrollingINS_6MatrixIfLi3ELi7ELi0ELi3ELi7EEENS_17CoeffBasedProductIRKS3_RKNS2_IfLi7ELi7ELi0ELi7ELi7EEELi6EEELi2ELi3EE3runERS3_RKSA_i)
                  00024d00    00000020     ExtendedKalman.obj (.text:_ZN5Eigen8internal38assign_DefaultTraversal_InnerUnrollingINS_6MatrixIfLi7ELi3ELi0ELi7ELi3EEENS_17CoeffBasedProductIRKNS2_IfLi7ELi3ELi1ELi7ELi3EEENS2_IfLi3ELi3ELi0ELi3ELi3EEELi6EEELi0ELi7EE3runERS3_RKS9_i)
                  00024d20    00000020     ExtendedKalman.obj (.text:_ZN5Eigen8internal38assign_DefaultTraversal_InnerUnrollingINS_6MatrixIfLi7ELi3ELi0ELi7ELi3EEENS_17CoeffBasedProductIRKNS2_IfLi7ELi3ELi1ELi7ELi3EEENS2_IfLi3ELi3ELi0ELi3ELi3EEELi6EEELi1ELi7EE3runERS3_RKS9_i)
                  00024d40    00000020     ExtendedKalman.obj (.text:_ZN5Eigen8internal38assign_DefaultTraversal_InnerUnrollingINS_6MatrixIfLi7ELi3ELi0ELi7ELi3EEENS_17CoeffBasedProductIRKNS2_IfLi7ELi3ELi1ELi7ELi3EEENS2_IfLi3ELi3ELi0ELi3ELi3EEELi6EEELi2ELi7EE3runERS3_RKS9_i)
                  00024d60    00000020     ExtendedKalman.obj (.text:_ZN5Eigen8internal38assign_DefaultTraversal_InnerUnrollingINS_6MatrixIfLi7ELi3ELi0ELi7ELi3EEENS_17CoeffBasedProductIRKNS2_IfLi7ELi3ELi1ELi7ELi3EEENS2_IfLi3ELi3ELi0ELi3ELi3EEELi6EEELi3ELi7EE3runERS3_RKS9_i)
                  00024d80    00000020     ExtendedKalman.obj (.text:_ZN5Eigen8internal38assign_DefaultTraversal_InnerUnrollingINS_6MatrixIfLi7ELi3ELi0ELi7ELi3EEENS_17CoeffBasedProductIRKNS2_IfLi7ELi3ELi1ELi7ELi3EEENS2_IfLi3ELi3ELi0ELi3ELi3EEELi6EEELi4ELi7EE3runERS3_RKS9_i)
                  00024da0    00000020     ExtendedKalman.obj (.text:_ZN5Eigen8internal38assign_DefaultTraversal_InnerUnrollingINS_6MatrixIfLi7ELi3ELi0ELi7ELi3EEENS_17CoeffBasedProductIRKNS2_IfLi7ELi3ELi1ELi7ELi3EEENS2_IfLi3ELi3ELi0ELi3ELi3EEELi6EEELi5ELi7EE3runERS3_RKS9_i)
                  00024dc0    00000020     ExtendedKalman.obj (.text:_ZN5Eigen8internal38assign_DefaultTraversal_InnerUnrollingINS_6MatrixIfLi7ELi3ELi0ELi7ELi3EEENS_17CoeffBasedProductIRKNS2_IfLi7ELi3ELi1ELi7ELi3EEENS2_IfLi3ELi3ELi0ELi3ELi3EEELi6EEELi6ELi7EE3runERS3_RKS9_i)
                  00024de0    00000020     ExtendedKalman.obj (.text:_ZN5Eigen8internal38assign_DefaultTraversal_InnerUnrollingINS_6MatrixIfLi7ELi3ELi1ELi7ELi3EEENS_17CoeffBasedProductIRKNS2_IfLi7ELi7ELi0ELi7ELi7EEEKNS_9TransposeINS2_IfLi3ELi7ELi0ELi3ELi7EEEEELi6EEELi0ELi3EE3runERS3_RKSC_i)
                  00024e00    00000020     ExtendedKalman.obj (.text:_ZN5Eigen8internal38assign_DefaultTraversal_InnerUnrollingINS_6MatrixIfLi7ELi3ELi1ELi7ELi3EEENS_17CoeffBasedProductIRKNS2_IfLi7ELi7ELi0ELi7ELi7EEEKNS_9TransposeINS2_IfLi3ELi7ELi0ELi3ELi7EEEEELi6EEELi1ELi3EE3runERS3_RKSC_i)
                  00024e20    00000020     ExtendedKalman.obj (.text:_ZN5Eigen8internal38assign_DefaultTraversal_InnerUnrollingINS_6MatrixIfLi7ELi3ELi1ELi7ELi3EEENS_17CoeffBasedProductIRKNS2_IfLi7ELi7ELi0ELi7ELi7EEEKNS_9TransposeINS2_IfLi3ELi7ELi0ELi3ELi7EEEEELi6EEELi2ELi3EE3runERS3_RKSC_i)
                  00024e40    00000020     ExtendedKalman.obj (.text:_ZN5Eigen8internal38assign_DefaultTraversal_InnerUnrollingINS_6MatrixIfLi7ELi7ELi0ELi7ELi7EEENS_13CwiseBinaryOpINS0_13scalar_sum_opIfEEKNS_17CoeffBasedProductIRKS3_KNS_9TransposeIS3_EELi6EEES8_EELi0ELi7EE3runERS3_RKSF_i)
                  00024e60    00000020     ExtendedKalman.obj (.text:_ZN5Eigen8internal38assign_DefaultTraversal_InnerUnrollingINS_6MatrixIfLi7ELi7ELi0ELi7ELi7EEENS_13CwiseBinaryOpINS0_13scalar_sum_opIfEEKNS_17CoeffBasedProductIRKS3_KNS_9TransposeIS3_EELi6EEES8_EELi1ELi7EE3runERS3_RKSF_i)
                  00024e80    00000020     ExtendedKalman.obj (.text:_ZN5Eigen8internal38assign_DefaultTraversal_InnerUnrollingINS_6MatrixIfLi7ELi7ELi0ELi7ELi7EEENS_13CwiseBinaryOpINS0_13scalar_sum_opIfEEKNS_17CoeffBasedProductIRKS3_KNS_9TransposeIS3_EELi6EEES8_EELi2ELi7EE3runERS3_RKSF_i)
                  00024ea0    00000020     ExtendedKalman.obj (.text:_ZN5Eigen8internal38assign_DefaultTraversal_InnerUnrollingINS_6MatrixIfLi7ELi7ELi0ELi7ELi7EEENS_13CwiseBinaryOpINS0_13scalar_sum_opIfEEKNS_17CoeffBasedProductIRKS3_KNS_9TransposeIS3_EELi6EEES8_EELi3ELi7EE3runERS3_RKSF_i)
                  00024ec0    00000020     ExtendedKalman.obj (.text:_ZN5Eigen8internal38assign_DefaultTraversal_InnerUnrollingINS_6MatrixIfLi7ELi7ELi0ELi7ELi7EEENS_13CwiseBinaryOpINS0_13scalar_sum_opIfEEKNS_17CoeffBasedProductIRKS3_KNS_9TransposeIS3_EELi6EEES8_EELi4ELi7EE3runERS3_RKSF_i)
                  00024ee0    00000020     ExtendedKalman.obj (.text:_ZN5Eigen8internal38assign_DefaultTraversal_InnerUnrollingINS_6MatrixIfLi7ELi7ELi0ELi7ELi7EEENS_13CwiseBinaryOpINS0_13scalar_sum_opIfEEKNS_17CoeffBasedProductIRKS3_KNS_9TransposeIS3_EELi6EEES8_EELi5ELi7EE3runERS3_RKSF_i)
                  00024f00    00000020     ExtendedKalman.obj (.text:_ZN5Eigen8internal38assign_DefaultTraversal_InnerUnrollingINS_6MatrixIfLi7ELi7ELi0ELi7ELi7EEENS_13CwiseBinaryOpINS0_13scalar_sum_opIfEEKNS_17CoeffBasedProductIRKS3_KNS_9TransposeIS3_EELi6EEES8_EELi6ELi7EE3runERS3_RKSF_i)
                  00024f20    00000020     ExtendedKalman.obj (.text:_ZN5Eigen8internal38assign_DefaultTraversal_InnerUnrollingINS_6MatrixIfLi7ELi7ELi0ELi7ELi7EEENS_17CoeffBasedProductIRKNS2_IfLi7ELi3ELi0ELi7ELi3EEERKNS2_IfLi3ELi7ELi0ELi3ELi7EEELi6EEELi0ELi7EE3runERS3_RKSB_i)
                  00024f40    00000020     ExtendedKalman.obj (.text:_ZN5Eigen8internal38assign_DefaultTraversal_InnerUnrollingINS_6MatrixIfLi7ELi7ELi0ELi7ELi7EEENS_17CoeffBasedProductIRKNS2_IfLi7ELi3ELi0ELi7ELi3EEERKNS2_IfLi3ELi7ELi0ELi3ELi7EEELi6EEELi1ELi7EE3runERS3_RKSB_i)
                  00024f60    00000020     ExtendedKalman.obj (.text:_ZN5Eigen8internal38assign_DefaultTraversal_InnerUnrollingINS_6MatrixIfLi7ELi7ELi0ELi7ELi7EEENS_17CoeffBasedProductIRKNS2_IfLi7ELi3ELi0ELi7ELi3EEERKNS2_IfLi3ELi7ELi0ELi3ELi7EEELi6EEELi2ELi7EE3runERS3_RKSB_i)
                  00024f80    00000020     ExtendedKalman.obj (.text:_ZN5Eigen8internal38assign_DefaultTraversal_InnerUnrollingINS_6MatrixIfLi7ELi7ELi0ELi7ELi7EEENS_17CoeffBasedProductIRKNS2_IfLi7ELi3ELi0ELi7ELi3EEERKNS2_IfLi3ELi7ELi0ELi3ELi7EEELi6EEELi3ELi7EE3runERS3_RKSB_i)
                  00024fa0    00000020     ExtendedKalman.obj (.text:_ZN5Eigen8internal38assign_DefaultTraversal_InnerUnrollingINS_6MatrixIfLi7ELi7ELi0ELi7ELi7EEENS_17CoeffBasedProductIRKNS2_IfLi7ELi3ELi0ELi7ELi3EEERKNS2_IfLi3ELi7ELi0ELi3ELi7EEELi6EEELi4ELi7EE3runERS3_RKSB_i)
                  00024fc0    00000020     ExtendedKalman.obj (.text:_ZN5Eigen8internal38assign_DefaultTraversal_InnerUnrollingINS_6MatrixIfLi7ELi7ELi0ELi7ELi7EEENS_17CoeffBasedProductIRKNS2_IfLi7ELi3ELi0ELi7ELi3EEERKNS2_IfLi3ELi7ELi0ELi3ELi7EEELi6EEELi5ELi7EE3runERS3_RKSB_i)
                  00024fe0    00000020     ExtendedKalman.obj (.text:_ZN5Eigen8internal38assign_DefaultTraversal_InnerUnrollingINS_6MatrixIfLi7ELi7ELi0ELi7ELi7EEENS_17CoeffBasedProductIRKNS2_IfLi7ELi3ELi0ELi7ELi3EEERKNS2_IfLi3ELi7ELi0ELi3ELi7EEELi6EEELi6ELi7EE3runERS3_RKSB_i)
                  00025000    00000020     rtsv7M4_T_le_v4SPD16_eabi.lib : wiostrea.obj (.text:_ZNKSt5ctypeIwE5do_isEsw)
                  00025020    00000020                                   : wiostrea.obj (.text:_ZNKSt5ctypeIwE9do_narrowEwc)
                  00025040    00000020     PID.obj (.text:_ZNSsC1Ev)
                  00025060    00000020     EigenTest.obj (.text:_ZNSt15basic_stringbufIcSt11char_traitsIcESaIcEED1Ev)
                  00025080    00000020     PID.obj (.text:_ZNSt5ctypeIcED1Ev)
                  000250a0    00000020     rtsv7M4_T_le_v4SPD16_eabi.lib : wiostrea.obj (.text:_ZNSt5ctypeIwED0Ev)
                  000250c0    00000020     PID.obj (.text:_ZNSt6locale5facetC1Ej)
                  000250e0    00000020     PID.obj (.text:_ZNSt8numpunctIcED1Ev)
                  00025100    00000020     rtsv7M4_T_le_v4SPD16_eabi.lib : guard.obj (.text)
                  00025120    0000001e     driverlib.lib : ssi.obj (.text:SSIIntRegister)
                  0002513e    0000001e                   : ssi.obj (.text:SSIIntStatus)
                  0002515c    0000001e                   : timer.obj (.text:TimerDisable)
                  0002517a    0000001e                   : timer.obj (.text:TimerEnable)
                  00025198    0000001e                   : timer.obj (.text:TimerIntStatus)
                  000251b6    0000001e     ExtendedKalman.obj (.text:_ZN5Eigen10MatrixBaseINS_17SelfCwiseBinaryOpINS_8internal17scalar_product_opIffEENS_6MatrixIfLi7ELi7ELi0ELi7ELi7EEENS_14CwiseNullaryOpINS2_18scalar_constant_opIfEES6_EEEEEaSISA_EERSB_RKNS_9DenseBaseIT_EE)
                  000251d4    0000001e     ExtendedKalman.obj (.text:_ZN5Eigen10MatrixBaseINS_5BlockINS_6MatrixIfLi3ELi3ELi0ELi3ELi3EEELi1ELi3ELb0EEEEaSINS_12CwiseUnaryOpINS_8internal18scalar_multiple_opIfEEKNS2_IfLi3ELi1ELi0ELi3ELi1EEEEEEERS4_RKNS_9DenseBaseIT_EE)
                  000251f2    0000001e     ExtendedKalman.obj (.text:_ZN5Eigen10MatrixBaseINS_6MatrixIfLi7ELi7ELi0ELi7ELi7EEEE8IdentityEv)
                  00025210    0000001e     ExtendedKalman.obj (.text:_ZN5Eigen12CwiseUnaryOpINS_8internal18scalar_multiple_opIfEEKNS_6MatrixIfLi3ELi1ELi0ELi3ELi1EEEEC1ERKS7_)
                  0002522e    0000001e     EigenTest.obj (.text:_ZN5Eigen12DenseStorageIdLin1ELin1ELin1ELi0EEC1Ev)
                  0002524c    0000001e     ExtendedKalman.obj (.text:_ZN5Eigen15PlainObjectBaseINS_6MatrixIfLi3ELi1ELi0ELi3ELi1EEEE10lazyAssignINS_13CwiseBinaryOpINS_8internal20scalar_difference_opIfEEKS2_S9_EEEERS2_RKNS_9DenseBaseIT_EE)
                  0002526a    0000001e     ExtendedKalman.obj (.text:_ZN5Eigen15PlainObjectBaseINS_6MatrixIfLi3ELi1ELi0ELi3ELi1EEEE10lazyAssignINS_14CwiseNullaryOpINS_8internal18scalar_constant_opIfEES2_EEEERS2_RKNS_9DenseBaseIT_EE)
                  00025288    0000001e     ExtendedKalman.obj (.text:_ZN5Eigen15PlainObjectBaseINS_6MatrixIfLi3ELi1ELi0ELi3ELi1EEEE12_set_noaliasINS_13CwiseBinaryOpINS_8internal20scalar_difference_opIfEEKS2_S9_EEEERS2_RKNS_9DenseBaseIT_EE)
                  000252a6    0000001e     ExtendedKalman.obj (.text:_ZN5Eigen15PlainObjectBaseINS_6MatrixIfLi3ELi1ELi0ELi3ELi1EEEE12_set_noaliasINS_14CwiseNullaryOpINS_8internal18scalar_constant_opIfEES2_EEEERS2_RKNS_9DenseBaseIT_EE)
                  000252c4    0000001e     ExtendedKalman.obj (.text:_ZN5Eigen15PlainObjectBaseINS_6MatrixIfLi3ELi1ELi0ELi3ELi1EEEE4_setINS_13CwiseBinaryOpINS_8internal20scalar_difference_opIfEEKS2_S9_EEEERS2_RKNS_9DenseBaseIT_EE)
                  000252e2    0000001e     ExtendedKalman.obj (.text:_ZN5Eigen15PlainObjectBaseINS_6MatrixIfLi3ELi1ELi0ELi3ELi1EEEE4_setINS_14CwiseNullaryOpINS_8internal18scalar_constant_opIfEES2_EEEERS2_RKNS_9DenseBaseIT_EE)
                  00025300    0000001e     ExtendedKalman.obj (.text:_ZN5Eigen15PlainObjectBaseINS_6MatrixIfLi3ELi3ELi0ELi3ELi3EEEE10lazyAssignINS_13CwiseBinaryOpINS_8internal13scalar_sum_opIfEEKNS_17CoeffBasedProductIRKNS1_IfLi3ELi7ELi0ELi3ELi7EEEKNS_9TransposeISA_EELi6EEEKS2_EEEERS2_RKNS_9DenseBaseIT_EE)
                  0002531e    0000001e     ExtendedKalman.obj (.text:_ZN5Eigen15PlainObjectBaseINS_6MatrixIfLi3ELi3ELi0ELi3ELi3EEEE10lazyAssignINS_14CwiseNullaryOpINS_8internal18scalar_constant_opIfEES2_EEEERS2_RKNS_9DenseBaseIT_EE)
                  0002533c    0000001e     ExtendedKalman.obj (.text:_ZN5Eigen15PlainObjectBaseINS_6MatrixIfLi3ELi3ELi0ELi3ELi3EEEE12_set_noaliasINS_13CwiseBinaryOpINS_8internal13scalar_sum_opIfEEKNS_17CoeffBasedProductIRKNS1_IfLi3ELi7ELi0ELi3ELi7EEEKNS_9TransposeISA_EELi6EEEKS2_EEEERS2_RKNS_9DenseBaseIT_EE)
                  0002535a    0000001e     ExtendedKalman.obj (.text:_ZN5Eigen15PlainObjectBaseINS_6MatrixIfLi3ELi3ELi0ELi3ELi3EEEE12_set_noaliasINS_14CwiseNullaryOpINS_8internal18scalar_constant_opIfEES2_EEEERS2_RKNS_9DenseBaseIT_EE)
                  00025378    0000001e     ExtendedKalman.obj (.text:_ZN5Eigen15PlainObjectBaseINS_6MatrixIfLi3ELi3ELi0ELi3ELi3EEEE4_setINS_13CwiseBinaryOpINS_8internal13scalar_sum_opIfEEKNS_17CoeffBasedProductIRKNS1_IfLi3ELi7ELi0ELi3ELi7EEEKNS_9TransposeISA_EELi6EEEKS2_EEEERS2_RKNS_9DenseBaseIT_EE)
                  00025396    0000001e     ExtendedKalman.obj (.text:_ZN5Eigen15PlainObjectBaseINS_6MatrixIfLi3ELi3ELi0ELi3ELi3EEEE4_setINS_14CwiseNullaryOpINS_8internal18scalar_constant_opIfEES2_EEEERS2_RKNS_9DenseBaseIT_EE)
                  000253b4    0000001e     ExtendedKalman.obj (.text:_ZN5Eigen15PlainObjectBaseINS_6MatrixIfLi3ELi3ELi1ELi3ELi3EEEE10lazyAssignINS_17CoeffBasedProductIRKNS1_IfLi3ELi7ELi0ELi3ELi7EEEKNS_9TransposeIS6_EELi6EEEEERS2_RKNS_9DenseBaseIT_EE)
                  000253d2    0000001e     ExtendedKalman.obj (.text:_ZN5Eigen15PlainObjectBaseINS_6MatrixIfLi3ELi3ELi1ELi3ELi3EEEE12_set_noaliasINS_17CoeffBasedProductIRKNS1_IfLi3ELi7ELi0ELi3ELi7EEEKNS_9TransposeIS6_EELi6EEEEERS2_RKNS_9DenseBaseIT_EE)
                  000253f0    0000001e     ExtendedKalman.obj (.text:_ZN5Eigen15PlainObjectBaseINS_6MatrixIfLi3ELi3ELi1ELi3ELi3EEEEC2Eiii)
                  0002540e    0000001e     ExtendedKalman.obj (.text:_ZN5Eigen15PlainObjectBaseINS_6MatrixIfLi3ELi7ELi0ELi3ELi7EEEE10lazyAssignINS_14CwiseNullaryOpINS_8internal18scalar_constant_opIfEES2_EEEERS2_RKNS_9DenseBaseIT_EE)
                  0002542c    0000001e     ExtendedKalman.obj (.text:_ZN5Eigen15PlainObjectBaseINS_6MatrixIfLi3ELi7ELi0ELi3ELi7EEEE10lazyAssignINS_17CoeffBasedProductIRKS2_RKNS1_IfLi7ELi7ELi0ELi7ELi7EEELi6EEEEERS2_RKNS_9DenseBaseIT_EE)
                  0002544a    0000001e     ExtendedKalman.obj (.text:_ZN5Eigen15PlainObjectBaseINS_6MatrixIfLi3ELi7ELi0ELi3ELi7EEEE12_set_noaliasINS_14CwiseNullaryOpINS_8internal18scalar_constant_opIfEES2_EEEERS2_RKNS_9DenseBaseIT_EE)
                  00025468    0000001e     ExtendedKalman.obj (.text:_ZN5Eigen15PlainObjectBaseINS_6MatrixIfLi3ELi7ELi0ELi3ELi7EEEE4_setINS_14CwiseNullaryOpINS_8internal18scalar_constant_opIfEES2_EEEERS2_RKNS_9DenseBaseIT_EE)
                  00025486    0000001e     ExtendedKalman.obj (.text:_ZN5Eigen15PlainObjectBaseINS_6MatrixIfLi7ELi1ELi0ELi7ELi1EEEE10lazyAssignINS_13CwiseBinaryOpINS_8internal13scalar_sum_opIfEEKS2_KNS_17CoeffBasedProductIRKNS1_IfLi7ELi3ELi0ELi7ELi3EEERKNS1_IfLi3ELi1ELi0ELi3ELi1EEELi6EEEEEEERS2_RKNS_9DenseBaseIT_EE)
                  000254a4    0000001e     ExtendedKalman.obj (.text:_ZN5Eigen15PlainObjectBaseINS_6MatrixIfLi7ELi1ELi0ELi7ELi1EEEE10lazyAssignINS_14CwiseNullaryOpINS_8internal18scalar_constant_opIfEES2_EEEERS2_RKNS_9DenseBaseIT_EE)
                  000254c2    0000001e     ExtendedKalman.obj (.text:_ZN5Eigen15PlainObjectBaseINS_6MatrixIfLi7ELi1ELi0ELi7ELi1EEEE10lazyAssignINS_17CoeffBasedProductIRKNS1_IfLi7ELi3ELi0ELi7ELi3EEERKNS1_IfLi3ELi1ELi0ELi3ELi1EEELi6EEEEERS2_RKNS_9DenseBaseIT_EE)
                  000254e0    0000001e     ExtendedKalman.obj (.text:_ZN5Eigen15PlainObjectBaseINS_6MatrixIfLi7ELi1ELi0ELi7ELi1EEEE12_set_noaliasINS_13CwiseBinaryOpINS_8internal13scalar_sum_opIfEEKS2_KNS_17CoeffBasedProductIRKNS1_IfLi7ELi3ELi0ELi7ELi3EEERKNS1_IfLi3ELi1ELi0ELi3ELi1EEELi6EEEEEEERS2_RKNS_9DenseBaseIT_EE)
                  000254fe    0000001e     ExtendedKalman.obj (.text:_ZN5Eigen15PlainObjectBaseINS_6MatrixIfLi7ELi1ELi0ELi7ELi1EEEE12_set_noaliasINS_14CwiseNullaryOpINS_8internal18scalar_constant_opIfEES2_EEEERS2_RKNS_9DenseBaseIT_EE)
                  0002551c    0000001e     ExtendedKalman.obj (.text:_ZN5Eigen15PlainObjectBaseINS_6MatrixIfLi7ELi1ELi0ELi7ELi1EEEE12_set_noaliasINS_17CoeffBasedProductIRKNS1_IfLi7ELi3ELi0ELi7ELi3EEERKNS1_IfLi3ELi1ELi0ELi3ELi1EEELi6EEEEERS2_RKNS_9DenseBaseIT_EE)
                  0002553a    0000001e     ExtendedKalman.obj (.text:_ZN5Eigen15PlainObjectBaseINS_6MatrixIfLi7ELi1ELi0ELi7ELi1EEEE4_setINS_13CwiseBinaryOpINS_8internal13scalar_sum_opIfEEKS2_KNS_17CoeffBasedProductIRKNS1_IfLi7ELi3ELi0ELi7ELi3EEERKNS1_IfLi3ELi1ELi0ELi3ELi1EEELi6EEEEEEERS2_RKNS_9DenseBaseIT_EE)
                  00025558    0000001e     ExtendedKalman.obj (.text:_ZN5Eigen15PlainObjectBaseINS_6MatrixIfLi7ELi1ELi0ELi7ELi1EEEE4_setINS_14CwiseNullaryOpINS_8internal18scalar_constant_opIfEES2_EEEERS2_RKNS_9DenseBaseIT_EE)
                  00025576    0000001e     ExtendedKalman.obj (.text:_ZN5Eigen15PlainObjectBaseINS_6MatrixIfLi7ELi1ELi0ELi7ELi1EEEEC2Eiii)
                  00025594    0000001e     ExtendedKalman.obj (.text:_ZN5Eigen15PlainObjectBaseINS_6MatrixIfLi7ELi3ELi0ELi7ELi3EEEE10lazyAssignINS_14CwiseNullaryOpINS_8internal18scalar_constant_opIfEES2_EEEERS2_RKNS_9DenseBaseIT_EE)
                  000255b2    0000001e     ExtendedKalman.obj (.text:_ZN5Eigen15PlainObjectBaseINS_6MatrixIfLi7ELi3ELi0ELi7ELi3EEEE10lazyAssignINS_17CoeffBasedProductIRKNS1_IfLi7ELi3ELi1ELi7ELi3EEENS1_IfLi3ELi3ELi0ELi3ELi3EEELi6EEEEERS2_RKNS_9DenseBaseIT_EE)
                  000255d0    0000001e     ExtendedKalman.obj (.text:_ZN5Eigen15PlainObjectBaseINS_6MatrixIfLi7ELi3ELi0ELi7ELi3EEEE10lazyAssignIS2_EERS2_RKNS_9DenseBaseIT_EE)
                  000255ee    0000001e     ExtendedKalman.obj (.text:_ZN5Eigen15PlainObjectBaseINS_6MatrixIfLi7ELi3ELi0ELi7ELi3EEEE12_set_noaliasINS_14CwiseNullaryOpINS_8internal18scalar_constant_opIfEES2_EEEERS2_RKNS_9DenseBaseIT_EE)
                  0002560c    0000001e     ExtendedKalman.obj (.text:_ZN5Eigen15PlainObjectBaseINS_6MatrixIfLi7ELi3ELi0ELi7ELi3EEEE12_set_noaliasINS_17CoeffBasedProductIRKNS1_IfLi7ELi3ELi1ELi7ELi3EEENS1_IfLi3ELi3ELi0ELi3ELi3EEELi6EEEEERS2_RKNS_9DenseBaseIT_EE)
                  0002562a    0000001e     ExtendedKalman.obj (.text:_ZN5Eigen15PlainObjectBaseINS_6MatrixIfLi7ELi3ELi0ELi7ELi3EEEE12_set_noaliasIS2_EERS2_RKNS_9DenseBaseIT_EE)
                  00025648    0000001e     ExtendedKalman.obj (.text:_ZN5Eigen15PlainObjectBaseINS_6MatrixIfLi7ELi3ELi0ELi7ELi3EEEE4_setINS_14CwiseNullaryOpINS_8internal18scalar_constant_opIfEES2_EEEERS2_RKNS_9DenseBaseIT_EE)
                  00025666    0000001e     ExtendedKalman.obj (.text:_ZN5Eigen15PlainObjectBaseINS_6MatrixIfLi7ELi3ELi0ELi7ELi3EEEE4_setINS_17CoeffBasedProductIRKNS1_IfLi7ELi3ELi1ELi7ELi3EEENS1_IfLi3ELi3ELi0ELi3ELi3EEELi6EEEEERS2_RKNS_9DenseBaseIT_EE)
                  00025684    0000001e     ExtendedKalman.obj (.text:_ZN5Eigen15PlainObjectBaseINS_6MatrixIfLi7ELi3ELi0ELi7ELi3EEEEC2Eiii)
                  000256a2    0000001e     ExtendedKalman.obj (.text:_ZN5Eigen15PlainObjectBaseINS_6MatrixIfLi7ELi3ELi1ELi7ELi3EEEE10lazyAssignINS_17CoeffBasedProductIRKNS1_IfLi7ELi7ELi0ELi7ELi7EEEKNS_9TransposeINS1_IfLi3ELi7ELi0ELi3ELi7EEEEELi6EEEEERS2_RKNS_9DenseBaseIT_EE)
                  000256c0    0000001e     ExtendedKalman.obj (.text:_ZN5Eigen15PlainObjectBaseINS_6MatrixIfLi7ELi7ELi0ELi7ELi7EEEE10lazyAssignINS_13CwiseBinaryOpINS_8internal13scalar_sum_opIfEEKNS_17CoeffBasedProductIRKS2_KNS_9TransposeIS2_EELi6EEESA_EEEERS2_RKNS_9DenseBaseIT_EE)
                  000256de    0000001e     ExtendedKalman.obj (.text:_ZN5Eigen15PlainObjectBaseINS_6MatrixIfLi7ELi7ELi0ELi7ELi7EEEE10lazyAssignINS_13CwiseBinaryOpINS_8internal20scalar_difference_opIfEEKS2_KNS_17CoeffBasedProductIRKNS1_IfLi7ELi3ELi0ELi7ELi3EEERKNS1_IfLi3ELi7ELi0ELi3ELi7EEELi6EEEEEEERS2_RKNS_9DenseBaseIT_EE)
                  000256fc    0000001e     ExtendedKalman.obj (.text:_ZN5Eigen15PlainObjectBaseINS_6MatrixIfLi7ELi7ELi0ELi7ELi7EEEE10lazyAssignINS_14CwiseNullaryOpINS_8internal18scalar_constant_opIfEES2_EEEERS2_RKNS_9DenseBaseIT_EE)
                  0002571a    0000001e     ExtendedKalman.obj (.text:_ZN5Eigen15PlainObjectBaseINS_6MatrixIfLi7ELi7ELi0ELi7ELi7EEEE10lazyAssignINS_14CwiseNullaryOpINS_8internal18scalar_identity_opIfEES2_EEEERS2_RKNS_9DenseBaseIT_EE)
                  00025738    0000001e     ExtendedKalman.obj (.text:_ZN5Eigen15PlainObjectBaseINS_6MatrixIfLi7ELi7ELi0ELi7ELi7EEEE10lazyAssignINS_17CoeffBasedProductIRKNS1_IfLi7ELi3ELi0ELi7ELi3EEERKNS1_IfLi3ELi7ELi0ELi3ELi7EEELi6EEEEERS2_RKNS_9DenseBaseIT_EE)
                  00025756    0000001e     ExtendedKalman.obj (.text:_ZN5Eigen15PlainObjectBaseINS_6MatrixIfLi7ELi7ELi0ELi7ELi7EEEE10lazyAssignINS_17CoeffBasedProductIRKS2_S7_Li6EEEEERS2_RKNS_9DenseBaseIT_EE)
                  00025774    0000001e     ExtendedKalman.obj (.text:_ZN5Eigen15PlainObjectBaseINS_6MatrixIfLi7ELi7ELi0ELi7ELi7EEEE10lazyAssignINS_17CoeffBasedProductIS2_RKS2_Li6EEEEERS2_RKNS_9DenseBaseIT_EE)
                  00025792    0000001e     ExtendedKalman.obj (.text:_ZN5Eigen15PlainObjectBaseINS_6MatrixIfLi7ELi7ELi0ELi7ELi7EEEE10lazyAssignIS2_EERS2_RKNS_9DenseBaseIT_EE)
                  000257b0    0000001e     ExtendedKalman.obj (.text:_ZN5Eigen15PlainObjectBaseINS_6MatrixIfLi7ELi7ELi0ELi7ELi7EEEE12_set_noaliasINS_13CwiseBinaryOpINS_8internal13scalar_sum_opIfEEKNS_17CoeffBasedProductIRKS2_KNS_9TransposeIS2_EELi6EEESA_EEEERS2_RKNS_9DenseBaseIT_EE)
                  000257ce    0000001e     ExtendedKalman.obj (.text:_ZN5Eigen15PlainObjectBaseINS_6MatrixIfLi7ELi7ELi0ELi7ELi7EEEE12_set_noaliasINS_13CwiseBinaryOpINS_8internal20scalar_difference_opIfEEKS2_KNS_17CoeffBasedProductIRKNS1_IfLi7ELi3ELi0ELi7ELi3EEERKNS1_IfLi3ELi7ELi0ELi3ELi7EEELi6EEEEEEERS2_RKNS_9DenseBaseIT_EE)
                  000257ec    0000001e     ExtendedKalman.obj (.text:_ZN5Eigen15PlainObjectBaseINS_6MatrixIfLi7ELi7ELi0ELi7ELi7EEEE12_set_noaliasINS_14CwiseNullaryOpINS_8internal18scalar_constant_opIfEES2_EEEERS2_RKNS_9DenseBaseIT_EE)
                  0002580a    0000001e     ExtendedKalman.obj (.text:_ZN5Eigen15PlainObjectBaseINS_6MatrixIfLi7ELi7ELi0ELi7ELi7EEEE12_set_noaliasINS_14CwiseNullaryOpINS_8internal18scalar_identity_opIfEES2_EEEERS2_RKNS_9DenseBaseIT_EE)
                  00025828    0000001e     ExtendedKalman.obj (.text:_ZN5Eigen15PlainObjectBaseINS_6MatrixIfLi7ELi7ELi0ELi7ELi7EEEE12_set_noaliasINS_17CoeffBasedProductIRKNS1_IfLi7ELi3ELi0ELi7ELi3EEERKNS1_IfLi3ELi7ELi0ELi3ELi7EEELi6EEEEERS2_RKNS_9DenseBaseIT_EE)
                  00025846    0000001e     ExtendedKalman.obj (.text:_ZN5Eigen15PlainObjectBaseINS_6MatrixIfLi7ELi7ELi0ELi7ELi7EEEE12_set_noaliasINS_17CoeffBasedProductIS2_RKS2_Li6EEEEERS2_RKNS_9DenseBaseIT_EE)
                  00025864    0000001e     ExtendedKalman.obj (.text:_ZN5Eigen15PlainObjectBaseINS_6MatrixIfLi7ELi7ELi0ELi7ELi7EEEE12_set_noaliasIS2_EERS2_RKNS_9DenseBaseIT_EE)
                  00025882    0000001e     ExtendedKalman.obj (.text:_ZN5Eigen15PlainObjectBaseINS_6MatrixIfLi7ELi7ELi0ELi7ELi7EEEE4_setINS_13CwiseBinaryOpINS_8internal13scalar_sum_opIfEEKNS_17CoeffBasedProductIRKS2_KNS_9TransposeIS2_EELi6EEESA_EEEERS2_RKNS_9DenseBaseIT_EE)
                  000258a0    0000001e     ExtendedKalman.obj (.text:_ZN5Eigen15PlainObjectBaseINS_6MatrixIfLi7ELi7ELi0ELi7ELi7EEEE4_setINS_14CwiseNullaryOpINS_8internal18scalar_constant_opIfEES2_EEEERS2_RKNS_9DenseBaseIT_EE)
                  000258be    0000001e     ExtendedKalman.obj (.text:_ZN5Eigen15PlainObjectBaseINS_6MatrixIfLi7ELi7ELi0ELi7ELi7EEEE4_setINS_14CwiseNullaryOpINS_8internal18scalar_identity_opIfEES2_EEEERS2_RKNS_9DenseBaseIT_EE)
                  000258dc    0000001e     ExtendedKalman.obj (.text:_ZN5Eigen15PlainObjectBaseINS_6MatrixIfLi7ELi7ELi0ELi7ELi7EEEE4_setINS_17CoeffBasedProductIS2_RKS2_Li6EEEEERS2_RKNS_9DenseBaseIT_EE)
                  000258fa    0000001e     ExtendedKalman.obj (.text:_ZN5Eigen15PlainObjectBaseINS_6MatrixIfLi7ELi7ELi0ELi7ELi7EEEEC2Eiii)
                  00025918    0000001e     ExtendedKalman.obj (.text:_ZN5Eigen15PlainObjectBaseINS_6MatrixIfLi7ELi7ELi1ELi7ELi7EEEE10lazyAssignINS_17CoeffBasedProductIRKNS1_IfLi7ELi7ELi0ELi7ELi7EEEKNS_9TransposeIS6_EELi6EEEEERS2_RKNS_9DenseBaseIT_EE)
                  00025936    0000001e     ExtendedKalman.obj (.text:_ZN5Eigen15PlainObjectBaseINS_6MatrixIfLi7ELi7ELi1ELi7ELi7EEEE12_set_noaliasINS_17CoeffBasedProductIRKNS1_IfLi7ELi7ELi0ELi7ELi7EEEKNS_9TransposeIS6_EELi6EEEEERS2_RKNS_9DenseBaseIT_EE)
                  00025954    0000001e     ExtendedKalman.obj (.text:_ZN5Eigen15PlainObjectBaseINS_6MatrixIfLi7ELi7ELi1ELi7ELi7EEEEC2Eiii)
                  00025972    0000001e     ExtendedKalman.obj (.text:_ZN5Eigen17SelfCwiseBinaryOpINS_8internal17scalar_product_opIffEENS_6MatrixIfLi7ELi7ELi0ELi7ELi7EEENS_14CwiseNullaryOpINS1_18scalar_constant_opIfEES5_EEEC1ERS5_RKS3_)
                  00025990    0000001e     ExtendedKalman.obj (.text:_ZN5Eigen17SelfCwiseBinaryOpINS_8internal17scalar_product_opIffEENS_6MatrixIfLi7ELi7ELi0ELi7ELi7EEENS_14CwiseNullaryOpINS1_18scalar_constant_opIfEES5_EEEaSERKS9_)
                  000259ae    0000001e     ExtendedKalman.obj (.text:_ZN5Eigen7MapBaseINS_5BlockIKNS_6MatrixIfLi3ELi3ELi0ELi3ELi3EEELi3ELi1ELb1EEELi0EEC2EPKfii)
                  000259cc    0000001e     ExtendedKalman.obj (.text:_ZN5Eigen7MapBaseINS_5BlockINS_6MatrixIfLi3ELi3ELi0ELi3ELi3EEELi1ELi3ELb0EEELi0EEC2EPfii)
                  000259ea    0000001e     ExtendedKalman.obj (.text:_ZN5Eigen7MapBaseINS_5BlockINS_6MatrixIfLi3ELi3ELi0ELi3ELi3EEELi1ELi3ELb0EEELi1EEC2EPfii)
                  00025a08    0000001e     ExtendedKalman.obj (.text:_ZN5Eigen8internal15assign_selectorINS_5BlockINS_6MatrixIfLi3ELi3ELi0ELi3ELi3EEELi1ELi3ELb0EEENS_12CwiseUnaryOpINS0_18scalar_multiple_opIfEEKNS3_IfLi3ELi1ELi0ELi3ELi1EEEEELb0ELb1EE3runERS5_RKSB_)
                  00025a26    0000001e     ExtendedKalman.obj (.text:_ZN5Eigen9DenseBaseINS_6MatrixIfLi3ELi1ELi0ELi3ELi1EEEE11NullaryExprINS_8internal18scalar_constant_opIfEEEEKNS_14CwiseNullaryOpIT_S2_EEiiRKS9_)
                  00025a44    0000001e     ExtendedKalman.obj (.text:_ZN5Eigen9DenseBaseINS_6MatrixIfLi3ELi3ELi0ELi3ELi3EEEE11NullaryExprINS_8internal18scalar_constant_opIfEEEEKNS_14CwiseNullaryOpIT_S2_EEiiRKS9_)
                  00025a62    0000001e     ExtendedKalman.obj (.text:_ZN5Eigen9DenseBaseINS_6MatrixIfLi3ELi7ELi0ELi3ELi7EEEE11NullaryExprINS_8internal18scalar_constant_opIfEEEEKNS_14CwiseNullaryOpIT_S2_EEiiRKS9_)
                  00025a80    0000001e     ExtendedKalman.obj (.text:_ZN5Eigen9DenseBaseINS_6MatrixIfLi7ELi1ELi0ELi7ELi1EEEE11NullaryExprINS_8internal18scalar_constant_opIfEEEEKNS_14CwiseNullaryOpIT_S2_EEiiRKS9_)
                  00025a9e    0000001e     ExtendedKalman.obj (.text:_ZN5Eigen9DenseBaseINS_6MatrixIfLi7ELi3ELi0ELi7ELi3EEEE11NullaryExprINS_8internal18scalar_constant_opIfEEEEKNS_14CwiseNullaryOpIT_S2_EEiiRKS9_)
                  00025abc    0000001e     ExtendedKalman.obj (.text:_ZN5Eigen9DenseBaseINS_6MatrixIfLi7ELi7ELi0ELi7ELi7EEEE11NullaryExprINS_8internal18scalar_constant_opIfEEEEKNS_14CwiseNullaryOpIT_S2_EEiiRKS9_)
                  00025ada    0000001e     ExtendedKalman.obj (.text:_ZNK5Eigen8internal13scalar_sum_opIfEclERKfS4_)
                  00025af8    0000001e     ExtendedKalman.obj (.text:_ZNK5Eigen8internal17scalar_product_opIffEclERKfS4_)
                  00025b16    0000001e     ExtendedKalman.obj (.text:_ZNK5Eigen8internal20scalar_difference_opIfEclERKfS4_)
                  00025b34    0000001e     PID.obj (.text:_ZNSt8numpunctIcE5_TidyEv)
                  00025b52    0000001e     EigenTest.obj (.text:_ZSt3maxIiERKT_S2_S2_)
                  00025b70    0000001e     PID.obj (.text:_ZStoRRNSt5_IosbIiE8_IostateES1_)
                  00025b8e    0000001e     EigenTest.obj (.text:_ZTv0_n12_NSdD1Ev)
                  00025bac    0000001e     EigenTest.obj (.text:_ZTv0_n12_NSiD1Ev)
                  00025bca    0000001e     EigenTest.obj (.text:_ZTv0_n12_NSoD1Ev)
                  00025be8    0000001e     EigenTest.obj (.text:_ZTv0_n12_NSt18basic_stringstreamIcSt11char_traitsIcESaIcEED1Ev)
                  00025c06    0000001c     driverlib.lib : ssi.obj (.text:SSIDataGet)
                  00025c22    0000001c                   : timer.obj (.text:TimerValueGet)
                  00025c3e    0000001c     EigenTest.obj (.text:_ZN5Eigen15PlainObjectBaseINS_6MatrixIdLin1ELin1ELi0ELin1ELin1EEEE6_init2IiiEEviiPNS_8internal9enable_ifILb1ET_E4typeE)
                  00025c5a    0000001c     ExtendedKalman.obj (.text:_ZN5Eigen8internal41assign_DefaultTraversal_CompleteUnrollingINS_6MatrixIfLi3ELi3ELi0ELi3ELi3EEENS_13CwiseBinaryOpINS0_13scalar_sum_opIfEEKNS_17CoeffBasedProductIRKNS2_IfLi3ELi7ELi0ELi3ELi7EEEKNS_9TransposeIS8_EELi6EEEKS3_EELi0ELi9EE3runERS3_RKSH_)
                  00025c76    0000001c     ExtendedKalman.obj (.text:_ZN5Eigen8internal41assign_DefaultTraversal_CompleteUnrollingINS_6MatrixIfLi3ELi3ELi0ELi3ELi3EEENS_13CwiseBinaryOpINS0_13scalar_sum_opIfEEKNS_17CoeffBasedProductIRKNS2_IfLi3ELi7ELi0ELi3ELi7EEEKNS_9TransposeIS8_EELi6EEEKS3_EELi1ELi9EE3runERS3_RKSH_)
                  00025c92    0000001c     ExtendedKalman.obj (.text:_ZN5Eigen8internal41assign_DefaultTraversal_CompleteUnrollingINS_6MatrixIfLi3ELi3ELi0ELi3ELi3EEENS_13CwiseBinaryOpINS0_13scalar_sum_opIfEEKNS_17CoeffBasedProductIRKNS2_IfLi3ELi7ELi0ELi3ELi7EEEKNS_9TransposeIS8_EELi6EEEKS3_EELi2ELi9EE3runERS3_RKSH_)
                  00025cae    0000001c     ExtendedKalman.obj (.text:_ZN5Eigen8internal41assign_DefaultTraversal_CompleteUnrollingINS_6MatrixIfLi3ELi3ELi0ELi3ELi3EEENS_13CwiseBinaryOpINS0_13scalar_sum_opIfEEKNS_17CoeffBasedProductIRKNS2_IfLi3ELi7ELi0ELi3ELi7EEEKNS_9TransposeIS8_EELi6EEEKS3_EELi3ELi9EE3runERS3_RKSH_)
                  00025cca    0000001c     ExtendedKalman.obj (.text:_ZN5Eigen8internal41assign_DefaultTraversal_CompleteUnrollingINS_6MatrixIfLi3ELi3ELi0ELi3ELi3EEENS_13CwiseBinaryOpINS0_13scalar_sum_opIfEEKNS_17CoeffBasedProductIRKNS2_IfLi3ELi7ELi0ELi3ELi7EEEKNS_9TransposeIS8_EELi6EEEKS3_EELi4ELi9EE3runERS3_RKSH_)
                  00025ce6    0000001c     ExtendedKalman.obj (.text:_ZN5Eigen8internal41assign_DefaultTraversal_CompleteUnrollingINS_6MatrixIfLi3ELi3ELi0ELi3ELi3EEENS_13CwiseBinaryOpINS0_13scalar_sum_opIfEEKNS_17CoeffBasedProductIRKNS2_IfLi3ELi7ELi0ELi3ELi7EEEKNS_9TransposeIS8_EELi6EEEKS3_EELi5ELi9EE3runERS3_RKSH_)
                  00025d02    0000001c     ExtendedKalman.obj (.text:_ZN5Eigen8internal41assign_DefaultTraversal_CompleteUnrollingINS_6MatrixIfLi3ELi3ELi0ELi3ELi3EEENS_13CwiseBinaryOpINS0_13scalar_sum_opIfEEKNS_17CoeffBasedProductIRKNS2_IfLi3ELi7ELi0ELi3ELi7EEEKNS_9TransposeIS8_EELi6EEEKS3_EELi6ELi9EE3runERS3_RKSH_)
                  00025d1e    0000001c     ExtendedKalman.obj (.text:_ZN5Eigen8internal41assign_DefaultTraversal_CompleteUnrollingINS_6MatrixIfLi3ELi3ELi0ELi3ELi3EEENS_13CwiseBinaryOpINS0_13scalar_sum_opIfEEKNS_17CoeffBasedProductIRKNS2_IfLi3ELi7ELi0ELi3ELi7EEEKNS_9TransposeIS8_EELi6EEEKS3_EELi7ELi9EE3runERS3_RKSH_)
                  00025d3a    0000001c     ExtendedKalman.obj (.text:_ZN5Eigen8internal41assign_DefaultTraversal_CompleteUnrollingINS_6MatrixIfLi3ELi3ELi0ELi3ELi3EEENS_13CwiseBinaryOpINS0_13scalar_sum_opIfEEKNS_17CoeffBasedProductIRKNS2_IfLi3ELi7ELi0ELi3ELi7EEEKNS_9TransposeIS8_EELi6EEEKS3_EELi8ELi9EE3runERS3_RKSH_)
                  00025d56    0000001c     ExtendedKalman.obj (.text:_ZN5Eigen8internal41assign_DefaultTraversal_CompleteUnrollingINS_6MatrixIfLi7ELi1ELi0ELi7ELi1EEENS_17CoeffBasedProductIRKNS2_IfLi7ELi3ELi0ELi7ELi3EEERKNS2_IfLi3ELi1ELi0ELi3ELi1EEELi6EEELi0ELi7EE3runERS3_RKSB_)
                  00025d72    0000001c     ExtendedKalman.obj (.text:_ZN5Eigen8internal41assign_DefaultTraversal_CompleteUnrollingINS_6MatrixIfLi7ELi1ELi0ELi7ELi1EEENS_17CoeffBasedProductIRKNS2_IfLi7ELi3ELi0ELi7ELi3EEERKNS2_IfLi3ELi1ELi0ELi3ELi1EEELi6EEELi1ELi7EE3runERS3_RKSB_)
                  00025d8e    0000001c     ExtendedKalman.obj (.text:_ZN5Eigen8internal41assign_DefaultTraversal_CompleteUnrollingINS_6MatrixIfLi7ELi1ELi0ELi7ELi1EEENS_17CoeffBasedProductIRKNS2_IfLi7ELi3ELi0ELi7ELi3EEERKNS2_IfLi3ELi1ELi0ELi3ELi1EEELi6EEELi2ELi7EE3runERS3_RKSB_)
                  00025daa    0000001c     ExtendedKalman.obj (.text:_ZN5Eigen8internal41assign_DefaultTraversal_CompleteUnrollingINS_6MatrixIfLi7ELi1ELi0ELi7ELi1EEENS_17CoeffBasedProductIRKNS2_IfLi7ELi3ELi0ELi7ELi3EEERKNS2_IfLi3ELi1ELi0ELi3ELi1EEELi6EEELi3ELi7EE3runERS3_RKSB_)
                  00025dc6    0000001c     ExtendedKalman.obj (.text:_ZN5Eigen8internal41assign_DefaultTraversal_CompleteUnrollingINS_6MatrixIfLi7ELi1ELi0ELi7ELi1EEENS_17CoeffBasedProductIRKNS2_IfLi7ELi3ELi0ELi7ELi3EEERKNS2_IfLi3ELi1ELi0ELi3ELi1EEELi6EEELi4ELi7EE3runERS3_RKSB_)
                  00025de2    0000001c     ExtendedKalman.obj (.text:_ZN5Eigen8internal41assign_DefaultTraversal_CompleteUnrollingINS_6MatrixIfLi7ELi1ELi0ELi7ELi1EEENS_17CoeffBasedProductIRKNS2_IfLi7ELi3ELi0ELi7ELi3EEERKNS2_IfLi3ELi1ELi0ELi3ELi1EEELi6EEELi5ELi7EE3runERS3_RKSB_)
                  00025dfe    0000001c     ExtendedKalman.obj (.text:_ZN5Eigen8internal41assign_DefaultTraversal_CompleteUnrollingINS_6MatrixIfLi7ELi1ELi0ELi7ELi1EEENS_17CoeffBasedProductIRKNS2_IfLi7ELi3ELi0ELi7ELi3EEERKNS2_IfLi3ELi1ELi0ELi3ELi1EEELi6EEELi6ELi7EE3runERS3_RKSB_)
                  00025e1a    0000001c     ExtendedKalman.obj (.text:_ZN5Eigen8internal41assign_DefaultTraversal_CompleteUnrollingINS_6MatrixIfLi7ELi7ELi0ELi7ELi7EEENS_14CwiseNullaryOpINS0_18scalar_identity_opIfEES3_EELi0ELi49EE3runERS3_RKS7_)
                  00025e36    0000001c     ExtendedKalman.obj (.text:_ZN5Eigen8internal41assign_DefaultTraversal_CompleteUnrollingINS_6MatrixIfLi7ELi7ELi0ELi7ELi7EEENS_14CwiseNullaryOpINS0_18scalar_identity_opIfEES3_EELi10ELi49EE3runERS3_RKS7_)
                  00025e52    0000001c     ExtendedKalman.obj (.text:_ZN5Eigen8internal41assign_DefaultTraversal_CompleteUnrollingINS_6MatrixIfLi7ELi7ELi0ELi7ELi7EEENS_14CwiseNullaryOpINS0_18scalar_identity_opIfEES3_EELi11ELi49EE3runERS3_RKS7_)
                  00025e6e    0000001c     ExtendedKalman.obj (.text:_ZN5Eigen8internal41assign_DefaultTraversal_CompleteUnrollingINS_6MatrixIfLi7ELi7ELi0ELi7ELi7EEENS_14CwiseNullaryOpINS0_18scalar_identity_opIfEES3_EELi12ELi49EE3runERS3_RKS7_)
                  00025e8a    0000001c     ExtendedKalman.obj (.text:_ZN5Eigen8internal41assign_DefaultTraversal_CompleteUnrollingINS_6MatrixIfLi7ELi7ELi0ELi7ELi7EEENS_14CwiseNullaryOpINS0_18scalar_identity_opIfEES3_EELi13ELi49EE3runERS3_RKS7_)
                  00025ea6    0000001c     ExtendedKalman.obj (.text:_ZN5Eigen8internal41assign_DefaultTraversal_CompleteUnrollingINS_6MatrixIfLi7ELi7ELi0ELi7ELi7EEENS_14CwiseNullaryOpINS0_18scalar_identity_opIfEES3_EELi14ELi49EE3runERS3_RKS7_)
                  00025ec2    0000001c     ExtendedKalman.obj (.text:_ZN5Eigen8internal41assign_DefaultTraversal_CompleteUnrollingINS_6MatrixIfLi7ELi7ELi0ELi7ELi7EEENS_14CwiseNullaryOpINS0_18scalar_identity_opIfEES3_EELi15ELi49EE3runERS3_RKS7_)
                  00025ede    0000001c     ExtendedKalman.obj (.text:_ZN5Eigen8internal41assign_DefaultTraversal_CompleteUnrollingINS_6MatrixIfLi7ELi7ELi0ELi7ELi7EEENS_14CwiseNullaryOpINS0_18scalar_identity_opIfEES3_EELi16ELi49EE3runERS3_RKS7_)
                  00025efa    0000001c     ExtendedKalman.obj (.text:_ZN5Eigen8internal41assign_DefaultTraversal_CompleteUnrollingINS_6MatrixIfLi7ELi7ELi0ELi7ELi7EEENS_14CwiseNullaryOpINS0_18scalar_identity_opIfEES3_EELi17ELi49EE3runERS3_RKS7_)
                  00025f16    0000001c     ExtendedKalman.obj (.text:_ZN5Eigen8internal41assign_DefaultTraversal_CompleteUnrollingINS_6MatrixIfLi7ELi7ELi0ELi7ELi7EEENS_14CwiseNullaryOpINS0_18scalar_identity_opIfEES3_EELi18ELi49EE3runERS3_RKS7_)
                  00025f32    0000001c     ExtendedKalman.obj (.text:_ZN5Eigen8internal41assign_DefaultTraversal_CompleteUnrollingINS_6MatrixIfLi7ELi7ELi0ELi7ELi7EEENS_14CwiseNullaryOpINS0_18scalar_identity_opIfEES3_EELi19ELi49EE3runERS3_RKS7_)
                  00025f4e    0000001c     ExtendedKalman.obj (.text:_ZN5Eigen8internal41assign_DefaultTraversal_CompleteUnrollingINS_6MatrixIfLi7ELi7ELi0ELi7ELi7EEENS_14CwiseNullaryOpINS0_18scalar_identity_opIfEES3_EELi1ELi49EE3runERS3_RKS7_)
                  00025f6a    0000001c     ExtendedKalman.obj (.text:_ZN5Eigen8internal41assign_DefaultTraversal_CompleteUnrollingINS_6MatrixIfLi7ELi7ELi0ELi7ELi7EEENS_14CwiseNullaryOpINS0_18scalar_identity_opIfEES3_EELi20ELi49EE3runERS3_RKS7_)
                  00025f86    0000001c     ExtendedKalman.obj (.text:_ZN5Eigen8internal41assign_DefaultTraversal_CompleteUnrollingINS_6MatrixIfLi7ELi7ELi0ELi7ELi7EEENS_14CwiseNullaryOpINS0_18scalar_identity_opIfEES3_EELi21ELi49EE3runERS3_RKS7_)
                  00025fa2    0000001c     ExtendedKalman.obj (.text:_ZN5Eigen8internal41assign_DefaultTraversal_CompleteUnrollingINS_6MatrixIfLi7ELi7ELi0ELi7ELi7EEENS_14CwiseNullaryOpINS0_18scalar_identity_opIfEES3_EELi22ELi49EE3runERS3_RKS7_)
                  00025fbe    0000001c     ExtendedKalman.obj (.text:_ZN5Eigen8internal41assign_DefaultTraversal_CompleteUnrollingINS_6MatrixIfLi7ELi7ELi0ELi7ELi7EEENS_14CwiseNullaryOpINS0_18scalar_identity_opIfEES3_EELi23ELi49EE3runERS3_RKS7_)
                  00025fda    0000001c     ExtendedKalman.obj (.text:_ZN5Eigen8internal41assign_DefaultTraversal_CompleteUnrollingINS_6MatrixIfLi7ELi7ELi0ELi7ELi7EEENS_14CwiseNullaryOpINS0_18scalar_identity_opIfEES3_EELi24ELi49EE3runERS3_RKS7_)
                  00025ff6    0000001c     ExtendedKalman.obj (.text:_ZN5Eigen8internal41assign_DefaultTraversal_CompleteUnrollingINS_6MatrixIfLi7ELi7ELi0ELi7ELi7EEENS_14CwiseNullaryOpINS0_18scalar_identity_opIfEES3_EELi25ELi49EE3runERS3_RKS7_)
                  00026012    0000001c     ExtendedKalman.obj (.text:_ZN5Eigen8internal41assign_DefaultTraversal_CompleteUnrollingINS_6MatrixIfLi7ELi7ELi0ELi7ELi7EEENS_14CwiseNullaryOpINS0_18scalar_identity_opIfEES3_EELi26ELi49EE3runERS3_RKS7_)
                  0002602e    0000001c     ExtendedKalman.obj (.text:_ZN5Eigen8internal41assign_DefaultTraversal_CompleteUnrollingINS_6MatrixIfLi7ELi7ELi0ELi7ELi7EEENS_14CwiseNullaryOpINS0_18scalar_identity_opIfEES3_EELi27ELi49EE3runERS3_RKS7_)
                  0002604a    0000001c     ExtendedKalman.obj (.text:_ZN5Eigen8internal41assign_DefaultTraversal_CompleteUnrollingINS_6MatrixIfLi7ELi7ELi0ELi7ELi7EEENS_14CwiseNullaryOpINS0_18scalar_identity_opIfEES3_EELi28ELi49EE3runERS3_RKS7_)
                  00026066    0000001c     ExtendedKalman.obj (.text:_ZN5Eigen8internal41assign_DefaultTraversal_CompleteUnrollingINS_6MatrixIfLi7ELi7ELi0ELi7ELi7EEENS_14CwiseNullaryOpINS0_18scalar_identity_opIfEES3_EELi29ELi49EE3runERS3_RKS7_)
                  00026082    0000001c     ExtendedKalman.obj (.text:_ZN5Eigen8internal41assign_DefaultTraversal_CompleteUnrollingINS_6MatrixIfLi7ELi7ELi0ELi7ELi7EEENS_14CwiseNullaryOpINS0_18scalar_identity_opIfEES3_EELi2ELi49EE3runERS3_RKS7_)
                  0002609e    0000001c     ExtendedKalman.obj (.text:_ZN5Eigen8internal41assign_DefaultTraversal_CompleteUnrollingINS_6MatrixIfLi7ELi7ELi0ELi7ELi7EEENS_14CwiseNullaryOpINS0_18scalar_identity_opIfEES3_EELi30ELi49EE3runERS3_RKS7_)
                  000260ba    0000001c     ExtendedKalman.obj (.text:_ZN5Eigen8internal41assign_DefaultTraversal_CompleteUnrollingINS_6MatrixIfLi7ELi7ELi0ELi7ELi7EEENS_14CwiseNullaryOpINS0_18scalar_identity_opIfEES3_EELi31ELi49EE3runERS3_RKS7_)
                  000260d6    0000001c     ExtendedKalman.obj (.text:_ZN5Eigen8internal41assign_DefaultTraversal_CompleteUnrollingINS_6MatrixIfLi7ELi7ELi0ELi7ELi7EEENS_14CwiseNullaryOpINS0_18scalar_identity_opIfEES3_EELi32ELi49EE3runERS3_RKS7_)
                  000260f2    0000001c     ExtendedKalman.obj (.text:_ZN5Eigen8internal41assign_DefaultTraversal_CompleteUnrollingINS_6MatrixIfLi7ELi7ELi0ELi7ELi7EEENS_14CwiseNullaryOpINS0_18scalar_identity_opIfEES3_EELi33ELi49EE3runERS3_RKS7_)
                  0002610e    0000001c     ExtendedKalman.obj (.text:_ZN5Eigen8internal41assign_DefaultTraversal_CompleteUnrollingINS_6MatrixIfLi7ELi7ELi0ELi7ELi7EEENS_14CwiseNullaryOpINS0_18scalar_identity_opIfEES3_EELi34ELi49EE3runERS3_RKS7_)
                  0002612a    0000001c     ExtendedKalman.obj (.text:_ZN5Eigen8internal41assign_DefaultTraversal_CompleteUnrollingINS_6MatrixIfLi7ELi7ELi0ELi7ELi7EEENS_14CwiseNullaryOpINS0_18scalar_identity_opIfEES3_EELi35ELi49EE3runERS3_RKS7_)
                  00026146    0000001c     ExtendedKalman.obj (.text:_ZN5Eigen8internal41assign_DefaultTraversal_CompleteUnrollingINS_6MatrixIfLi7ELi7ELi0ELi7ELi7EEENS_14CwiseNullaryOpINS0_18scalar_identity_opIfEES3_EELi36ELi49EE3runERS3_RKS7_)
                  00026162    0000001c     ExtendedKalman.obj (.text:_ZN5Eigen8internal41assign_DefaultTraversal_CompleteUnrollingINS_6MatrixIfLi7ELi7ELi0ELi7ELi7EEENS_14CwiseNullaryOpINS0_18scalar_identity_opIfEES3_EELi37ELi49EE3runERS3_RKS7_)
                  0002617e    0000001c     ExtendedKalman.obj (.text:_ZN5Eigen8internal41assign_DefaultTraversal_CompleteUnrollingINS_6MatrixIfLi7ELi7ELi0ELi7ELi7EEENS_14CwiseNullaryOpINS0_18scalar_identity_opIfEES3_EELi38ELi49EE3runERS3_RKS7_)
                  0002619a    0000001c     ExtendedKalman.obj (.text:_ZN5Eigen8internal41assign_DefaultTraversal_CompleteUnrollingINS_6MatrixIfLi7ELi7ELi0ELi7ELi7EEENS_14CwiseNullaryOpINS0_18scalar_identity_opIfEES3_EELi39ELi49EE3runERS3_RKS7_)
                  000261b6    0000001c     ExtendedKalman.obj (.text:_ZN5Eigen8internal41assign_DefaultTraversal_CompleteUnrollingINS_6MatrixIfLi7ELi7ELi0ELi7ELi7EEENS_14CwiseNullaryOpINS0_18scalar_identity_opIfEES3_EELi3ELi49EE3runERS3_RKS7_)
                  000261d2    0000001c     ExtendedKalman.obj (.text:_ZN5Eigen8internal41assign_DefaultTraversal_CompleteUnrollingINS_6MatrixIfLi7ELi7ELi0ELi7ELi7EEENS_14CwiseNullaryOpINS0_18scalar_identity_opIfEES3_EELi40ELi49EE3runERS3_RKS7_)
                  000261ee    0000001c     ExtendedKalman.obj (.text:_ZN5Eigen8internal41assign_DefaultTraversal_CompleteUnrollingINS_6MatrixIfLi7ELi7ELi0ELi7ELi7EEENS_14CwiseNullaryOpINS0_18scalar_identity_opIfEES3_EELi41ELi49EE3runERS3_RKS7_)
                  0002620a    0000001c     ExtendedKalman.obj (.text:_ZN5Eigen8internal41assign_DefaultTraversal_CompleteUnrollingINS_6MatrixIfLi7ELi7ELi0ELi7ELi7EEENS_14CwiseNullaryOpINS0_18scalar_identity_opIfEES3_EELi42ELi49EE3runERS3_RKS7_)
                  00026226    0000001c     ExtendedKalman.obj (.text:_ZN5Eigen8internal41assign_DefaultTraversal_CompleteUnrollingINS_6MatrixIfLi7ELi7ELi0ELi7ELi7EEENS_14CwiseNullaryOpINS0_18scalar_identity_opIfEES3_EELi43ELi49EE3runERS3_RKS7_)
                  00026242    0000001c     ExtendedKalman.obj (.text:_ZN5Eigen8internal41assign_DefaultTraversal_CompleteUnrollingINS_6MatrixIfLi7ELi7ELi0ELi7ELi7EEENS_14CwiseNullaryOpINS0_18scalar_identity_opIfEES3_EELi44ELi49EE3runERS3_RKS7_)
                  0002625e    0000001c     ExtendedKalman.obj (.text:_ZN5Eigen8internal41assign_DefaultTraversal_CompleteUnrollingINS_6MatrixIfLi7ELi7ELi0ELi7ELi7EEENS_14CwiseNullaryOpINS0_18scalar_identity_opIfEES3_EELi45ELi49EE3runERS3_RKS7_)
                  0002627a    0000001c     ExtendedKalman.obj (.text:_ZN5Eigen8internal41assign_DefaultTraversal_CompleteUnrollingINS_6MatrixIfLi7ELi7ELi0ELi7ELi7EEENS_14CwiseNullaryOpINS0_18scalar_identity_opIfEES3_EELi46ELi49EE3runERS3_RKS7_)
                  00026296    0000001c     ExtendedKalman.obj (.text:_ZN5Eigen8internal41assign_DefaultTraversal_CompleteUnrollingINS_6MatrixIfLi7ELi7ELi0ELi7ELi7EEENS_14CwiseNullaryOpINS0_18scalar_identity_opIfEES3_EELi47ELi49EE3runERS3_RKS7_)
                  000262b2    0000001c     ExtendedKalman.obj (.text:_ZN5Eigen8internal41assign_DefaultTraversal_CompleteUnrollingINS_6MatrixIfLi7ELi7ELi0ELi7ELi7EEENS_14CwiseNullaryOpINS0_18scalar_identity_opIfEES3_EELi48ELi49EE3runERS3_RKS7_)
                  000262ce    0000001c     ExtendedKalman.obj (.text:_ZN5Eigen8internal41assign_DefaultTraversal_CompleteUnrollingINS_6MatrixIfLi7ELi7ELi0ELi7ELi7EEENS_14CwiseNullaryOpINS0_18scalar_identity_opIfEES3_EELi4ELi49EE3runERS3_RKS7_)
                  000262ea    0000001c     ExtendedKalman.obj (.text:_ZN5Eigen8internal41assign_DefaultTraversal_CompleteUnrollingINS_6MatrixIfLi7ELi7ELi0ELi7ELi7EEENS_14CwiseNullaryOpINS0_18scalar_identity_opIfEES3_EELi5ELi49EE3runERS3_RKS7_)
                  00026306    0000001c     ExtendedKalman.obj (.text:_ZN5Eigen8internal41assign_DefaultTraversal_CompleteUnrollingINS_6MatrixIfLi7ELi7ELi0ELi7ELi7EEENS_14CwiseNullaryOpINS0_18scalar_identity_opIfEES3_EELi6ELi49EE3runERS3_RKS7_)
                  00026322    0000001c     ExtendedKalman.obj (.text:_ZN5Eigen8internal41assign_DefaultTraversal_CompleteUnrollingINS_6MatrixIfLi7ELi7ELi0ELi7ELi7EEENS_14CwiseNullaryOpINS0_18scalar_identity_opIfEES3_EELi7ELi49EE3runERS3_RKS7_)
                  0002633e    0000001c     ExtendedKalman.obj (.text:_ZN5Eigen8internal41assign_DefaultTraversal_CompleteUnrollingINS_6MatrixIfLi7ELi7ELi0ELi7ELi7EEENS_14CwiseNullaryOpINS0_18scalar_identity_opIfEES3_EELi8ELi49EE3runERS3_RKS7_)
                  0002635a    0000001c     ExtendedKalman.obj (.text:_ZN5Eigen8internal41assign_DefaultTraversal_CompleteUnrollingINS_6MatrixIfLi7ELi7ELi0ELi7ELi7EEENS_14CwiseNullaryOpINS0_18scalar_identity_opIfEES3_EELi9ELi49EE3runERS3_RKS7_)
                  00026376    0000001c     ExtendedKalman.obj (.text:_ZN5Eigen9DenseBaseINS_6MatrixIfLi3ELi1ELi0ELi3ELi1EEEE8ConstantERKf)
                  00026392    0000001c     ExtendedKalman.obj (.text:_ZN5Eigen9DenseBaseINS_6MatrixIfLi3ELi3ELi0ELi3ELi3EEEE8ConstantERKf)
                  000263ae    0000001c     ExtendedKalman.obj (.text:_ZN5Eigen9DenseBaseINS_6MatrixIfLi3ELi7ELi0ELi3ELi7EEEE8ConstantERKf)
                  000263ca    0000001c     ExtendedKalman.obj (.text:_ZN5Eigen9DenseBaseINS_6MatrixIfLi7ELi1ELi0ELi7ELi1EEEE8ConstantERKf)
                  000263e6    0000001c     ExtendedKalman.obj (.text:_ZN5Eigen9DenseBaseINS_6MatrixIfLi7ELi3ELi0ELi7ELi3EEEE8ConstantERKf)
                  00026402    0000001c     ExtendedKalman.obj (.text:_ZN5Eigen9DenseBaseINS_6MatrixIfLi7ELi7ELi0ELi7ELi7EEEE8ConstantERKf)
                  0002641e    0000001c     ExtendedKalman.obj (.text:_ZNK5Eigen13TransposeImplINS_6MatrixIfLi3ELi7ELi0ELi3ELi7EEENS_5DenseEE5coeffEii)
                  0002643a    0000001c     ExtendedKalman.obj (.text:_ZNK5Eigen13TransposeImplINS_6MatrixIfLi7ELi7ELi0ELi7ELi7EEENS_5DenseEE5coeffEii)
                  00026456    0000001c     ExtendedKalman.obj (.text:_ZNK5Eigen8internal18scalar_multiple_opIfEclERKf)
                  00026472    0000001c     PID.obj (.text:_ZNKSs6_MyptrEv)
                  0002648e    0000001c     PID.obj (.text:_ZNKSs8max_sizeEv)
                  000264aa    00000002     --HOLE-- [fill = 0]
                  000264ac    0000001c     PID.obj (.text:_ZNKSt8_Locinfo7_GetcvtEv)
                  000264c8    0000001c     PID.obj (.text:_ZNSs6_MyptrEv)
                  000264e4    0000001c     PID.obj (.text:_ZNSs6assignERKSs)
                  00026500    0000001c     PID.obj (.text:_ZNSt10ctype_baseC1Ej)
                  0002651c    0000001c     PID.obj (.text:_ZNSt11char_traitsIcE11eq_int_typeERKiS2_)
                  00026538    0000001c     EigenTest.obj (.text:_ZNSt11char_traitsIcE2eqERKcS2_)
                  00026554    0000001c     rtsv7M4_T_le_v4SPD16_eabi.lib : wiostrea.obj (.text:_ZNSt5ctypeIwED1Ev)
                  00026570    0000001c                                   : xlocale.obj (.text:_ZNSt8time_getIcSt19istreambuf_iteratorIcSt11char_traitsIcEEED1Ev)
                  0002658c    0000001c                                   : wlocale.obj (.text:_ZNSt8time_getIwSt19istreambuf_iteratorIwSt11char_traitsIwEEED1Ev)
                  000265a8    0000001c                                   : wiostrea.obj (.text:_ZTv0_n12_NSt13basic_istreamIwSt11char_traitsIwEED0Ev)
                  000265c4    0000001c                                   : memccpy.obj (.text)
                  000265e0    0000001a     driverlib.lib : ssi.obj (.text:SSIDataPut)
                  000265fa    0000001a     EigenTest.obj (.text:_ZN5Eigen12DenseStorageIdLin1ELin1ELin1ELi0EED1Ev)
                  00026614    0000001a     ExtendedKalman.obj (.text:_ZN5Eigen12DenseStorageIfLi21ELi7ELi3ELi0EEC1Eiii)
                  0002662e    0000001a     ExtendedKalman.obj (.text:_ZN5Eigen12DenseStorageIfLi49ELi7ELi7ELi0EEC1Eiii)
                  00026648    0000001a     ExtendedKalman.obj (.text:_ZN5Eigen12DenseStorageIfLi49ELi7ELi7ELi1EEC1Eiii)
                  00026662    0000001a     ExtendedKalman.obj (.text:_ZN5Eigen12DenseStorageIfLi7ELi7ELi1ELi0EEC1Eiii)
                  0002667c    0000001a     ExtendedKalman.obj (.text:_ZN5Eigen12DenseStorageIfLi9ELi3ELi3ELi1EEC1Eiii)
                  00026696    0000001a     ExtendedKalman.obj (.text:_ZN5Eigen7MapBaseINS_5BlockINS_6MatrixIfLi3ELi3ELi0ELi3ELi3EEELi1ELi3ELb0EEELi1EE8coeffRefEi)
                  000266b0    0000001a     EigenTest.obj (.text:_ZN5Eigen8internal28conditional_aligned_new_autoIdLb1EEEPT_j)
                  000266ca    0000001a     ExtendedKalman.obj (.text:_ZN5Eigen8internal40assign_LinearTraversal_CompleteUnrollingINS_17SelfCwiseBinaryOpINS0_17scalar_product_opIffEENS_6MatrixIfLi7ELi7ELi0ELi7ELi7EEENS_14CwiseNullaryOpINS0_18scalar_constant_opIfEES6_EEEESA_Li0ELi49EE3runERSB_RKSA_)
                  000266e4    0000001a     ExtendedKalman.obj (.text:_ZN5Eigen8internal40assign_LinearTraversal_CompleteUnrollingINS_17SelfCwiseBinaryOpINS0_17scalar_product_opIffEENS_6MatrixIfLi7ELi7ELi0ELi7ELi7EEENS_14CwiseNullaryOpINS0_18scalar_constant_opIfEES6_EEEESA_Li10ELi49EE3runERSB_RKSA_)
                  000266fe    0000001a     ExtendedKalman.obj (.text:_ZN5Eigen8internal40assign_LinearTraversal_CompleteUnrollingINS_17SelfCwiseBinaryOpINS0_17scalar_product_opIffEENS_6MatrixIfLi7ELi7ELi0ELi7ELi7EEENS_14CwiseNullaryOpINS0_18scalar_constant_opIfEES6_EEEESA_Li11ELi49EE3runERSB_RKSA_)
                  00026718    0000001a     ExtendedKalman.obj (.text:_ZN5Eigen8internal40assign_LinearTraversal_CompleteUnrollingINS_17SelfCwiseBinaryOpINS0_17scalar_product_opIffEENS_6MatrixIfLi7ELi7ELi0ELi7ELi7EEENS_14CwiseNullaryOpINS0_18scalar_constant_opIfEES6_EEEESA_Li12ELi49EE3runERSB_RKSA_)
                  00026732    0000001a     ExtendedKalman.obj (.text:_ZN5Eigen8internal40assign_LinearTraversal_CompleteUnrollingINS_17SelfCwiseBinaryOpINS0_17scalar_product_opIffEENS_6MatrixIfLi7ELi7ELi0ELi7ELi7EEENS_14CwiseNullaryOpINS0_18scalar_constant_opIfEES6_EEEESA_Li13ELi49EE3runERSB_RKSA_)
                  0002674c    0000001a     ExtendedKalman.obj (.text:_ZN5Eigen8internal40assign_LinearTraversal_CompleteUnrollingINS_17SelfCwiseBinaryOpINS0_17scalar_product_opIffEENS_6MatrixIfLi7ELi7ELi0ELi7ELi7EEENS_14CwiseNullaryOpINS0_18scalar_constant_opIfEES6_EEEESA_Li14ELi49EE3runERSB_RKSA_)
                  00026766    0000001a     ExtendedKalman.obj (.text:_ZN5Eigen8internal40assign_LinearTraversal_CompleteUnrollingINS_17SelfCwiseBinaryOpINS0_17scalar_product_opIffEENS_6MatrixIfLi7ELi7ELi0ELi7ELi7EEENS_14CwiseNullaryOpINS0_18scalar_constant_opIfEES6_EEEESA_Li15ELi49EE3runERSB_RKSA_)
                  00026780    0000001a     ExtendedKalman.obj (.text:_ZN5Eigen8internal40assign_LinearTraversal_CompleteUnrollingINS_17SelfCwiseBinaryOpINS0_17scalar_product_opIffEENS_6MatrixIfLi7ELi7ELi0ELi7ELi7EEENS_14CwiseNullaryOpINS0_18scalar_constant_opIfEES6_EEEESA_Li16ELi49EE3runERSB_RKSA_)
                  0002679a    0000001a     ExtendedKalman.obj (.text:_ZN5Eigen8internal40assign_LinearTraversal_CompleteUnrollingINS_17SelfCwiseBinaryOpINS0_17scalar_product_opIffEENS_6MatrixIfLi7ELi7ELi0ELi7ELi7EEENS_14CwiseNullaryOpINS0_18scalar_constant_opIfEES6_EEEESA_Li17ELi49EE3runERSB_RKSA_)
                  000267b4    0000001a     ExtendedKalman.obj (.text:_ZN5Eigen8internal40assign_LinearTraversal_CompleteUnrollingINS_17SelfCwiseBinaryOpINS0_17scalar_product_opIffEENS_6MatrixIfLi7ELi7ELi0ELi7ELi7EEENS_14CwiseNullaryOpINS0_18scalar_constant_opIfEES6_EEEESA_Li18ELi49EE3runERSB_RKSA_)
                  000267ce    0000001a     ExtendedKalman.obj (.text:_ZN5Eigen8internal40assign_LinearTraversal_CompleteUnrollingINS_17SelfCwiseBinaryOpINS0_17scalar_product_opIffEENS_6MatrixIfLi7ELi7ELi0ELi7ELi7EEENS_14CwiseNullaryOpINS0_18scalar_constant_opIfEES6_EEEESA_Li19ELi49EE3runERSB_RKSA_)
                  000267e8    0000001a     ExtendedKalman.obj (.text:_ZN5Eigen8internal40assign_LinearTraversal_CompleteUnrollingINS_17SelfCwiseBinaryOpINS0_17scalar_product_opIffEENS_6MatrixIfLi7ELi7ELi0ELi7ELi7EEENS_14CwiseNullaryOpINS0_18scalar_constant_opIfEES6_EEEESA_Li1ELi49EE3runERSB_RKSA_)
                  00026802    0000001a     ExtendedKalman.obj (.text:_ZN5Eigen8internal40assign_LinearTraversal_CompleteUnrollingINS_17SelfCwiseBinaryOpINS0_17scalar_product_opIffEENS_6MatrixIfLi7ELi7ELi0ELi7ELi7EEENS_14CwiseNullaryOpINS0_18scalar_constant_opIfEES6_EEEESA_Li20ELi49EE3runERSB_RKSA_)
                  0002681c    0000001a     ExtendedKalman.obj (.text:_ZN5Eigen8internal40assign_LinearTraversal_CompleteUnrollingINS_17SelfCwiseBinaryOpINS0_17scalar_product_opIffEENS_6MatrixIfLi7ELi7ELi0ELi7ELi7EEENS_14CwiseNullaryOpINS0_18scalar_constant_opIfEES6_EEEESA_Li21ELi49EE3runERSB_RKSA_)
                  00026836    0000001a     ExtendedKalman.obj (.text:_ZN5Eigen8internal40assign_LinearTraversal_CompleteUnrollingINS_17SelfCwiseBinaryOpINS0_17scalar_product_opIffEENS_6MatrixIfLi7ELi7ELi0ELi7ELi7EEENS_14CwiseNullaryOpINS0_18scalar_constant_opIfEES6_EEEESA_Li22ELi49EE3runERSB_RKSA_)
                  00026850    0000001a     ExtendedKalman.obj (.text:_ZN5Eigen8internal40assign_LinearTraversal_CompleteUnrollingINS_17SelfCwiseBinaryOpINS0_17scalar_product_opIffEENS_6MatrixIfLi7ELi7ELi0ELi7ELi7EEENS_14CwiseNullaryOpINS0_18scalar_constant_opIfEES6_EEEESA_Li23ELi49EE3runERSB_RKSA_)
                  0002686a    0000001a     ExtendedKalman.obj (.text:_ZN5Eigen8internal40assign_LinearTraversal_CompleteUnrollingINS_17SelfCwiseBinaryOpINS0_17scalar_product_opIffEENS_6MatrixIfLi7ELi7ELi0ELi7ELi7EEENS_14CwiseNullaryOpINS0_18scalar_constant_opIfEES6_EEEESA_Li24ELi49EE3runERSB_RKSA_)
                  00026884    0000001a     ExtendedKalman.obj (.text:_ZN5Eigen8internal40assign_LinearTraversal_CompleteUnrollingINS_17SelfCwiseBinaryOpINS0_17scalar_product_opIffEENS_6MatrixIfLi7ELi7ELi0ELi7ELi7EEENS_14CwiseNullaryOpINS0_18scalar_constant_opIfEES6_EEEESA_Li25ELi49EE3runERSB_RKSA_)
                  0002689e    0000001a     ExtendedKalman.obj (.text:_ZN5Eigen8internal40assign_LinearTraversal_CompleteUnrollingINS_17SelfCwiseBinaryOpINS0_17scalar_product_opIffEENS_6MatrixIfLi7ELi7ELi0ELi7ELi7EEENS_14CwiseNullaryOpINS0_18scalar_constant_opIfEES6_EEEESA_Li26ELi49EE3runERSB_RKSA_)
                  000268b8    0000001a     ExtendedKalman.obj (.text:_ZN5Eigen8internal40assign_LinearTraversal_CompleteUnrollingINS_17SelfCwiseBinaryOpINS0_17scalar_product_opIffEENS_6MatrixIfLi7ELi7ELi0ELi7ELi7EEENS_14CwiseNullaryOpINS0_18scalar_constant_opIfEES6_EEEESA_Li27ELi49EE3runERSB_RKSA_)
                  000268d2    0000001a     ExtendedKalman.obj (.text:_ZN5Eigen8internal40assign_LinearTraversal_CompleteUnrollingINS_17SelfCwiseBinaryOpINS0_17scalar_product_opIffEENS_6MatrixIfLi7ELi7ELi0ELi7ELi7EEENS_14CwiseNullaryOpINS0_18scalar_constant_opIfEES6_EEEESA_Li28ELi49EE3runERSB_RKSA_)
                  000268ec    0000001a     ExtendedKalman.obj (.text:_ZN5Eigen8internal40assign_LinearTraversal_CompleteUnrollingINS_17SelfCwiseBinaryOpINS0_17scalar_product_opIffEENS_6MatrixIfLi7ELi7ELi0ELi7ELi7EEENS_14CwiseNullaryOpINS0_18scalar_constant_opIfEES6_EEEESA_Li29ELi49EE3runERSB_RKSA_)
                  00026906    0000001a     ExtendedKalman.obj (.text:_ZN5Eigen8internal40assign_LinearTraversal_CompleteUnrollingINS_17SelfCwiseBinaryOpINS0_17scalar_product_opIffEENS_6MatrixIfLi7ELi7ELi0ELi7ELi7EEENS_14CwiseNullaryOpINS0_18scalar_constant_opIfEES6_EEEESA_Li2ELi49EE3runERSB_RKSA_)
                  00026920    0000001a     ExtendedKalman.obj (.text:_ZN5Eigen8internal40assign_LinearTraversal_CompleteUnrollingINS_17SelfCwiseBinaryOpINS0_17scalar_product_opIffEENS_6MatrixIfLi7ELi7ELi0ELi7ELi7EEENS_14CwiseNullaryOpINS0_18scalar_constant_opIfEES6_EEEESA_Li30ELi49EE3runERSB_RKSA_)
                  0002693a    0000001a     ExtendedKalman.obj (.text:_ZN5Eigen8internal40assign_LinearTraversal_CompleteUnrollingINS_17SelfCwiseBinaryOpINS0_17scalar_product_opIffEENS_6MatrixIfLi7ELi7ELi0ELi7ELi7EEENS_14CwiseNullaryOpINS0_18scalar_constant_opIfEES6_EEEESA_Li31ELi49EE3runERSB_RKSA_)
                  00026954    0000001a     ExtendedKalman.obj (.text:_ZN5Eigen8internal40assign_LinearTraversal_CompleteUnrollingINS_17SelfCwiseBinaryOpINS0_17scalar_product_opIffEENS_6MatrixIfLi7ELi7ELi0ELi7ELi7EEENS_14CwiseNullaryOpINS0_18scalar_constant_opIfEES6_EEEESA_Li32ELi49EE3runERSB_RKSA_)
                  0002696e    0000001a     ExtendedKalman.obj (.text:_ZN5Eigen8internal40assign_LinearTraversal_CompleteUnrollingINS_17SelfCwiseBinaryOpINS0_17scalar_product_opIffEENS_6MatrixIfLi7ELi7ELi0ELi7ELi7EEENS_14CwiseNullaryOpINS0_18scalar_constant_opIfEES6_EEEESA_Li33ELi49EE3runERSB_RKSA_)
                  00026988    0000001a     ExtendedKalman.obj (.text:_ZN5Eigen8internal40assign_LinearTraversal_CompleteUnrollingINS_17SelfCwiseBinaryOpINS0_17scalar_product_opIffEENS_6MatrixIfLi7ELi7ELi0ELi7ELi7EEENS_14CwiseNullaryOpINS0_18scalar_constant_opIfEES6_EEEESA_Li34ELi49EE3runERSB_RKSA_)
                  000269a2    0000001a     ExtendedKalman.obj (.text:_ZN5Eigen8internal40assign_LinearTraversal_CompleteUnrollingINS_17SelfCwiseBinaryOpINS0_17scalar_product_opIffEENS_6MatrixIfLi7ELi7ELi0ELi7ELi7EEENS_14CwiseNullaryOpINS0_18scalar_constant_opIfEES6_EEEESA_Li35ELi49EE3runERSB_RKSA_)
                  000269bc    0000001a     ExtendedKalman.obj (.text:_ZN5Eigen8internal40assign_LinearTraversal_CompleteUnrollingINS_17SelfCwiseBinaryOpINS0_17scalar_product_opIffEENS_6MatrixIfLi7ELi7ELi0ELi7ELi7EEENS_14CwiseNullaryOpINS0_18scalar_constant_opIfEES6_EEEESA_Li36ELi49EE3runERSB_RKSA_)
                  000269d6    0000001a     ExtendedKalman.obj (.text:_ZN5Eigen8internal40assign_LinearTraversal_CompleteUnrollingINS_17SelfCwiseBinaryOpINS0_17scalar_product_opIffEENS_6MatrixIfLi7ELi7ELi0ELi7ELi7EEENS_14CwiseNullaryOpINS0_18scalar_constant_opIfEES6_EEEESA_Li37ELi49EE3runERSB_RKSA_)
                  000269f0    0000001a     ExtendedKalman.obj (.text:_ZN5Eigen8internal40assign_LinearTraversal_CompleteUnrollingINS_17SelfCwiseBinaryOpINS0_17scalar_product_opIffEENS_6MatrixIfLi7ELi7ELi0ELi7ELi7EEENS_14CwiseNullaryOpINS0_18scalar_constant_opIfEES6_EEEESA_Li38ELi49EE3runERSB_RKSA_)
                  00026a0a    0000001a     ExtendedKalman.obj (.text:_ZN5Eigen8internal40assign_LinearTraversal_CompleteUnrollingINS_17SelfCwiseBinaryOpINS0_17scalar_product_opIffEENS_6MatrixIfLi7ELi7ELi0ELi7ELi7EEENS_14CwiseNullaryOpINS0_18scalar_constant_opIfEES6_EEEESA_Li39ELi49EE3runERSB_RKSA_)
                  00026a24    0000001a     ExtendedKalman.obj (.text:_ZN5Eigen8internal40assign_LinearTraversal_CompleteUnrollingINS_17SelfCwiseBinaryOpINS0_17scalar_product_opIffEENS_6MatrixIfLi7ELi7ELi0ELi7ELi7EEENS_14CwiseNullaryOpINS0_18scalar_constant_opIfEES6_EEEESA_Li3ELi49EE3runERSB_RKSA_)
                  00026a3e    0000001a     ExtendedKalman.obj (.text:_ZN5Eigen8internal40assign_LinearTraversal_CompleteUnrollingINS_17SelfCwiseBinaryOpINS0_17scalar_product_opIffEENS_6MatrixIfLi7ELi7ELi0ELi7ELi7EEENS_14CwiseNullaryOpINS0_18scalar_constant_opIfEES6_EEEESA_Li40ELi49EE3runERSB_RKSA_)
                  00026a58    0000001a     ExtendedKalman.obj (.text:_ZN5Eigen8internal40assign_LinearTraversal_CompleteUnrollingINS_17SelfCwiseBinaryOpINS0_17scalar_product_opIffEENS_6MatrixIfLi7ELi7ELi0ELi7ELi7EEENS_14CwiseNullaryOpINS0_18scalar_constant_opIfEES6_EEEESA_Li41ELi49EE3runERSB_RKSA_)
                  00026a72    0000001a     ExtendedKalman.obj (.text:_ZN5Eigen8internal40assign_LinearTraversal_CompleteUnrollingINS_17SelfCwiseBinaryOpINS0_17scalar_product_opIffEENS_6MatrixIfLi7ELi7ELi0ELi7ELi7EEENS_14CwiseNullaryOpINS0_18scalar_constant_opIfEES6_EEEESA_Li42ELi49EE3runERSB_RKSA_)
                  00026a8c    0000001a     ExtendedKalman.obj (.text:_ZN5Eigen8internal40assign_LinearTraversal_CompleteUnrollingINS_17SelfCwiseBinaryOpINS0_17scalar_product_opIffEENS_6MatrixIfLi7ELi7ELi0ELi7ELi7EEENS_14CwiseNullaryOpINS0_18scalar_constant_opIfEES6_EEEESA_Li43ELi49EE3runERSB_RKSA_)
                  00026aa6    0000001a     ExtendedKalman.obj (.text:_ZN5Eigen8internal40assign_LinearTraversal_CompleteUnrollingINS_17SelfCwiseBinaryOpINS0_17scalar_product_opIffEENS_6MatrixIfLi7ELi7ELi0ELi7ELi7EEENS_14CwiseNullaryOpINS0_18scalar_constant_opIfEES6_EEEESA_Li44ELi49EE3runERSB_RKSA_)
                  00026ac0    0000001a     ExtendedKalman.obj (.text:_ZN5Eigen8internal40assign_LinearTraversal_CompleteUnrollingINS_17SelfCwiseBinaryOpINS0_17scalar_product_opIffEENS_6MatrixIfLi7ELi7ELi0ELi7ELi7EEENS_14CwiseNullaryOpINS0_18scalar_constant_opIfEES6_EEEESA_Li45ELi49EE3runERSB_RKSA_)
                  00026ada    0000001a     ExtendedKalman.obj (.text:_ZN5Eigen8internal40assign_LinearTraversal_CompleteUnrollingINS_17SelfCwiseBinaryOpINS0_17scalar_product_opIffEENS_6MatrixIfLi7ELi7ELi0ELi7ELi7EEENS_14CwiseNullaryOpINS0_18scalar_constant_opIfEES6_EEEESA_Li46ELi49EE3runERSB_RKSA_)
                  00026af4    0000001a     ExtendedKalman.obj (.text:_ZN5Eigen8internal40assign_LinearTraversal_CompleteUnrollingINS_17SelfCwiseBinaryOpINS0_17scalar_product_opIffEENS_6MatrixIfLi7ELi7ELi0ELi7ELi7EEENS_14CwiseNullaryOpINS0_18scalar_constant_opIfEES6_EEEESA_Li47ELi49EE3runERSB_RKSA_)
                  00026b0e    0000001a     ExtendedKalman.obj (.text:_ZN5Eigen8internal40assign_LinearTraversal_CompleteUnrollingINS_17SelfCwiseBinaryOpINS0_17scalar_product_opIffEENS_6MatrixIfLi7ELi7ELi0ELi7ELi7EEENS_14CwiseNullaryOpINS0_18scalar_constant_opIfEES6_EEEESA_Li48ELi49EE3runERSB_RKSA_)
                  00026b28    0000001a     ExtendedKalman.obj (.text:_ZN5Eigen8internal40assign_LinearTraversal_CompleteUnrollingINS_17SelfCwiseBinaryOpINS0_17scalar_product_opIffEENS_6MatrixIfLi7ELi7ELi0ELi7ELi7EEENS_14CwiseNullaryOpINS0_18scalar_constant_opIfEES6_EEEESA_Li4ELi49EE3runERSB_RKSA_)
                  00026b42    0000001a     ExtendedKalman.obj (.text:_ZN5Eigen8internal40assign_LinearTraversal_CompleteUnrollingINS_17SelfCwiseBinaryOpINS0_17scalar_product_opIffEENS_6MatrixIfLi7ELi7ELi0ELi7ELi7EEENS_14CwiseNullaryOpINS0_18scalar_constant_opIfEES6_EEEESA_Li5ELi49EE3runERSB_RKSA_)
                  00026b5c    0000001a     ExtendedKalman.obj (.text:_ZN5Eigen8internal40assign_LinearTraversal_CompleteUnrollingINS_17SelfCwiseBinaryOpINS0_17scalar_product_opIffEENS_6MatrixIfLi7ELi7ELi0ELi7ELi7EEENS_14CwiseNullaryOpINS0_18scalar_constant_opIfEES6_EEEESA_Li6ELi49EE3runERSB_RKSA_)
                  00026b76    0000001a     ExtendedKalman.obj (.text:_ZN5Eigen8internal40assign_LinearTraversal_CompleteUnrollingINS_17SelfCwiseBinaryOpINS0_17scalar_product_opIffEENS_6MatrixIfLi7ELi7ELi0ELi7ELi7EEENS_14CwiseNullaryOpINS0_18scalar_constant_opIfEES6_EEEESA_Li7ELi49EE3runERSB_RKSA_)
                  00026b90    0000001a     ExtendedKalman.obj (.text:_ZN5Eigen8internal40assign_LinearTraversal_CompleteUnrollingINS_17SelfCwiseBinaryOpINS0_17scalar_product_opIffEENS_6MatrixIfLi7ELi7ELi0ELi7ELi7EEENS_14CwiseNullaryOpINS0_18scalar_constant_opIfEES6_EEEESA_Li8ELi49EE3runERSB_RKSA_)
                  00026baa    0000001a     ExtendedKalman.obj (.text:_ZN5Eigen8internal40assign_LinearTraversal_CompleteUnrollingINS_17SelfCwiseBinaryOpINS0_17scalar_product_opIffEENS_6MatrixIfLi7ELi7ELi0ELi7ELi7EEENS_14CwiseNullaryOpINS0_18scalar_constant_opIfEES6_EEEESA_Li9ELi49EE3runERSB_RKSA_)
                  00026bc4    0000001a     ExtendedKalman.obj (.text:_ZN5Eigen8internal40assign_LinearTraversal_CompleteUnrollingINS_5BlockINS_6MatrixIfLi3ELi3ELi0ELi3ELi3EEELi1ELi3ELb0EEENS_9TransposeIKNS_12CwiseUnaryOpINS0_18scalar_multiple_opIfEEKNS3_IfLi3ELi1ELi0ELi3ELi1EEEEEEELi0ELi3EE3runERS5_RKSE_)
                  00026bde    0000001a     ExtendedKalman.obj (.text:_ZN5Eigen8internal40assign_LinearTraversal_CompleteUnrollingINS_5BlockINS_6MatrixIfLi3ELi3ELi0ELi3ELi3EEELi1ELi3ELb0EEENS_9TransposeIKNS_12CwiseUnaryOpINS0_18scalar_multiple_opIfEEKNS3_IfLi3ELi1ELi0ELi3ELi1EEEEEEELi1ELi3EE3runERS5_RKSE_)
                  00026bf8    0000001a     ExtendedKalman.obj (.text:_ZN5Eigen8internal40assign_LinearTraversal_CompleteUnrollingINS_5BlockINS_6MatrixIfLi3ELi3ELi0ELi3ELi3EEELi1ELi3ELb0EEENS_9TransposeIKNS_12CwiseUnaryOpINS0_18scalar_multiple_opIfEEKNS3_IfLi3ELi1ELi0ELi3ELi1EEEEEEELi2ELi3EE3runERS5_RKSE_)
                  00026c12    0000001a     ExtendedKalman.obj (.text:_ZN5Eigen8internal40assign_LinearTraversal_CompleteUnrollingINS_6MatrixIfLi3ELi1ELi0ELi3ELi1EEENS_13CwiseBinaryOpINS0_20scalar_difference_opIfEEKS3_S7_EELi0ELi3EE3runERS3_RKS8_)
                  00026c2c    0000001a     ExtendedKalman.obj (.text:_ZN5Eigen8internal40assign_LinearTraversal_CompleteUnrollingINS_6MatrixIfLi3ELi1ELi0ELi3ELi1EEENS_13CwiseBinaryOpINS0_20scalar_difference_opIfEEKS3_S7_EELi1ELi3EE3runERS3_RKS8_)
                  00026c46    0000001a     ExtendedKalman.obj (.text:_ZN5Eigen8internal40assign_LinearTraversal_CompleteUnrollingINS_6MatrixIfLi3ELi1ELi0ELi3ELi1EEENS_13CwiseBinaryOpINS0_20scalar_difference_opIfEEKS3_S7_EELi2ELi3EE3runERS3_RKS8_)
                  00026c60    0000001a     ExtendedKalman.obj (.text:_ZN5Eigen8internal40assign_LinearTraversal_CompleteUnrollingINS_6MatrixIfLi3ELi1ELi0ELi3ELi1EEENS_14CwiseNullaryOpINS0_18scalar_constant_opIfEES3_EELi0ELi3EE3runERS3_RKS7_)
                  00026c7a    0000001a     ExtendedKalman.obj (.text:_ZN5Eigen8internal40assign_LinearTraversal_CompleteUnrollingINS_6MatrixIfLi3ELi1ELi0ELi3ELi1EEENS_14CwiseNullaryOpINS0_18scalar_constant_opIfEES3_EELi1ELi3EE3runERS3_RKS7_)
                  00026c94    0000001a     ExtendedKalman.obj (.text:_ZN5Eigen8internal40assign_LinearTraversal_CompleteUnrollingINS_6MatrixIfLi3ELi1ELi0ELi3ELi1EEENS_14CwiseNullaryOpINS0_18scalar_constant_opIfEES3_EELi2ELi3EE3runERS3_RKS7_)
                  00026cae    0000001a     ExtendedKalman.obj (.text:_ZN5Eigen8internal40assign_LinearTraversal_CompleteUnrollingINS_6MatrixIfLi3ELi3ELi0ELi3ELi3EEENS_14CwiseNullaryOpINS0_18scalar_constant_opIfEES3_EELi0ELi9EE3runERS3_RKS7_)
                  00026cc8    0000001a     ExtendedKalman.obj (.text:_ZN5Eigen8internal40assign_LinearTraversal_CompleteUnrollingINS_6MatrixIfLi3ELi3ELi0ELi3ELi3EEENS_14CwiseNullaryOpINS0_18scalar_constant_opIfEES3_EELi1ELi9EE3runERS3_RKS7_)
                  00026ce2    0000001a     ExtendedKalman.obj (.text:_ZN5Eigen8internal40assign_LinearTraversal_CompleteUnrollingINS_6MatrixIfLi3ELi3ELi0ELi3ELi3EEENS_14CwiseNullaryOpINS0_18scalar_constant_opIfEES3_EELi2ELi9EE3runERS3_RKS7_)
                  00026cfc    0000001a     ExtendedKalman.obj (.text:_ZN5Eigen8internal40assign_LinearTraversal_CompleteUnrollingINS_6MatrixIfLi3ELi3ELi0ELi3ELi3EEENS_14CwiseNullaryOpINS0_18scalar_constant_opIfEES3_EELi3ELi9EE3runERS3_RKS7_)
                  00026d16    0000001a     ExtendedKalman.obj (.text:_ZN5Eigen8internal40assign_LinearTraversal_CompleteUnrollingINS_6MatrixIfLi3ELi3ELi0ELi3ELi3EEENS_14CwiseNullaryOpINS0_18scalar_constant_opIfEES3_EELi4ELi9EE3runERS3_RKS7_)
                  00026d30    0000001a     ExtendedKalman.obj (.text:_ZN5Eigen8internal40assign_LinearTraversal_CompleteUnrollingINS_6MatrixIfLi3ELi3ELi0ELi3ELi3EEENS_14CwiseNullaryOpINS0_18scalar_constant_opIfEES3_EELi5ELi9EE3runERS3_RKS7_)
                  00026d4a    0000001a     ExtendedKalman.obj (.text:_ZN5Eigen8internal40assign_LinearTraversal_CompleteUnrollingINS_6MatrixIfLi3ELi3ELi0ELi3ELi3EEENS_14CwiseNullaryOpINS0_18scalar_constant_opIfEES3_EELi6ELi9EE3runERS3_RKS7_)
                  00026d64    0000001a     ExtendedKalman.obj (.text:_ZN5Eigen8internal40assign_LinearTraversal_CompleteUnrollingINS_6MatrixIfLi3ELi3ELi0ELi3ELi3EEENS_14CwiseNullaryOpINS0_18scalar_constant_opIfEES3_EELi7ELi9EE3runERS3_RKS7_)
                  00026d7e    0000001a     ExtendedKalman.obj (.text:_ZN5Eigen8internal40assign_LinearTraversal_CompleteUnrollingINS_6MatrixIfLi3ELi3ELi0ELi3ELi3EEENS_14CwiseNullaryOpINS0_18scalar_constant_opIfEES3_EELi8ELi9EE3runERS3_RKS7_)
                  00026d98    0000001a     ExtendedKalman.obj (.text:_ZN5Eigen8internal40assign_LinearTraversal_CompleteUnrollingINS_6MatrixIfLi3ELi7ELi0ELi3ELi7EEENS_14CwiseNullaryOpINS0_18scalar_constant_opIfEES3_EELi0ELi21EE3runERS3_RKS7_)
                  00026db2    0000001a     ExtendedKalman.obj (.text:_ZN5Eigen8internal40assign_LinearTraversal_CompleteUnrollingINS_6MatrixIfLi3ELi7ELi0ELi3ELi7EEENS_14CwiseNullaryOpINS0_18scalar_constant_opIfEES3_EELi10ELi21EE3runERS3_RKS7_)
                  00026dcc    0000001a     ExtendedKalman.obj (.text:_ZN5Eigen8internal40assign_LinearTraversal_CompleteUnrollingINS_6MatrixIfLi3ELi7ELi0ELi3ELi7EEENS_14CwiseNullaryOpINS0_18scalar_constant_opIfEES3_EELi11ELi21EE3runERS3_RKS7_)
                  00026de6    0000001a     ExtendedKalman.obj (.text:_ZN5Eigen8internal40assign_LinearTraversal_CompleteUnrollingINS_6MatrixIfLi3ELi7ELi0ELi3ELi7EEENS_14CwiseNullaryOpINS0_18scalar_constant_opIfEES3_EELi12ELi21EE3runERS3_RKS7_)
                  00026e00    0000001a     ExtendedKalman.obj (.text:_ZN5Eigen8internal40assign_LinearTraversal_CompleteUnrollingINS_6MatrixIfLi3ELi7ELi0ELi3ELi7EEENS_14CwiseNullaryOpINS0_18scalar_constant_opIfEES3_EELi13ELi21EE3runERS3_RKS7_)
                  00026e1a    0000001a     ExtendedKalman.obj (.text:_ZN5Eigen8internal40assign_LinearTraversal_CompleteUnrollingINS_6MatrixIfLi3ELi7ELi0ELi3ELi7EEENS_14CwiseNullaryOpINS0_18scalar_constant_opIfEES3_EELi14ELi21EE3runERS3_RKS7_)
                  00026e34    0000001a     ExtendedKalman.obj (.text:_ZN5Eigen8internal40assign_LinearTraversal_CompleteUnrollingINS_6MatrixIfLi3ELi7ELi0ELi3ELi7EEENS_14CwiseNullaryOpINS0_18scalar_constant_opIfEES3_EELi15ELi21EE3runERS3_RKS7_)
                  00026e4e    0000001a     ExtendedKalman.obj (.text:_ZN5Eigen8internal40assign_LinearTraversal_CompleteUnrollingINS_6MatrixIfLi3ELi7ELi0ELi3ELi7EEENS_14CwiseNullaryOpINS0_18scalar_constant_opIfEES3_EELi16ELi21EE3runERS3_RKS7_)
                  00026e68    0000001a     ExtendedKalman.obj (.text:_ZN5Eigen8internal40assign_LinearTraversal_CompleteUnrollingINS_6MatrixIfLi3ELi7ELi0ELi3ELi7EEENS_14CwiseNullaryOpINS0_18scalar_constant_opIfEES3_EELi17ELi21EE3runERS3_RKS7_)
                  00026e82    0000001a     ExtendedKalman.obj (.text:_ZN5Eigen8internal40assign_LinearTraversal_CompleteUnrollingINS_6MatrixIfLi3ELi7ELi0ELi3ELi7EEENS_14CwiseNullaryOpINS0_18scalar_constant_opIfEES3_EELi18ELi21EE3runERS3_RKS7_)
                  00026e9c    0000001a     ExtendedKalman.obj (.text:_ZN5Eigen8internal40assign_LinearTraversal_CompleteUnrollingINS_6MatrixIfLi3ELi7ELi0ELi3ELi7EEENS_14CwiseNullaryOpINS0_18scalar_constant_opIfEES3_EELi19ELi21EE3runERS3_RKS7_)
                  00026eb6    0000001a     ExtendedKalman.obj (.text:_ZN5Eigen8internal40assign_LinearTraversal_CompleteUnrollingINS_6MatrixIfLi3ELi7ELi0ELi3ELi7EEENS_14CwiseNullaryOpINS0_18scalar_constant_opIfEES3_EELi1ELi21EE3runERS3_RKS7_)
                  00026ed0    0000001a     ExtendedKalman.obj (.text:_ZN5Eigen8internal40assign_LinearTraversal_CompleteUnrollingINS_6MatrixIfLi3ELi7ELi0ELi3ELi7EEENS_14CwiseNullaryOpINS0_18scalar_constant_opIfEES3_EELi20ELi21EE3runERS3_RKS7_)
                  00026eea    0000001a     ExtendedKalman.obj (.text:_ZN5Eigen8internal40assign_LinearTraversal_CompleteUnrollingINS_6MatrixIfLi3ELi7ELi0ELi3ELi7EEENS_14CwiseNullaryOpINS0_18scalar_constant_opIfEES3_EELi2ELi21EE3runERS3_RKS7_)
                  00026f04    0000001a     ExtendedKalman.obj (.text:_ZN5Eigen8internal40assign_LinearTraversal_CompleteUnrollingINS_6MatrixIfLi3ELi7ELi0ELi3ELi7EEENS_14CwiseNullaryOpINS0_18scalar_constant_opIfEES3_EELi3ELi21EE3runERS3_RKS7_)
                  00026f1e    0000001a     ExtendedKalman.obj (.text:_ZN5Eigen8internal40assign_LinearTraversal_CompleteUnrollingINS_6MatrixIfLi3ELi7ELi0ELi3ELi7EEENS_14CwiseNullaryOpINS0_18scalar_constant_opIfEES3_EELi4ELi21EE3runERS3_RKS7_)
                  00026f38    0000001a     ExtendedKalman.obj (.text:_ZN5Eigen8internal40assign_LinearTraversal_CompleteUnrollingINS_6MatrixIfLi3ELi7ELi0ELi3ELi7EEENS_14CwiseNullaryOpINS0_18scalar_constant_opIfEES3_EELi5ELi21EE3runERS3_RKS7_)
                  00026f52    0000001a     ExtendedKalman.obj (.text:_ZN5Eigen8internal40assign_LinearTraversal_CompleteUnrollingINS_6MatrixIfLi3ELi7ELi0ELi3ELi7EEENS_14CwiseNullaryOpINS0_18scalar_constant_opIfEES3_EELi6ELi21EE3runERS3_RKS7_)
                  00026f6c    0000001a     ExtendedKalman.obj (.text:_ZN5Eigen8internal40assign_LinearTraversal_CompleteUnrollingINS_6MatrixIfLi3ELi7ELi0ELi3ELi7EEENS_14CwiseNullaryOpINS0_18scalar_constant_opIfEES3_EELi7ELi21EE3runERS3_RKS7_)
                  00026f86    0000001a     ExtendedKalman.obj (.text:_ZN5Eigen8internal40assign_LinearTraversal_CompleteUnrollingINS_6MatrixIfLi3ELi7ELi0ELi3ELi7EEENS_14CwiseNullaryOpINS0_18scalar_constant_opIfEES3_EELi8ELi21EE3runERS3_RKS7_)
                  00026fa0    0000001a     ExtendedKalman.obj (.text:_ZN5Eigen8internal40assign_LinearTraversal_CompleteUnrollingINS_6MatrixIfLi3ELi7ELi0ELi3ELi7EEENS_14CwiseNullaryOpINS0_18scalar_constant_opIfEES3_EELi9ELi21EE3runERS3_RKS7_)
                  00026fba    0000001a     ExtendedKalman.obj (.text:_ZN5Eigen8internal40assign_LinearTraversal_CompleteUnrollingINS_6MatrixIfLi7ELi1ELi0ELi7ELi1EEENS_13CwiseBinaryOpINS0_13scalar_sum_opIfEEKS3_KNS_17CoeffBasedProductIRKNS2_IfLi7ELi3ELi0ELi7ELi3EEERKNS2_IfLi3ELi1ELi0ELi3ELi1EEELi6EEEEELi0ELi7EE3runERS3_RKSH_)
                  00026fd4    0000001a     ExtendedKalman.obj (.text:_ZN5Eigen8internal40assign_LinearTraversal_CompleteUnrollingINS_6MatrixIfLi7ELi1ELi0ELi7ELi1EEENS_13CwiseBinaryOpINS0_13scalar_sum_opIfEEKS3_KNS_17CoeffBasedProductIRKNS2_IfLi7ELi3ELi0ELi7ELi3EEERKNS2_IfLi3ELi1ELi0ELi3ELi1EEELi6EEEEELi1ELi7EE3runERS3_RKSH_)
                  00026fee    0000001a     ExtendedKalman.obj (.text:_ZN5Eigen8internal40assign_LinearTraversal_CompleteUnrollingINS_6MatrixIfLi7ELi1ELi0ELi7ELi1EEENS_13CwiseBinaryOpINS0_13scalar_sum_opIfEEKS3_KNS_17CoeffBasedProductIRKNS2_IfLi7ELi3ELi0ELi7ELi3EEERKNS2_IfLi3ELi1ELi0ELi3ELi1EEELi6EEEEELi2ELi7EE3runERS3_RKSH_)
                  00027008    0000001a     ExtendedKalman.obj (.text:_ZN5Eigen8internal40assign_LinearTraversal_CompleteUnrollingINS_6MatrixIfLi7ELi1ELi0ELi7ELi1EEENS_13CwiseBinaryOpINS0_13scalar_sum_opIfEEKS3_KNS_17CoeffBasedProductIRKNS2_IfLi7ELi3ELi0ELi7ELi3EEERKNS2_IfLi3ELi1ELi0ELi3ELi1EEELi6EEEEELi3ELi7EE3runERS3_RKSH_)
                  00027022    0000001a     ExtendedKalman.obj (.text:_ZN5Eigen8internal40assign_LinearTraversal_CompleteUnrollingINS_6MatrixIfLi7ELi1ELi0ELi7ELi1EEENS_13CwiseBinaryOpINS0_13scalar_sum_opIfEEKS3_KNS_17CoeffBasedProductIRKNS2_IfLi7ELi3ELi0ELi7ELi3EEERKNS2_IfLi3ELi1ELi0ELi3ELi1EEELi6EEEEELi4ELi7EE3runERS3_RKSH_)
                  0002703c    0000001a     ExtendedKalman.obj (.text:_ZN5Eigen8internal40assign_LinearTraversal_CompleteUnrollingINS_6MatrixIfLi7ELi1ELi0ELi7ELi1EEENS_13CwiseBinaryOpINS0_13scalar_sum_opIfEEKS3_KNS_17CoeffBasedProductIRKNS2_IfLi7ELi3ELi0ELi7ELi3EEERKNS2_IfLi3ELi1ELi0ELi3ELi1EEELi6EEEEELi5ELi7EE3runERS3_RKSH_)
                  00027056    0000001a     ExtendedKalman.obj (.text:_ZN5Eigen8internal40assign_LinearTraversal_CompleteUnrollingINS_6MatrixIfLi7ELi1ELi0ELi7ELi1EEENS_13CwiseBinaryOpINS0_13scalar_sum_opIfEEKS3_KNS_17CoeffBasedProductIRKNS2_IfLi7ELi3ELi0ELi7ELi3EEERKNS2_IfLi3ELi1ELi0ELi3ELi1EEELi6EEEEELi6ELi7EE3runERS3_RKSH_)
                  00027070    0000001a     ExtendedKalman.obj (.text:_ZN5Eigen8internal40assign_LinearTraversal_CompleteUnrollingINS_6MatrixIfLi7ELi1ELi0ELi7ELi1EEENS_14CwiseNullaryOpINS0_18scalar_constant_opIfEES3_EELi0ELi7EE3runERS3_RKS7_)
                  0002708a    0000001a     ExtendedKalman.obj (.text:_ZN5Eigen8internal40assign_LinearTraversal_CompleteUnrollingINS_6MatrixIfLi7ELi1ELi0ELi7ELi1EEENS_14CwiseNullaryOpINS0_18scalar_constant_opIfEES3_EELi1ELi7EE3runERS3_RKS7_)
                  000270a4    0000001a     ExtendedKalman.obj (.text:_ZN5Eigen8internal40assign_LinearTraversal_CompleteUnrollingINS_6MatrixIfLi7ELi1ELi0ELi7ELi1EEENS_14CwiseNullaryOpINS0_18scalar_constant_opIfEES3_EELi2ELi7EE3runERS3_RKS7_)
                  000270be    0000001a     ExtendedKalman.obj (.text:_ZN5Eigen8internal40assign_LinearTraversal_CompleteUnrollingINS_6MatrixIfLi7ELi1ELi0ELi7ELi1EEENS_14CwiseNullaryOpINS0_18scalar_constant_opIfEES3_EELi3ELi7EE3runERS3_RKS7_)
                  000270d8    0000001a     ExtendedKalman.obj (.text:_ZN5Eigen8internal40assign_LinearTraversal_CompleteUnrollingINS_6MatrixIfLi7ELi1ELi0ELi7ELi1EEENS_14CwiseNullaryOpINS0_18scalar_constant_opIfEES3_EELi4ELi7EE3runERS3_RKS7_)
                  000270f2    0000001a     ExtendedKalman.obj (.text:_ZN5Eigen8internal40assign_LinearTraversal_CompleteUnrollingINS_6MatrixIfLi7ELi1ELi0ELi7ELi1EEENS_14CwiseNullaryOpINS0_18scalar_constant_opIfEES3_EELi5ELi7EE3runERS3_RKS7_)
                  0002710c    0000001a     ExtendedKalman.obj (.text:_ZN5Eigen8internal40assign_LinearTraversal_CompleteUnrollingINS_6MatrixIfLi7ELi1ELi0ELi7ELi1EEENS_14CwiseNullaryOpINS0_18scalar_constant_opIfEES3_EELi6ELi7EE3runERS3_RKS7_)
                  00027126    0000001a     ExtendedKalman.obj (.text:_ZN5Eigen8internal40assign_LinearTraversal_CompleteUnrollingINS_6MatrixIfLi7ELi3ELi0ELi7ELi3EEENS_14CwiseNullaryOpINS0_18scalar_constant_opIfEES3_EELi0ELi21EE3runERS3_RKS7_)
                  00027140    0000001a     ExtendedKalman.obj (.text:_ZN5Eigen8internal40assign_LinearTraversal_CompleteUnrollingINS_6MatrixIfLi7ELi3ELi0ELi7ELi3EEENS_14CwiseNullaryOpINS0_18scalar_constant_opIfEES3_EELi10ELi21EE3runERS3_RKS7_)
                  0002715a    0000001a     ExtendedKalman.obj (.text:_ZN5Eigen8internal40assign_LinearTraversal_CompleteUnrollingINS_6MatrixIfLi7ELi3ELi0ELi7ELi3EEENS_14CwiseNullaryOpINS0_18scalar_constant_opIfEES3_EELi11ELi21EE3runERS3_RKS7_)
                  00027174    0000001a     ExtendedKalman.obj (.text:_ZN5Eigen8internal40assign_LinearTraversal_CompleteUnrollingINS_6MatrixIfLi7ELi3ELi0ELi7ELi3EEENS_14CwiseNullaryOpINS0_18scalar_constant_opIfEES3_EELi12ELi21EE3runERS3_RKS7_)
                  0002718e    0000001a     ExtendedKalman.obj (.text:_ZN5Eigen8internal40assign_LinearTraversal_CompleteUnrollingINS_6MatrixIfLi7ELi3ELi0ELi7ELi3EEENS_14CwiseNullaryOpINS0_18scalar_constant_opIfEES3_EELi13ELi21EE3runERS3_RKS7_)
                  000271a8    0000001a     ExtendedKalman.obj (.text:_ZN5Eigen8internal40assign_LinearTraversal_CompleteUnrollingINS_6MatrixIfLi7ELi3ELi0ELi7ELi3EEENS_14CwiseNullaryOpINS0_18scalar_constant_opIfEES3_EELi14ELi21EE3runERS3_RKS7_)
                  000271c2    0000001a     ExtendedKalman.obj (.text:_ZN5Eigen8internal40assign_LinearTraversal_CompleteUnrollingINS_6MatrixIfLi7ELi3ELi0ELi7ELi3EEENS_14CwiseNullaryOpINS0_18scalar_constant_opIfEES3_EELi15ELi21EE3runERS3_RKS7_)
                  000271dc    0000001a     ExtendedKalman.obj (.text:_ZN5Eigen8internal40assign_LinearTraversal_CompleteUnrollingINS_6MatrixIfLi7ELi3ELi0ELi7ELi3EEENS_14CwiseNullaryOpINS0_18scalar_constant_opIfEES3_EELi16ELi21EE3runERS3_RKS7_)
                  000271f6    0000001a     ExtendedKalman.obj (.text:_ZN5Eigen8internal40assign_LinearTraversal_CompleteUnrollingINS_6MatrixIfLi7ELi3ELi0ELi7ELi3EEENS_14CwiseNullaryOpINS0_18scalar_constant_opIfEES3_EELi17ELi21EE3runERS3_RKS7_)
                  00027210    0000001a     ExtendedKalman.obj (.text:_ZN5Eigen8internal40assign_LinearTraversal_CompleteUnrollingINS_6MatrixIfLi7ELi3ELi0ELi7ELi3EEENS_14CwiseNullaryOpINS0_18scalar_constant_opIfEES3_EELi18ELi21EE3runERS3_RKS7_)
                  0002722a    0000001a     ExtendedKalman.obj (.text:_ZN5Eigen8internal40assign_LinearTraversal_CompleteUnrollingINS_6MatrixIfLi7ELi3ELi0ELi7ELi3EEENS_14CwiseNullaryOpINS0_18scalar_constant_opIfEES3_EELi19ELi21EE3runERS3_RKS7_)
                  00027244    0000001a     ExtendedKalman.obj (.text:_ZN5Eigen8internal40assign_LinearTraversal_CompleteUnrollingINS_6MatrixIfLi7ELi3ELi0ELi7ELi3EEENS_14CwiseNullaryOpINS0_18scalar_constant_opIfEES3_EELi1ELi21EE3runERS3_RKS7_)
                  0002725e    0000001a     ExtendedKalman.obj (.text:_ZN5Eigen8internal40assign_LinearTraversal_CompleteUnrollingINS_6MatrixIfLi7ELi3ELi0ELi7ELi3EEENS_14CwiseNullaryOpINS0_18scalar_constant_opIfEES3_EELi20ELi21EE3runERS3_RKS7_)
                  00027278    0000001a     ExtendedKalman.obj (.text:_ZN5Eigen8internal40assign_LinearTraversal_CompleteUnrollingINS_6MatrixIfLi7ELi3ELi0ELi7ELi3EEENS_14CwiseNullaryOpINS0_18scalar_constant_opIfEES3_EELi2ELi21EE3runERS3_RKS7_)
                  00027292    0000001a     ExtendedKalman.obj (.text:_ZN5Eigen8internal40assign_LinearTraversal_CompleteUnrollingINS_6MatrixIfLi7ELi3ELi0ELi7ELi3EEENS_14CwiseNullaryOpINS0_18scalar_constant_opIfEES3_EELi3ELi21EE3runERS3_RKS7_)
                  000272ac    0000001a     ExtendedKalman.obj (.text:_ZN5Eigen8internal40assign_LinearTraversal_CompleteUnrollingINS_6MatrixIfLi7ELi3ELi0ELi7ELi3EEENS_14CwiseNullaryOpINS0_18scalar_constant_opIfEES3_EELi4ELi21EE3runERS3_RKS7_)
                  000272c6    0000001a     ExtendedKalman.obj (.text:_ZN5Eigen8internal40assign_LinearTraversal_CompleteUnrollingINS_6MatrixIfLi7ELi3ELi0ELi7ELi3EEENS_14CwiseNullaryOpINS0_18scalar_constant_opIfEES3_EELi5ELi21EE3runERS3_RKS7_)
                  000272e0    0000001a     ExtendedKalman.obj (.text:_ZN5Eigen8internal40assign_LinearTraversal_CompleteUnrollingINS_6MatrixIfLi7ELi3ELi0ELi7ELi3EEENS_14CwiseNullaryOpINS0_18scalar_constant_opIfEES3_EELi6ELi21EE3runERS3_RKS7_)
                  000272fa    0000001a     ExtendedKalman.obj (.text:_ZN5Eigen8internal40assign_LinearTraversal_CompleteUnrollingINS_6MatrixIfLi7ELi3ELi0ELi7ELi3EEENS_14CwiseNullaryOpINS0_18scalar_constant_opIfEES3_EELi7ELi21EE3runERS3_RKS7_)
                  00027314    0000001a     ExtendedKalman.obj (.text:_ZN5Eigen8internal40assign_LinearTraversal_CompleteUnrollingINS_6MatrixIfLi7ELi3ELi0ELi7ELi3EEENS_14CwiseNullaryOpINS0_18scalar_constant_opIfEES3_EELi8ELi21EE3runERS3_RKS7_)
                  0002732e    0000001a     ExtendedKalman.obj (.text:_ZN5Eigen8internal40assign_LinearTraversal_CompleteUnrollingINS_6MatrixIfLi7ELi3ELi0ELi7ELi3EEENS_14CwiseNullaryOpINS0_18scalar_constant_opIfEES3_EELi9ELi21EE3runERS3_RKS7_)
                  00027348    0000001a     ExtendedKalman.obj (.text:_ZN5Eigen8internal40assign_LinearTraversal_CompleteUnrollingINS_6MatrixIfLi7ELi3ELi0ELi7ELi3EEES3_Li0ELi21EE3runERS3_RKS3_)
                  00027362    0000001a     ExtendedKalman.obj (.text:_ZN5Eigen8internal40assign_LinearTraversal_CompleteUnrollingINS_6MatrixIfLi7ELi3ELi0ELi7ELi3EEES3_Li10ELi21EE3runERS3_RKS3_)
                  0002737c    0000001a     ExtendedKalman.obj (.text:_ZN5Eigen8internal40assign_LinearTraversal_CompleteUnrollingINS_6MatrixIfLi7ELi3ELi0ELi7ELi3EEES3_Li11ELi21EE3runERS3_RKS3_)
                  00027396    0000001a     ExtendedKalman.obj (.text:_ZN5Eigen8internal40assign_LinearTraversal_CompleteUnrollingINS_6MatrixIfLi7ELi3ELi0ELi7ELi3EEES3_Li12ELi21EE3runERS3_RKS3_)
                  000273b0    0000001a     ExtendedKalman.obj (.text:_ZN5Eigen8internal40assign_LinearTraversal_CompleteUnrollingINS_6MatrixIfLi7ELi3ELi0ELi7ELi3EEES3_Li13ELi21EE3runERS3_RKS3_)
                  000273ca    0000001a     ExtendedKalman.obj (.text:_ZN5Eigen8internal40assign_LinearTraversal_CompleteUnrollingINS_6MatrixIfLi7ELi3ELi0ELi7ELi3EEES3_Li14ELi21EE3runERS3_RKS3_)
                  000273e4    0000001a     ExtendedKalman.obj (.text:_ZN5Eigen8internal40assign_LinearTraversal_CompleteUnrollingINS_6MatrixIfLi7ELi3ELi0ELi7ELi3EEES3_Li15ELi21EE3runERS3_RKS3_)
                  000273fe    0000001a     ExtendedKalman.obj (.text:_ZN5Eigen8internal40assign_LinearTraversal_CompleteUnrollingINS_6MatrixIfLi7ELi3ELi0ELi7ELi3EEES3_Li16ELi21EE3runERS3_RKS3_)
                  00027418    0000001a     ExtendedKalman.obj (.text:_ZN5Eigen8internal40assign_LinearTraversal_CompleteUnrollingINS_6MatrixIfLi7ELi3ELi0ELi7ELi3EEES3_Li17ELi21EE3runERS3_RKS3_)
                  00027432    0000001a     ExtendedKalman.obj (.text:_ZN5Eigen8internal40assign_LinearTraversal_CompleteUnrollingINS_6MatrixIfLi7ELi3ELi0ELi7ELi3EEES3_Li18ELi21EE3runERS3_RKS3_)
                  0002744c    0000001a     ExtendedKalman.obj (.text:_ZN5Eigen8internal40assign_LinearTraversal_CompleteUnrollingINS_6MatrixIfLi7ELi3ELi0ELi7ELi3EEES3_Li19ELi21EE3runERS3_RKS3_)
                  00027466    0000001a     ExtendedKalman.obj (.text:_ZN5Eigen8internal40assign_LinearTraversal_CompleteUnrollingINS_6MatrixIfLi7ELi3ELi0ELi7ELi3EEES3_Li1ELi21EE3runERS3_RKS3_)
                  00027480    0000001a     ExtendedKalman.obj (.text:_ZN5Eigen8internal40assign_LinearTraversal_CompleteUnrollingINS_6MatrixIfLi7ELi3ELi0ELi7ELi3EEES3_Li20ELi21EE3runERS3_RKS3_)
                  0002749a    0000001a     ExtendedKalman.obj (.text:_ZN5Eigen8internal40assign_LinearTraversal_CompleteUnrollingINS_6MatrixIfLi7ELi3ELi0ELi7ELi3EEES3_Li2ELi21EE3runERS3_RKS3_)
                  000274b4    0000001a     ExtendedKalman.obj (.text:_ZN5Eigen8internal40assign_LinearTraversal_CompleteUnrollingINS_6MatrixIfLi7ELi3ELi0ELi7ELi3EEES3_Li3ELi21EE3runERS3_RKS3_)
                  000274ce    0000001a     ExtendedKalman.obj (.text:_ZN5Eigen8internal40assign_LinearTraversal_CompleteUnrollingINS_6MatrixIfLi7ELi3ELi0ELi7ELi3EEES3_Li4ELi21EE3runERS3_RKS3_)
                  000274e8    0000001a     ExtendedKalman.obj (.text:_ZN5Eigen8internal40assign_LinearTraversal_CompleteUnrollingINS_6MatrixIfLi7ELi3ELi0ELi7ELi3EEES3_Li5ELi21EE3runERS3_RKS3_)
                  00027502    0000001a     ExtendedKalman.obj (.text:_ZN5Eigen8internal40assign_LinearTraversal_CompleteUnrollingINS_6MatrixIfLi7ELi3ELi0ELi7ELi3EEES3_Li6ELi21EE3runERS3_RKS3_)
                  0002751c    0000001a     ExtendedKalman.obj (.text:_ZN5Eigen8internal40assign_LinearTraversal_CompleteUnrollingINS_6MatrixIfLi7ELi3ELi0ELi7ELi3EEES3_Li7ELi21EE3runERS3_RKS3_)
                  00027536    0000001a     ExtendedKalman.obj (.text:_ZN5Eigen8internal40assign_LinearTraversal_CompleteUnrollingINS_6MatrixIfLi7ELi3ELi0ELi7ELi3EEES3_Li8ELi21EE3runERS3_RKS3_)
                  00027550    0000001a     ExtendedKalman.obj (.text:_ZN5Eigen8internal40assign_LinearTraversal_CompleteUnrollingINS_6MatrixIfLi7ELi3ELi0ELi7ELi3EEES3_Li9ELi21EE3runERS3_RKS3_)
                  0002756a    0000001a     ExtendedKalman.obj (.text:_ZN5Eigen8internal40assign_LinearTraversal_CompleteUnrollingINS_6MatrixIfLi7ELi7ELi0ELi7ELi7EEENS_14CwiseNullaryOpINS0_18scalar_constant_opIfEES3_EELi0ELi49EE3runERS3_RKS7_)
                  00027584    0000001a     ExtendedKalman.obj (.text:_ZN5Eigen8internal40assign_LinearTraversal_CompleteUnrollingINS_6MatrixIfLi7ELi7ELi0ELi7ELi7EEENS_14CwiseNullaryOpINS0_18scalar_constant_opIfEES3_EELi10ELi49EE3runERS3_RKS7_)
                  0002759e    0000001a     ExtendedKalman.obj (.text:_ZN5Eigen8internal40assign_LinearTraversal_CompleteUnrollingINS_6MatrixIfLi7ELi7ELi0ELi7ELi7EEENS_14CwiseNullaryOpINS0_18scalar_constant_opIfEES3_EELi11ELi49EE3runERS3_RKS7_)
                  000275b8    0000001a     ExtendedKalman.obj (.text:_ZN5Eigen8internal40assign_LinearTraversal_CompleteUnrollingINS_6MatrixIfLi7ELi7ELi0ELi7ELi7EEENS_14CwiseNullaryOpINS0_18scalar_constant_opIfEES3_EELi12ELi49EE3runERS3_RKS7_)
                  000275d2    0000001a     ExtendedKalman.obj (.text:_ZN5Eigen8internal40assign_LinearTraversal_CompleteUnrollingINS_6MatrixIfLi7ELi7ELi0ELi7ELi7EEENS_14CwiseNullaryOpINS0_18scalar_constant_opIfEES3_EELi13ELi49EE3runERS3_RKS7_)
                  000275ec    0000001a     ExtendedKalman.obj (.text:_ZN5Eigen8internal40assign_LinearTraversal_CompleteUnrollingINS_6MatrixIfLi7ELi7ELi0ELi7ELi7EEENS_14CwiseNullaryOpINS0_18scalar_constant_opIfEES3_EELi14ELi49EE3runERS3_RKS7_)
                  00027606    0000001a     ExtendedKalman.obj (.text:_ZN5Eigen8internal40assign_LinearTraversal_CompleteUnrollingINS_6MatrixIfLi7ELi7ELi0ELi7ELi7EEENS_14CwiseNullaryOpINS0_18scalar_constant_opIfEES3_EELi15ELi49EE3runERS3_RKS7_)
                  00027620    0000001a     ExtendedKalman.obj (.text:_ZN5Eigen8internal40assign_LinearTraversal_CompleteUnrollingINS_6MatrixIfLi7ELi7ELi0ELi7ELi7EEENS_14CwiseNullaryOpINS0_18scalar_constant_opIfEES3_EELi16ELi49EE3runERS3_RKS7_)
                  0002763a    0000001a     ExtendedKalman.obj (.text:_ZN5Eigen8internal40assign_LinearTraversal_CompleteUnrollingINS_6MatrixIfLi7ELi7ELi0ELi7ELi7EEENS_14CwiseNullaryOpINS0_18scalar_constant_opIfEES3_EELi17ELi49EE3runERS3_RKS7_)
                  00027654    0000001a     ExtendedKalman.obj (.text:_ZN5Eigen8internal40assign_LinearTraversal_CompleteUnrollingINS_6MatrixIfLi7ELi7ELi0ELi7ELi7EEENS_14CwiseNullaryOpINS0_18scalar_constant_opIfEES3_EELi18ELi49EE3runERS3_RKS7_)
                  0002766e    0000001a     ExtendedKalman.obj (.text:_ZN5Eigen8internal40assign_LinearTraversal_CompleteUnrollingINS_6MatrixIfLi7ELi7ELi0ELi7ELi7EEENS_14CwiseNullaryOpINS0_18scalar_constant_opIfEES3_EELi19ELi49EE3runERS3_RKS7_)
                  00027688    0000001a     ExtendedKalman.obj (.text:_ZN5Eigen8internal40assign_LinearTraversal_CompleteUnrollingINS_6MatrixIfLi7ELi7ELi0ELi7ELi7EEENS_14CwiseNullaryOpINS0_18scalar_constant_opIfEES3_EELi1ELi49EE3runERS3_RKS7_)
                  000276a2    0000001a     ExtendedKalman.obj (.text:_ZN5Eigen8internal40assign_LinearTraversal_CompleteUnrollingINS_6MatrixIfLi7ELi7ELi0ELi7ELi7EEENS_14CwiseNullaryOpINS0_18scalar_constant_opIfEES3_EELi20ELi49EE3runERS3_RKS7_)
                  000276bc    0000001a     ExtendedKalman.obj (.text:_ZN5Eigen8internal40assign_LinearTraversal_CompleteUnrollingINS_6MatrixIfLi7ELi7ELi0ELi7ELi7EEENS_14CwiseNullaryOpINS0_18scalar_constant_opIfEES3_EELi21ELi49EE3runERS3_RKS7_)
                  000276d6    0000001a     ExtendedKalman.obj (.text:_ZN5Eigen8internal40assign_LinearTraversal_CompleteUnrollingINS_6MatrixIfLi7ELi7ELi0ELi7ELi7EEENS_14CwiseNullaryOpINS0_18scalar_constant_opIfEES3_EELi22ELi49EE3runERS3_RKS7_)
                  000276f0    0000001a     ExtendedKalman.obj (.text:_ZN5Eigen8internal40assign_LinearTraversal_CompleteUnrollingINS_6MatrixIfLi7ELi7ELi0ELi7ELi7EEENS_14CwiseNullaryOpINS0_18scalar_constant_opIfEES3_EELi23ELi49EE3runERS3_RKS7_)
                  0002770a    0000001a     ExtendedKalman.obj (.text:_ZN5Eigen8internal40assign_LinearTraversal_CompleteUnrollingINS_6MatrixIfLi7ELi7ELi0ELi7ELi7EEENS_14CwiseNullaryOpINS0_18scalar_constant_opIfEES3_EELi24ELi49EE3runERS3_RKS7_)
                  00027724    0000001a     ExtendedKalman.obj (.text:_ZN5Eigen8internal40assign_LinearTraversal_CompleteUnrollingINS_6MatrixIfLi7ELi7ELi0ELi7ELi7EEENS_14CwiseNullaryOpINS0_18scalar_constant_opIfEES3_EELi25ELi49EE3runERS3_RKS7_)
                  0002773e    0000001a     ExtendedKalman.obj (.text:_ZN5Eigen8internal40assign_LinearTraversal_CompleteUnrollingINS_6MatrixIfLi7ELi7ELi0ELi7ELi7EEENS_14CwiseNullaryOpINS0_18scalar_constant_opIfEES3_EELi26ELi49EE3runERS3_RKS7_)
                  00027758    0000001a     ExtendedKalman.obj (.text:_ZN5Eigen8internal40assign_LinearTraversal_CompleteUnrollingINS_6MatrixIfLi7ELi7ELi0ELi7ELi7EEENS_14CwiseNullaryOpINS0_18scalar_constant_opIfEES3_EELi27ELi49EE3runERS3_RKS7_)
                  00027772    0000001a     ExtendedKalman.obj (.text:_ZN5Eigen8internal40assign_LinearTraversal_CompleteUnrollingINS_6MatrixIfLi7ELi7ELi0ELi7ELi7EEENS_14CwiseNullaryOpINS0_18scalar_constant_opIfEES3_EELi28ELi49EE3runERS3_RKS7_)
                  0002778c    0000001a     ExtendedKalman.obj (.text:_ZN5Eigen8internal40assign_LinearTraversal_CompleteUnrollingINS_6MatrixIfLi7ELi7ELi0ELi7ELi7EEENS_14CwiseNullaryOpINS0_18scalar_constant_opIfEES3_EELi29ELi49EE3runERS3_RKS7_)
                  000277a6    0000001a     ExtendedKalman.obj (.text:_ZN5Eigen8internal40assign_LinearTraversal_CompleteUnrollingINS_6MatrixIfLi7ELi7ELi0ELi7ELi7EEENS_14CwiseNullaryOpINS0_18scalar_constant_opIfEES3_EELi2ELi49EE3runERS3_RKS7_)
                  000277c0    0000001a     ExtendedKalman.obj (.text:_ZN5Eigen8internal40assign_LinearTraversal_CompleteUnrollingINS_6MatrixIfLi7ELi7ELi0ELi7ELi7EEENS_14CwiseNullaryOpINS0_18scalar_constant_opIfEES3_EELi30ELi49EE3runERS3_RKS7_)
                  000277da    0000001a     ExtendedKalman.obj (.text:_ZN5Eigen8internal40assign_LinearTraversal_CompleteUnrollingINS_6MatrixIfLi7ELi7ELi0ELi7ELi7EEENS_14CwiseNullaryOpINS0_18scalar_constant_opIfEES3_EELi31ELi49EE3runERS3_RKS7_)
                  000277f4    0000001a     ExtendedKalman.obj (.text:_ZN5Eigen8internal40assign_LinearTraversal_CompleteUnrollingINS_6MatrixIfLi7ELi7ELi0ELi7ELi7EEENS_14CwiseNullaryOpINS0_18scalar_constant_opIfEES3_EELi32ELi49EE3runERS3_RKS7_)
                  0002780e    0000001a     ExtendedKalman.obj (.text:_ZN5Eigen8internal40assign_LinearTraversal_CompleteUnrollingINS_6MatrixIfLi7ELi7ELi0ELi7ELi7EEENS_14CwiseNullaryOpINS0_18scalar_constant_opIfEES3_EELi33ELi49EE3runERS3_RKS7_)
                  00027828    0000001a     ExtendedKalman.obj (.text:_ZN5Eigen8internal40assign_LinearTraversal_CompleteUnrollingINS_6MatrixIfLi7ELi7ELi0ELi7ELi7EEENS_14CwiseNullaryOpINS0_18scalar_constant_opIfEES3_EELi34ELi49EE3runERS3_RKS7_)
                  00027842    0000001a     ExtendedKalman.obj (.text:_ZN5Eigen8internal40assign_LinearTraversal_CompleteUnrollingINS_6MatrixIfLi7ELi7ELi0ELi7ELi7EEENS_14CwiseNullaryOpINS0_18scalar_constant_opIfEES3_EELi35ELi49EE3runERS3_RKS7_)
                  0002785c    0000001a     ExtendedKalman.obj (.text:_ZN5Eigen8internal40assign_LinearTraversal_CompleteUnrollingINS_6MatrixIfLi7ELi7ELi0ELi7ELi7EEENS_14CwiseNullaryOpINS0_18scalar_constant_opIfEES3_EELi36ELi49EE3runERS3_RKS7_)
                  00027876    0000001a     ExtendedKalman.obj (.text:_ZN5Eigen8internal40assign_LinearTraversal_CompleteUnrollingINS_6MatrixIfLi7ELi7ELi0ELi7ELi7EEENS_14CwiseNullaryOpINS0_18scalar_constant_opIfEES3_EELi37ELi49EE3runERS3_RKS7_)
                  00027890    0000001a     ExtendedKalman.obj (.text:_ZN5Eigen8internal40assign_LinearTraversal_CompleteUnrollingINS_6MatrixIfLi7ELi7ELi0ELi7ELi7EEENS_14CwiseNullaryOpINS0_18scalar_constant_opIfEES3_EELi38ELi49EE3runERS3_RKS7_)
                  000278aa    0000001a     ExtendedKalman.obj (.text:_ZN5Eigen8internal40assign_LinearTraversal_CompleteUnrollingINS_6MatrixIfLi7ELi7ELi0ELi7ELi7EEENS_14CwiseNullaryOpINS0_18scalar_constant_opIfEES3_EELi39ELi49EE3runERS3_RKS7_)
                  000278c4    0000001a     ExtendedKalman.obj (.text:_ZN5Eigen8internal40assign_LinearTraversal_CompleteUnrollingINS_6MatrixIfLi7ELi7ELi0ELi7ELi7EEENS_14CwiseNullaryOpINS0_18scalar_constant_opIfEES3_EELi3ELi49EE3runERS3_RKS7_)
                  000278de    0000001a     ExtendedKalman.obj (.text:_ZN5Eigen8internal40assign_LinearTraversal_CompleteUnrollingINS_6MatrixIfLi7ELi7ELi0ELi7ELi7EEENS_14CwiseNullaryOpINS0_18scalar_constant_opIfEES3_EELi40ELi49EE3runERS3_RKS7_)
                  000278f8    0000001a     ExtendedKalman.obj (.text:_ZN5Eigen8internal40assign_LinearTraversal_CompleteUnrollingINS_6MatrixIfLi7ELi7ELi0ELi7ELi7EEENS_14CwiseNullaryOpINS0_18scalar_constant_opIfEES3_EELi41ELi49EE3runERS3_RKS7_)
                  00027912    0000001a     ExtendedKalman.obj (.text:_ZN5Eigen8internal40assign_LinearTraversal_CompleteUnrollingINS_6MatrixIfLi7ELi7ELi0ELi7ELi7EEENS_14CwiseNullaryOpINS0_18scalar_constant_opIfEES3_EELi42ELi49EE3runERS3_RKS7_)
                  0002792c    0000001a     ExtendedKalman.obj (.text:_ZN5Eigen8internal40assign_LinearTraversal_CompleteUnrollingINS_6MatrixIfLi7ELi7ELi0ELi7ELi7EEENS_14CwiseNullaryOpINS0_18scalar_constant_opIfEES3_EELi43ELi49EE3runERS3_RKS7_)
                  00027946    0000001a     ExtendedKalman.obj (.text:_ZN5Eigen8internal40assign_LinearTraversal_CompleteUnrollingINS_6MatrixIfLi7ELi7ELi0ELi7ELi7EEENS_14CwiseNullaryOpINS0_18scalar_constant_opIfEES3_EELi44ELi49EE3runERS3_RKS7_)
                  00027960    0000001a     ExtendedKalman.obj (.text:_ZN5Eigen8internal40assign_LinearTraversal_CompleteUnrollingINS_6MatrixIfLi7ELi7ELi0ELi7ELi7EEENS_14CwiseNullaryOpINS0_18scalar_constant_opIfEES3_EELi45ELi49EE3runERS3_RKS7_)
                  0002797a    0000001a     ExtendedKalman.obj (.text:_ZN5Eigen8internal40assign_LinearTraversal_CompleteUnrollingINS_6MatrixIfLi7ELi7ELi0ELi7ELi7EEENS_14CwiseNullaryOpINS0_18scalar_constant_opIfEES3_EELi46ELi49EE3runERS3_RKS7_)
                  00027994    0000001a     ExtendedKalman.obj (.text:_ZN5Eigen8internal40assign_LinearTraversal_CompleteUnrollingINS_6MatrixIfLi7ELi7ELi0ELi7ELi7EEENS_14CwiseNullaryOpINS0_18scalar_constant_opIfEES3_EELi47ELi49EE3runERS3_RKS7_)
                  000279ae    0000001a     ExtendedKalman.obj (.text:_ZN5Eigen8internal40assign_LinearTraversal_CompleteUnrollingINS_6MatrixIfLi7ELi7ELi0ELi7ELi7EEENS_14CwiseNullaryOpINS0_18scalar_constant_opIfEES3_EELi48ELi49EE3runERS3_RKS7_)
                  000279c8    0000001a     ExtendedKalman.obj (.text:_ZN5Eigen8internal40assign_LinearTraversal_CompleteUnrollingINS_6MatrixIfLi7ELi7ELi0ELi7ELi7EEENS_14CwiseNullaryOpINS0_18scalar_constant_opIfEES3_EELi4ELi49EE3runERS3_RKS7_)
                  000279e2    0000001a     ExtendedKalman.obj (.text:_ZN5Eigen8internal40assign_LinearTraversal_CompleteUnrollingINS_6MatrixIfLi7ELi7ELi0ELi7ELi7EEENS_14CwiseNullaryOpINS0_18scalar_constant_opIfEES3_EELi5ELi49EE3runERS3_RKS7_)
                  000279fc    0000001a     ExtendedKalman.obj (.text:_ZN5Eigen8internal40assign_LinearTraversal_CompleteUnrollingINS_6MatrixIfLi7ELi7ELi0ELi7ELi7EEENS_14CwiseNullaryOpINS0_18scalar_constant_opIfEES3_EELi6ELi49EE3runERS3_RKS7_)
                  00027a16    0000001a     ExtendedKalman.obj (.text:_ZN5Eigen8internal40assign_LinearTraversal_CompleteUnrollingINS_6MatrixIfLi7ELi7ELi0ELi7ELi7EEENS_14CwiseNullaryOpINS0_18scalar_constant_opIfEES3_EELi7ELi49EE3runERS3_RKS7_)
                  00027a30    0000001a     ExtendedKalman.obj (.text:_ZN5Eigen8internal40assign_LinearTraversal_CompleteUnrollingINS_6MatrixIfLi7ELi7ELi0ELi7ELi7EEENS_14CwiseNullaryOpINS0_18scalar_constant_opIfEES3_EELi8ELi49EE3runERS3_RKS7_)
                  00027a4a    0000001a     ExtendedKalman.obj (.text:_ZN5Eigen8internal40assign_LinearTraversal_CompleteUnrollingINS_6MatrixIfLi7ELi7ELi0ELi7ELi7EEENS_14CwiseNullaryOpINS0_18scalar_constant_opIfEES3_EELi9ELi49EE3runERS3_RKS7_)
                  00027a64    0000001a     ExtendedKalman.obj (.text:_ZN5Eigen8internal40assign_LinearTraversal_CompleteUnrollingINS_6MatrixIfLi7ELi7ELi0ELi7ELi7EEES3_Li0ELi49EE3runERS3_RKS3_)
                  00027a7e    0000001a     ExtendedKalman.obj (.text:_ZN5Eigen8internal40assign_LinearTraversal_CompleteUnrollingINS_6MatrixIfLi7ELi7ELi0ELi7ELi7EEES3_Li10ELi49EE3runERS3_RKS3_)
                  00027a98    0000001a     ExtendedKalman.obj (.text:_ZN5Eigen8internal40assign_LinearTraversal_CompleteUnrollingINS_6MatrixIfLi7ELi7ELi0ELi7ELi7EEES3_Li11ELi49EE3runERS3_RKS3_)
                  00027ab2    0000001a     ExtendedKalman.obj (.text:_ZN5Eigen8internal40assign_LinearTraversal_CompleteUnrollingINS_6MatrixIfLi7ELi7ELi0ELi7ELi7EEES3_Li12ELi49EE3runERS3_RKS3_)
                  00027acc    0000001a     ExtendedKalman.obj (.text:_ZN5Eigen8internal40assign_LinearTraversal_CompleteUnrollingINS_6MatrixIfLi7ELi7ELi0ELi7ELi7EEES3_Li13ELi49EE3runERS3_RKS3_)
                  00027ae6    0000001a     ExtendedKalman.obj (.text:_ZN5Eigen8internal40assign_LinearTraversal_CompleteUnrollingINS_6MatrixIfLi7ELi7ELi0ELi7ELi7EEES3_Li14ELi49EE3runERS3_RKS3_)
                  00027b00    0000001a     ExtendedKalman.obj (.text:_ZN5Eigen8internal40assign_LinearTraversal_CompleteUnrollingINS_6MatrixIfLi7ELi7ELi0ELi7ELi7EEES3_Li15ELi49EE3runERS3_RKS3_)
                  00027b1a    0000001a     ExtendedKalman.obj (.text:_ZN5Eigen8internal40assign_LinearTraversal_CompleteUnrollingINS_6MatrixIfLi7ELi7ELi0ELi7ELi7EEES3_Li16ELi49EE3runERS3_RKS3_)
                  00027b34    0000001a     ExtendedKalman.obj (.text:_ZN5Eigen8internal40assign_LinearTraversal_CompleteUnrollingINS_6MatrixIfLi7ELi7ELi0ELi7ELi7EEES3_Li17ELi49EE3runERS3_RKS3_)
                  00027b4e    0000001a     ExtendedKalman.obj (.text:_ZN5Eigen8internal40assign_LinearTraversal_CompleteUnrollingINS_6MatrixIfLi7ELi7ELi0ELi7ELi7EEES3_Li18ELi49EE3runERS3_RKS3_)
                  00027b68    0000001a     ExtendedKalman.obj (.text:_ZN5Eigen8internal40assign_LinearTraversal_CompleteUnrollingINS_6MatrixIfLi7ELi7ELi0ELi7ELi7EEES3_Li19ELi49EE3runERS3_RKS3_)
                  00027b82    0000001a     ExtendedKalman.obj (.text:_ZN5Eigen8internal40assign_LinearTraversal_CompleteUnrollingINS_6MatrixIfLi7ELi7ELi0ELi7ELi7EEES3_Li1ELi49EE3runERS3_RKS3_)
                  00027b9c    0000001a     ExtendedKalman.obj (.text:_ZN5Eigen8internal40assign_LinearTraversal_CompleteUnrollingINS_6MatrixIfLi7ELi7ELi0ELi7ELi7EEES3_Li20ELi49EE3runERS3_RKS3_)
                  00027bb6    0000001a     ExtendedKalman.obj (.text:_ZN5Eigen8internal40assign_LinearTraversal_CompleteUnrollingINS_6MatrixIfLi7ELi7ELi0ELi7ELi7EEES3_Li21ELi49EE3runERS3_RKS3_)
                  00027bd0    0000001a     ExtendedKalman.obj (.text:_ZN5Eigen8internal40assign_LinearTraversal_CompleteUnrollingINS_6MatrixIfLi7ELi7ELi0ELi7ELi7EEES3_Li22ELi49EE3runERS3_RKS3_)
                  00027bea    0000001a     ExtendedKalman.obj (.text:_ZN5Eigen8internal40assign_LinearTraversal_CompleteUnrollingINS_6MatrixIfLi7ELi7ELi0ELi7ELi7EEES3_Li23ELi49EE3runERS3_RKS3_)
                  00027c04    0000001a     ExtendedKalman.obj (.text:_ZN5Eigen8internal40assign_LinearTraversal_CompleteUnrollingINS_6MatrixIfLi7ELi7ELi0ELi7ELi7EEES3_Li24ELi49EE3runERS3_RKS3_)
                  00027c1e    0000001a     ExtendedKalman.obj (.text:_ZN5Eigen8internal40assign_LinearTraversal_CompleteUnrollingINS_6MatrixIfLi7ELi7ELi0ELi7ELi7EEES3_Li25ELi49EE3runERS3_RKS3_)
                  00027c38    0000001a     ExtendedKalman.obj (.text:_ZN5Eigen8internal40assign_LinearTraversal_CompleteUnrollingINS_6MatrixIfLi7ELi7ELi0ELi7ELi7EEES3_Li26ELi49EE3runERS3_RKS3_)
                  00027c52    0000001a     ExtendedKalman.obj (.text:_ZN5Eigen8internal40assign_LinearTraversal_CompleteUnrollingINS_6MatrixIfLi7ELi7ELi0ELi7ELi7EEES3_Li27ELi49EE3runERS3_RKS3_)
                  00027c6c    0000001a     ExtendedKalman.obj (.text:_ZN5Eigen8internal40assign_LinearTraversal_CompleteUnrollingINS_6MatrixIfLi7ELi7ELi0ELi7ELi7EEES3_Li28ELi49EE3runERS3_RKS3_)
                  00027c86    0000001a     ExtendedKalman.obj (.text:_ZN5Eigen8internal40assign_LinearTraversal_CompleteUnrollingINS_6MatrixIfLi7ELi7ELi0ELi7ELi7EEES3_Li29ELi49EE3runERS3_RKS3_)
                  00027ca0    0000001a     ExtendedKalman.obj (.text:_ZN5Eigen8internal40assign_LinearTraversal_CompleteUnrollingINS_6MatrixIfLi7ELi7ELi0ELi7ELi7EEES3_Li2ELi49EE3runERS3_RKS3_)
                  00027cba    0000001a     ExtendedKalman.obj (.text:_ZN5Eigen8internal40assign_LinearTraversal_CompleteUnrollingINS_6MatrixIfLi7ELi7ELi0ELi7ELi7EEES3_Li30ELi49EE3runERS3_RKS3_)
                  00027cd4    0000001a     ExtendedKalman.obj (.text:_ZN5Eigen8internal40assign_LinearTraversal_CompleteUnrollingINS_6MatrixIfLi7ELi7ELi0ELi7ELi7EEES3_Li31ELi49EE3runERS3_RKS3_)
                  00027cee    0000001a     ExtendedKalman.obj (.text:_ZN5Eigen8internal40assign_LinearTraversal_CompleteUnrollingINS_6MatrixIfLi7ELi7ELi0ELi7ELi7EEES3_Li32ELi49EE3runERS3_RKS3_)
                  00027d08    0000001a     ExtendedKalman.obj (.text:_ZN5Eigen8internal40assign_LinearTraversal_CompleteUnrollingINS_6MatrixIfLi7ELi7ELi0ELi7ELi7EEES3_Li33ELi49EE3runERS3_RKS3_)
                  00027d22    0000001a     ExtendedKalman.obj (.text:_ZN5Eigen8internal40assign_LinearTraversal_CompleteUnrollingINS_6MatrixIfLi7ELi7ELi0ELi7ELi7EEES3_Li34ELi49EE3runERS3_RKS3_)
                  00027d3c    0000001a     ExtendedKalman.obj (.text:_ZN5Eigen8internal40assign_LinearTraversal_CompleteUnrollingINS_6MatrixIfLi7ELi7ELi0ELi7ELi7EEES3_Li35ELi49EE3runERS3_RKS3_)
                  00027d56    0000001a     ExtendedKalman.obj (.text:_ZN5Eigen8internal40assign_LinearTraversal_CompleteUnrollingINS_6MatrixIfLi7ELi7ELi0ELi7ELi7EEES3_Li36ELi49EE3runERS3_RKS3_)
                  00027d70    0000001a     ExtendedKalman.obj (.text:_ZN5Eigen8internal40assign_LinearTraversal_CompleteUnrollingINS_6MatrixIfLi7ELi7ELi0ELi7ELi7EEES3_Li37ELi49EE3runERS3_RKS3_)
                  00027d8a    0000001a     ExtendedKalman.obj (.text:_ZN5Eigen8internal40assign_LinearTraversal_CompleteUnrollingINS_6MatrixIfLi7ELi7ELi0ELi7ELi7EEES3_Li38ELi49EE3runERS3_RKS3_)
                  00027da4    0000001a     ExtendedKalman.obj (.text:_ZN5Eigen8internal40assign_LinearTraversal_CompleteUnrollingINS_6MatrixIfLi7ELi7ELi0ELi7ELi7EEES3_Li39ELi49EE3runERS3_RKS3_)
                  00027dbe    0000001a     ExtendedKalman.obj (.text:_ZN5Eigen8internal40assign_LinearTraversal_CompleteUnrollingINS_6MatrixIfLi7ELi7ELi0ELi7ELi7EEES3_Li3ELi49EE3runERS3_RKS3_)
                  00027dd8    0000001a     ExtendedKalman.obj (.text:_ZN5Eigen8internal40assign_LinearTraversal_CompleteUnrollingINS_6MatrixIfLi7ELi7ELi0ELi7ELi7EEES3_Li40ELi49EE3runERS3_RKS3_)
                  00027df2    0000001a     ExtendedKalman.obj (.text:_ZN5Eigen8internal40assign_LinearTraversal_CompleteUnrollingINS_6MatrixIfLi7ELi7ELi0ELi7ELi7EEES3_Li41ELi49EE3runERS3_RKS3_)
                  00027e0c    0000001a     ExtendedKalman.obj (.text:_ZN5Eigen8internal40assign_LinearTraversal_CompleteUnrollingINS_6MatrixIfLi7ELi7ELi0ELi7ELi7EEES3_Li42ELi49EE3runERS3_RKS3_)
                  00027e26    0000001a     ExtendedKalman.obj (.text:_ZN5Eigen8internal40assign_LinearTraversal_CompleteUnrollingINS_6MatrixIfLi7ELi7ELi0ELi7ELi7EEES3_Li43ELi49EE3runERS3_RKS3_)
                  00027e40    0000001a     ExtendedKalman.obj (.text:_ZN5Eigen8internal40assign_LinearTraversal_CompleteUnrollingINS_6MatrixIfLi7ELi7ELi0ELi7ELi7EEES3_Li44ELi49EE3runERS3_RKS3_)
                  00027e5a    0000001a     ExtendedKalman.obj (.text:_ZN5Eigen8internal40assign_LinearTraversal_CompleteUnrollingINS_6MatrixIfLi7ELi7ELi0ELi7ELi7EEES3_Li45ELi49EE3runERS3_RKS3_)
                  00027e74    0000001a     ExtendedKalman.obj (.text:_ZN5Eigen8internal40assign_LinearTraversal_CompleteUnrollingINS_6MatrixIfLi7ELi7ELi0ELi7ELi7EEES3_Li46ELi49EE3runERS3_RKS3_)
                  00027e8e    0000001a     ExtendedKalman.obj (.text:_ZN5Eigen8internal40assign_LinearTraversal_CompleteUnrollingINS_6MatrixIfLi7ELi7ELi0ELi7ELi7EEES3_Li47ELi49EE3runERS3_RKS3_)
                  00027ea8    0000001a     ExtendedKalman.obj (.text:_ZN5Eigen8internal40assign_LinearTraversal_CompleteUnrollingINS_6MatrixIfLi7ELi7ELi0ELi7ELi7EEES3_Li48ELi49EE3runERS3_RKS3_)
                  00027ec2    0000001a     ExtendedKalman.obj (.text:_ZN5Eigen8internal40assign_LinearTraversal_CompleteUnrollingINS_6MatrixIfLi7ELi7ELi0ELi7ELi7EEES3_Li4ELi49EE3runERS3_RKS3_)
                  00027edc    0000001a     ExtendedKalman.obj (.text:_ZN5Eigen8internal40assign_LinearTraversal_CompleteUnrollingINS_6MatrixIfLi7ELi7ELi0ELi7ELi7EEES3_Li5ELi49EE3runERS3_RKS3_)
                  00027ef6    0000001a     ExtendedKalman.obj (.text:_ZN5Eigen8internal40assign_LinearTraversal_CompleteUnrollingINS_6MatrixIfLi7ELi7ELi0ELi7ELi7EEES3_Li6ELi49EE3runERS3_RKS3_)
                  00027f10    0000001a     ExtendedKalman.obj (.text:_ZN5Eigen8internal40assign_LinearTraversal_CompleteUnrollingINS_6MatrixIfLi7ELi7ELi0ELi7ELi7EEES3_Li7ELi49EE3runERS3_RKS3_)
                  00027f2a    0000001a     ExtendedKalman.obj (.text:_ZN5Eigen8internal40assign_LinearTraversal_CompleteUnrollingINS_6MatrixIfLi7ELi7ELi0ELi7ELi7EEES3_Li8ELi49EE3runERS3_RKS3_)
                  00027f44    0000001a     ExtendedKalman.obj (.text:_ZN5Eigen8internal40assign_LinearTraversal_CompleteUnrollingINS_6MatrixIfLi7ELi7ELi0ELi7ELi7EEES3_Li9ELi49EE3runERS3_RKS3_)
                  00027f5e    0000001a     PID.obj (.text:_ZNKSaIcE8max_sizeEv)
                  00027f78    0000001a     PID.obj (.text:_ZNKSt5ctypeIcE5widenEc)
                  00027f92    0000001a     rtsv7M4_T_le_v4SPD16_eabi.lib : wlocale.obj (.text:_ZNKSt7collateIwE7do_hashEPKwS2_)
                  00027fac    0000001a     PID.obj (.text:_ZNSt15basic_streambufIcSt11char_traitsIcEE5sputnEPKci)
                  00027fc6    0000001a     EigenTest.obj (.text:_ZNSt15basic_streambufIcSt11char_traitsIcEED1Ev)
                  00027fe0    0000001a     rtsv7M4_T_le_v4SPD16_eabi.lib : wiostrea.obj (.text:_ZNSt15basic_streambufIwSt11char_traitsIwEED0Ev)
                  00027ffa    0000001a     PID.obj (.text:_ZNSt19ostreambuf_iteratorIcSt11char_traitsIcEEC1EPSt15basic_streambufIcS1_E)
                  00028014    0000001a     PID.obj (.text:_ZNSt6localeC1ERKS_)
                  0002802e    0000001a     PID.obj (.text:_ZNSt8ios_base5widthEi)
                  00028048    0000001a     EigenTest.obj (.text:_ZNSt8ios_base9precisionEi)
                  00028062    0000001a     PID.obj (.text:_ZStanNSt5_IosbIiE9_FmtflagsES1_)
                  0002807c    0000001a     EigenTest.obj (.text:_ZStanNSt5_IosbIiE9_OpenmodeES1_)
                  00028096    0000001a     EigenTest.obj (.text:_ZStorNSt5_IosbIiE9_OpenmodeES1_)
                  000280b0    0000001a     EigenTest.obj (.text:_ZTv0_n12_NSdD0Ev)
                  000280ca    0000001a     EigenTest.obj (.text:_ZTv0_n12_NSiD0Ev)
                  000280e4    0000001a     EigenTest.obj (.text:_ZTv0_n12_NSoD0Ev)
                  000280fe    0000001a     rtsv7M4_T_le_v4SPD16_eabi.lib : wiostrea.obj (.text:_ZTv0_n12_NSt13basic_ostreamIwSt11char_traitsIwEED0Ev)
                  00028118    0000001a     EigenTest.obj (.text:_ZTv0_n12_NSt18basic_stringstreamIcSt11char_traitsIcESaIcEED0Ev)
                  00028132    0000001a     rtsv7M4_T_le_v4SPD16_eabi.lib : log.obj (.text)
                  0002814c    0000001a                                   : strcat.obj (.text)
                  00028166    00000018     driverlib.lib : gpio.obj (.text:GPIOPinRead)
                  0002817e    00000018                   : i2c.obj (.text:I2CMasterBusy)
                  00028196    00000018                   : ssi.obj (.text:SSIIntDisable)
                  000281ae    00000018                   : ssi.obj (.text:SSIIntEnable)
                  000281c6    00000018                   : timer.obj (.text:TimerIntDisable)
                  000281de    00000018                   : timer.obj (.text:TimerIntEnable)
                  000281f6    00000018     EigenTest.obj (.text:_ZN5Eigen15DenseCoeffsBaseINS_6MatrixIdLin1ELin1ELi0ELin1ELin1EEELi1EEclEii)
                  0002820e    00000018     ExtendedKalman.obj (.text:_ZN5Eigen15DenseCoeffsBaseINS_6MatrixIfLi3ELi3ELi0ELi3ELi3EEELi1EEclEii)
                  00028226    00000018     ExtendedKalman.obj (.text:_ZN5Eigen15DenseCoeffsBaseINS_6MatrixIfLi3ELi7ELi0ELi3ELi7EEELi1EEclEii)
                  0002823e    00000018     ExtendedKalman.obj (.text:_ZN5Eigen15DenseCoeffsBaseINS_6MatrixIfLi7ELi7ELi0ELi7ELi7EEELi1EEclEii)
                  00028256    00000018     ExtendedKalman.obj (.text:_ZN5Eigen17SelfCwiseBinaryOpINS_8internal17scalar_product_opIffEENS_6MatrixIfLi7ELi7ELi0ELi7ELi7EEENS_14CwiseNullaryOpINS1_18scalar_constant_opIfEES5_EEE10lazyAssignIS9_EERSA_RKNS_9DenseBaseIT_EE)
                  0002826e    00000018     EigenTest.obj (.text:_ZN5Eigen8internal9cast_implIfiE3runERKf)
                  00028286    00000002     --HOLE-- [fill = 0]
                  00028288    00000018     ExtendedKalman.obj (.text:_ZN5Eigen9DenseBaseINS_6MatrixIfLi3ELi1ELi0ELi3ELi1EEEE4ZeroEv)
                  000282a0    00000018     ExtendedKalman.obj (.text:_ZN5Eigen9DenseBaseINS_6MatrixIfLi3ELi3ELi0ELi3ELi3EEEE4ZeroEv)
                  000282b8    00000018     ExtendedKalman.obj (.text:_ZN5Eigen9DenseBaseINS_6MatrixIfLi3ELi7ELi0ELi3ELi7EEEE4ZeroEv)
                  000282d0    00000018     ExtendedKalman.obj (.text:_ZN5Eigen9DenseBaseINS_6MatrixIfLi7ELi1ELi0ELi7ELi1EEEE4ZeroEv)
                  000282e8    00000018     ExtendedKalman.obj (.text:_ZN5Eigen9DenseBaseINS_6MatrixIfLi7ELi3ELi0ELi7ELi3EEEE4ZeroEv)
                  00028300    00000018     ExtendedKalman.obj (.text:_ZN5Eigen9DenseBaseINS_6MatrixIfLi7ELi7ELi0ELi7ELi7EEEE4ZeroEv)
                  00028318    00000018     ExtendedKalman.obj (.text:_ZN5Eigen9TransposeIKNS_12CwiseUnaryOpINS_8internal18scalar_multiple_opIfEEKNS_6MatrixIfLi3ELi1ELi0ELi3ELi1EEEEEEC1ERS9_)
                  00028330    00000018     ExtendedKalman.obj (.text:_ZNK5Eigen13TransposeImplIKNS_12CwiseUnaryOpINS_8internal18scalar_multiple_opIfEEKNS_6MatrixIfLi3ELi1ELi0ELi3ELi1EEEEENS_5DenseEE5coeffEi)
                  00028348    00000018     ExtendedKalman.obj (.text:_ZNK5Eigen15DenseCoeffsBaseINS_13CwiseBinaryOpINS_8internal17scalar_product_opIffEEKNS_6MatrixIfLi3ELi1ELi0ELi3ELi1EEEKNS_5BlockIKNS5_IfLi3ELi3ELi0ELi3ELi3EEELi3ELi1ELb1EEEEELi0EE5coeffEii)
                  00028360    00000018     PID.obj (.text:_ZNKSt5ctypeIcE10do_tolowerEc)
                  00028378    00000018     PID.obj (.text:_ZNKSt5ctypeIcE10do_toupperEc)
                  00028390    00000018     rtsv7M4_T_le_v4SPD16_eabi.lib : xlocale.obj (.text:_ZNKSt7collateIcE7do_hashEPKcS2_)
                  000283a8    00000018     PID.obj (.text:_ZNKSt8ios_base4failEv)
                  000283c0    00000018     PID.obj (.text:_ZNSs6assignEPKc)
                  000283d8    00000018     PID.obj (.text:_ZNSt11char_traitsIcE6assignEPcjc)
                  000283f0    00000018     EigenTest.obj (.text:_ZNSt15basic_streambufIcSt11char_traitsIcEE5gbumpEi)
                  00028408    00000018     EigenTest.obj (.text:_ZNSt15basic_streambufIcSt11char_traitsIcEE5pbumpEi)
                  00028420    00000018     EigenTest.obj (.text:_ZNSt8ios_baseC1Ev)
                  00028438    00000018     EigenTest.obj (.text:_ZNSt9basic_iosIcSt11char_traitsIcEEC1Ev)
                  00028450    00000018     AHRS.obj (.text:_ZSt5atan2ff)
                  00028468    00000018     GPTimer.obj (.text:retain)
                  00028480    00000018     SPISlave.obj (.text:retain)
                  00028498    00000018     rtsv7M4_T_le_v4SPD16_eabi.lib : args_main.obj (.text)
                  000284b0    00000018                                   : ll_mul_t2.obj (.text)
                  000284c8    00000018                                   : strcmp.obj (.text)
                  000284e0    00000016     driverlib.lib : i2c.obj (.text:I2CMasterDataPut)
                  000284f6    00000016                   : i2c.obj (.text:I2CMasterEnable)
                  0002850c    00000016                   : ssi.obj (.text:SSIEnable)
                  00028522    00000016     SPISlave.obj (.text:_ZN15RingBufferClassI9message_sED0Ev)
                  00028538    00000016     SPISlave.obj (.text:_ZN15RingBufferClassIhED0Ev)
                  0002854e    00000016     ExtendedKalman.obj (.text:_ZN5Eigen5BlockIKNS_6MatrixIfLi3ELi3ELi0ELi3ELi3EEELi3ELi1ELb1EEC1ERS3_i)
                  00028564    00000016     ExtendedKalman.obj (.text:_ZN5Eigen5BlockINS_6MatrixIfLi3ELi3ELi0ELi3ELi3EEELi1ELi3ELb0EEC1ERS2_i)
                  0002857a    00000016     ExtendedKalman.obj (.text:_ZN5Eigen8internal12inverse_implINS_6MatrixIfLi3ELi3ELi0ELi3ELi3EEEEC1ERKS3_)
                  00028590    00000016     ExtendedKalman.obj (.text:_ZN5Eigen8internal15assign_selectorINS_17SelfCwiseBinaryOpINS0_17scalar_product_opIffEENS_6MatrixIfLi7ELi7ELi0ELi7ELi7EEENS_14CwiseNullaryOpINS0_18scalar_constant_opIfEES6_EEEESA_Lb0ELb0EE3runERSB_RKSA_)
                  000285a6    00000016     ExtendedKalman.obj (.text:_ZN5Eigen8internal15assign_selectorINS_6MatrixIfLi3ELi1ELi0ELi3ELi1EEENS_13CwiseBinaryOpINS0_20scalar_difference_opIfEEKS3_S7_EELb0ELb0EE3runERS3_RKS8_)
                  000285bc    00000016     ExtendedKalman.obj (.text:_ZN5Eigen8internal15assign_selectorINS_6MatrixIfLi3ELi1ELi0ELi3ELi1EEENS_14CwiseNullaryOpINS0_18scalar_constant_opIfEES3_EELb0ELb0EE3runERS3_RKS7_)
                  000285d2    00000016     ExtendedKalman.obj (.text:_ZN5Eigen8internal15assign_selectorINS_6MatrixIfLi3ELi3ELi0ELi3ELi3EEENS_13CwiseBinaryOpINS0_13scalar_sum_opIfEEKNS_17CoeffBasedProductIRKNS2_IfLi3ELi7ELi0ELi3ELi7EEEKNS_9TransposeIS8_EELi6EEEKS3_EELb0ELb0EE3runERS3_RKSH_)
                  000285e8    00000016     ExtendedKalman.obj (.text:_ZN5Eigen8internal15assign_selectorINS_6MatrixIfLi3ELi3ELi0ELi3ELi3EEENS_14CwiseNullaryOpINS0_18scalar_constant_opIfEES3_EELb0ELb0EE3runERS3_RKS7_)
                  000285fe    00000016     ExtendedKalman.obj (.text:_ZN5Eigen8internal15assign_selectorINS_6MatrixIfLi3ELi3ELi1ELi3ELi3EEENS_17CoeffBasedProductIRKNS2_IfLi3ELi7ELi0ELi3ELi7EEEKNS_9TransposeIS5_EELi6EEELb0ELb0EE3runERS3_RKSB_)
                  00028614    00000016     ExtendedKalman.obj (.text:_ZN5Eigen8internal15assign_selectorINS_6MatrixIfLi3ELi7ELi0ELi3ELi7EEENS_14CwiseNullaryOpINS0_18scalar_constant_opIfEES3_EELb0ELb0EE3runERS3_RKS7_)
                  0002862a    00000016     ExtendedKalman.obj (.text:_ZN5Eigen8internal15assign_selectorINS_6MatrixIfLi7ELi1ELi0ELi7ELi1EEENS_13CwiseBinaryOpINS0_13scalar_sum_opIfEEKS3_KNS_17CoeffBasedProductIRKNS2_IfLi7ELi3ELi0ELi7ELi3EEERKNS2_IfLi3ELi1ELi0ELi3ELi1EEELi6EEEEELb0ELb0EE3runERS3_RKSH_)
                  00028640    00000016     ExtendedKalman.obj (.text:_ZN5Eigen8internal15assign_selectorINS_6MatrixIfLi7ELi1ELi0ELi7ELi1EEENS_14CwiseNullaryOpINS0_18scalar_constant_opIfEES3_EELb0ELb0EE3runERS3_RKS7_)
                  00028656    00000016     ExtendedKalman.obj (.text:_ZN5Eigen8internal15assign_selectorINS_6MatrixIfLi7ELi1ELi0ELi7ELi1EEENS_17CoeffBasedProductIRKNS2_IfLi7ELi3ELi0ELi7ELi3EEERKNS2_IfLi3ELi1ELi0ELi3ELi1EEELi6EEELb0ELb0EE3runERS3_RKSB_)
                  0002866c    00000016     ExtendedKalman.obj (.text:_ZN5Eigen8internal15assign_selectorINS_6MatrixIfLi7ELi3ELi0ELi7ELi3EEENS_14CwiseNullaryOpINS0_18scalar_constant_opIfEES3_EELb0ELb0EE3runERS3_RKS7_)
                  00028682    00000016     ExtendedKalman.obj (.text:_ZN5Eigen8internal15assign_selectorINS_6MatrixIfLi7ELi3ELi0ELi7ELi3EEENS_17CoeffBasedProductIRKNS2_IfLi7ELi3ELi1ELi7ELi3EEENS2_IfLi3ELi3ELi0ELi3ELi3EEELi6EEELb0ELb0EE3runERS3_RKS9_)
                  00028698    00000016     ExtendedKalman.obj (.text:_ZN5Eigen8internal15assign_selectorINS_6MatrixIfLi7ELi3ELi0ELi7ELi3EEES3_Lb0ELb0EE3runERS3_RKS3_)
                  000286ae    00000016     ExtendedKalman.obj (.text:_ZN5Eigen8internal15assign_selectorINS_6MatrixIfLi7ELi7ELi0ELi7ELi7EEENS_13CwiseBinaryOpINS0_13scalar_sum_opIfEEKNS_17CoeffBasedProductIRKS3_KNS_9TransposeIS3_EELi6EEES8_EELb0ELb0EE3runERS3_RKSF_)
                  000286c4    00000016     ExtendedKalman.obj (.text:_ZN5Eigen8internal15assign_selectorINS_6MatrixIfLi7ELi7ELi0ELi7ELi7EEENS_13CwiseBinaryOpINS0_20scalar_difference_opIfEEKS3_KNS_17CoeffBasedProductIRKNS2_IfLi7ELi3ELi0ELi7ELi3EEERKNS2_IfLi3ELi7ELi0ELi3ELi7EEELi6EEEEELb0ELb0EE3runERS3_RKSH_)
                  000286da    00000016     ExtendedKalman.obj (.text:_ZN5Eigen8internal15assign_selectorINS_6MatrixIfLi7ELi7ELi0ELi7ELi7EEENS_14CwiseNullaryOpINS0_18scalar_constant_opIfEES3_EELb0ELb0EE3runERS3_RKS7_)
                  000286f0    00000016     ExtendedKalman.obj (.text:_ZN5Eigen8internal15assign_selectorINS_6MatrixIfLi7ELi7ELi0ELi7ELi7EEENS_14CwiseNullaryOpINS0_18scalar_identity_opIfEES3_EELb0ELb0EE3runERS3_RKS7_)
                  00028706    00000016     ExtendedKalman.obj (.text:_ZN5Eigen8internal15assign_selectorINS_6MatrixIfLi7ELi7ELi0ELi7ELi7EEENS_17CoeffBasedProductIRKNS2_IfLi7ELi3ELi0ELi7ELi3EEERKNS2_IfLi3ELi7ELi0ELi3ELi7EEELi6EEELb0ELb0EE3runERS3_RKSB_)
                  0002871c    00000016     ExtendedKalman.obj (.text:_ZN5Eigen8internal15assign_selectorINS_6MatrixIfLi7ELi7ELi0ELi7ELi7EEENS_17CoeffBasedProductIS3_RKS3_Li6EEELb0ELb0EE3runERS3_RKS7_)
                  00028732    00000016     ExtendedKalman.obj (.text:_ZN5Eigen8internal15assign_selectorINS_6MatrixIfLi7ELi7ELi0ELi7ELi7EEES3_Lb0ELb0EE3runERS3_RKS3_)
                  00028748    00000016     ExtendedKalman.obj (.text:_ZN5Eigen8internal15assign_selectorINS_6MatrixIfLi7ELi7ELi1ELi7ELi7EEENS_17CoeffBasedProductIRKNS2_IfLi7ELi7ELi0ELi7ELi7EEEKNS_9TransposeIS5_EELi6EEELb0ELb0EE3runERS3_RKSB_)
                  0002875e    00000016     ExtendedKalman.obj (.text:_ZN5Eigen8internal18scalar_constant_opIfEC1ERKS2_)
                  00028774    00000016     ExtendedKalman.obj (.text:_ZN5Eigen8internal18scalar_constant_opIfEC1ERKf)
                  0002878a    00000016     ExtendedKalman.obj (.text:_ZN5Eigen8internal18scalar_multiple_opIfEC1ERKS2_)
                  000287a0    00000016     ExtendedKalman.obj (.text:_ZN5Eigen8internal18scalar_multiple_opIfEC1ERKf)
                  000287b6    00000016     ExtendedKalman.obj (.text:_ZN5Eigen9BlockImplIKNS_6MatrixIfLi3ELi3ELi0ELi3ELi3EEELi3ELi1ELb1ENS_5DenseEEC1ERS3_i)
                  000287cc    00000016     ExtendedKalman.obj (.text:_ZN5Eigen9BlockImplINS_6MatrixIfLi3ELi3ELi0ELi3ELi3EEELi1ELi3ELb0ENS_5DenseEEC1ERS2_i)
                  000287e2    00000016     ExtendedKalman.obj (.text:_ZN5Eigen9DenseBaseINS_6MatrixIfLi3ELi7ELi0ELi3ELi7EEEE9transposeEv)
                  000287f8    00000016     ExtendedKalman.obj (.text:_ZN5Eigen9DenseBaseINS_6MatrixIfLi7ELi7ELi0ELi7ELi7EEEE9transposeEv)
                  0002880e    00000016     ExtendedKalman.obj (.text:_ZN5Eigen9TransposeINS_6MatrixIfLi3ELi7ELi0ELi3ELi7EEEEC1ERS2_)
                  00028824    00000016     ExtendedKalman.obj (.text:_ZN5Eigen9TransposeINS_6MatrixIfLi7ELi7ELi0ELi7ELi7EEEEC1ERS2_)
                  0002883a    00000016     ExtendedKalman.obj (.text:_ZNK5Eigen10MatrixBaseINS_6MatrixIfLi3ELi3ELi0ELi3ELi3EEEE7inverseEv)
                  00028850    00000016     ExtendedKalman.obj (.text:_ZNK5Eigen14CwiseNullaryOpINS_8internal18scalar_identity_opIfEENS_6MatrixIfLi7ELi7ELi0ELi7ELi7EEEE5coeffEii)
                  00028866    00000016     ExtendedKalman.obj (.text:_ZNK5Eigen8internal12inverse_implINS_6MatrixIfLi3ELi3ELi0ELi3ELi3EEEE6evalToIS3_EEvRT_)
                  0002887c    00000016     ExtendedKalman.obj (.text:_ZNK5Eigen9DenseBaseINS_12CwiseUnaryOpINS_8internal18scalar_multiple_opIfEEKNS_6MatrixIfLi3ELi1ELi0ELi3ELi1EEEEEE9transposeEv)
                  00028892    00000016     EigenTest.obj (.text:_ZNK5Eigen9DenseBaseINS_14CwiseNullaryOpINS_8internal18scalar_constant_opIfEENS_6MatrixIfLi7ELi7ELi0ELi7ELi7EEEEEE4evalEv)
                  000288a8    00000016     ExtendedKalman.obj (.text:_ZNK5Eigen9DenseBaseINS_17CoeffBasedProductINS_6MatrixIfLi7ELi7ELi0ELi7ELi7EEERKS3_Li6EEEE4evalEv)
                  000288be    00000016     ExtendedKalman.obj (.text:_ZNK5Eigen9DenseBaseINS_17CoeffBasedProductIRKNS_6MatrixIfLi7ELi3ELi1ELi7ELi3EEENS2_IfLi3ELi3ELi0ELi3ELi3EEELi6EEEE4evalEv)
                  000288d4    00000016     EigenTest.obj (.text:_ZNK5Eigen9EigenBaseINS_6MatrixIdLin1ELin1ELi0ELin1ELin1EEEE4sizeEv)
                  000288ea    00000016     ExtendedKalman.obj (.text:_ZNK5Eigen9EigenBaseINS_6MatrixIfLi7ELi7ELi0ELi7ELi7EEEE4sizeEv)
                  00028900    00000016     PID.obj (.text:_ZNKSt5ctypeIcE9do_narrowEcc)
                  00028916    00000016     PID.obj (.text:_ZNKSt8numpunctIcE8groupingEv)
                  0002892c    00000016     PID.obj (.text:_ZNKSt8numpunctIcE8truenameEv)
                  00028942    00000016     PID.obj (.text:_ZNKSt8numpunctIcE9falsenameEv)
                  00028958    00000016     EigenTest.obj (.text:_ZNSdD0Ev)
                  0002896e    00000016     EigenTest.obj (.text:_ZNSiD0Ev)
                  00028984    00000016     PID.obj (.text:_ZNSo6sentryD1Ev)
                  0002899a    00000016     EigenTest.obj (.text:_ZNSoD0Ev)
                  000289b0    00000016     EigenTest.obj (.text:_ZNSspLEc)
                  000289c6    00000016     PID.obj (.text:_ZNSt10ctype_baseD0Ev)
                  000289dc    00000016     rtsv7M4_T_le_v4SPD16_eabi.lib : wiostrea.obj (.text:_ZNSt13basic_istreamIwSt11char_traitsIwEED0Ev)
                  000289f2    00000016     EigenTest.obj (.text:_ZNSt15basic_streambufIcSt11char_traitsIcEED0Ev)
                  00028a08    00000016     EigenTest.obj (.text:_ZNSt15basic_stringbufIcSt11char_traitsIcESaIcEED0Ev)
                  00028a1e    00000016     EigenTest.obj (.text:_ZNSt18basic_stringstreamIcSt11char_traitsIcESaIcEEC1ENSt5_IosbIiE9_OpenmodeE)
                  00028a34    00000016     EigenTest.obj (.text:_ZNSt18basic_stringstreamIcSt11char_traitsIcESaIcEED0Ev)
                  00028a4a    00000016     PID.obj (.text:_ZNSt5ctypeIcED0Ev)
                  00028a60    00000016     PID.obj (.text:_ZNSt6locale5facetD0Ev)
                  00028a76    00000016     PID.obj (.text:_ZNSt7num_putIcSt19ostreambuf_iteratorIcSt11char_traitsIcEEED0Ev)
                  00028a8c    00000016     PID.obj (.text:_ZNSt8numpunctIcED0Ev)
                  00028aa2    00000016     EigenTest.obj (.text:_ZNSt9basic_iosIcSt11char_traitsIcEED0Ev)
                  00028ab8    00000016     EigenTest.obj (.text:_ZThn8_NSdD1Ev)
                  00028ace    00000016     EigenTest.obj (.text:_ZThn8_NSt18basic_stringstreamIcSt11char_traitsIcESaIcEED1Ev)
                  00028ae4    00000016     rtsv7M4_T_le_v4SPD16_eabi.lib : wiostrea.obj (.text:_ZTv0_n12_NSt13basic_istreamIwSt11char_traitsIwEED1Ev)
                  00028afa    00000016                                   : memchr.obj (.text)
                  00028b10    00000016                                   : strchr.obj (.text)
                  00028b26    00000014     ExtendedKalman.obj (.text:_ZN5Eigen15DenseCoeffsBaseINS_6MatrixIfLi3ELi1ELi0ELi3ELi1EEELi1EEclEi)
                  00028b3a    00000014     ExtendedKalman.obj (.text:_ZN5Eigen15DenseCoeffsBaseINS_6MatrixIfLi7ELi1ELi0ELi7ELi1EEELi1EEclEi)
                  00028b4e    00000014     EigenTest.obj (.text:_ZN5Eigen15PlainObjectBaseINS_6MatrixIdLin1ELin1ELi0ELin1ELin1EEEEC1Ev)
                  00028b62    00000014     ExtendedKalman.obj (.text:_ZN5Eigen15PlainObjectBaseINS_6MatrixIfLi3ELi1ELi0ELi3ELi1EEEE8coeffRefEi)
                  00028b76    00000014     ExtendedKalman.obj (.text:_ZN5Eigen15PlainObjectBaseINS_6MatrixIfLi3ELi1ELi0ELi3ELi1EEEEC1Ev)
                  00028b8a    00000014     ExtendedKalman.obj (.text:_ZN5Eigen15PlainObjectBaseINS_6MatrixIfLi3ELi3ELi0ELi3ELi3EEEE8coeffRefEi)
                  00028b9e    00000014     ExtendedKalman.obj (.text:_ZN5Eigen15PlainObjectBaseINS_6MatrixIfLi3ELi3ELi0ELi3ELi3EEEEC1Ev)
                  00028bb2    00000014     ExtendedKalman.obj (.text:_ZN5Eigen15PlainObjectBaseINS_6MatrixIfLi3ELi3ELi1ELi3ELi3EEEEC1Ev)
                  00028bc6    00000014     ExtendedKalman.obj (.text:_ZN5Eigen15PlainObjectBaseINS_6MatrixIfLi3ELi7ELi0ELi3ELi7EEEE8coeffRefEi)
                  00028bda    00000014     ExtendedKalman.obj (.text:_ZN5Eigen15PlainObjectBaseINS_6MatrixIfLi3ELi7ELi0ELi3ELi7EEEEC1Ev)
                  00028bee    00000014     ExtendedKalman.obj (.text:_ZN5Eigen15PlainObjectBaseINS_6MatrixIfLi7ELi1ELi0ELi7ELi1EEEE8coeffRefEi)
                  00028c02    00000014     ExtendedKalman.obj (.text:_ZN5Eigen15PlainObjectBaseINS_6MatrixIfLi7ELi1ELi0ELi7ELi1EEEEC1Ev)
                  00028c16    00000014     ExtendedKalman.obj (.text:_ZN5Eigen15PlainObjectBaseINS_6MatrixIfLi7ELi3ELi0ELi7ELi3EEEE8coeffRefEi)
                  00028c2a    00000014     ExtendedKalman.obj (.text:_ZN5Eigen15PlainObjectBaseINS_6MatrixIfLi7ELi3ELi0ELi7ELi3EEEEC1Ev)
                  00028c3e    00000014     ExtendedKalman.obj (.text:_ZN5Eigen15PlainObjectBaseINS_6MatrixIfLi7ELi3ELi1ELi7ELi3EEEEC1Ev)
                  00028c52    00000014     ExtendedKalman.obj (.text:_ZN5Eigen15PlainObjectBaseINS_6MatrixIfLi7ELi7ELi0ELi7ELi7EEEE8coeffRefEi)
                  00028c66    00000014     ExtendedKalman.obj (.text:_ZN5Eigen15PlainObjectBaseINS_6MatrixIfLi7ELi7ELi0ELi7ELi7EEEEC1Ev)
                  00028c7a    00000014     ExtendedKalman.obj (.text:_ZN5Eigen15PlainObjectBaseINS_6MatrixIfLi7ELi7ELi1ELi7ELi7EEEEC1Ev)
                  00028c8e    00000014     ExtendedKalman.obj (.text:_ZN5Eigen8internal15BlockImpl_denseIKNS_6MatrixIfLi3ELi3ELi0ELi3ELi3EEELi3ELi1ELb1ELb1EEC2ERS4_i)
                  00028ca2    00000014     ExtendedKalman.obj (.text:_ZN5Eigen8internal15BlockImpl_denseINS_6MatrixIfLi3ELi3ELi0ELi3ELi3EEELi1ELi3ELb0ELb1EEC2ERS3_i)
                  00028cb6    00000014     EigenTest.obj (.text:_ZN5Eigen8internal21handmade_aligned_freeEPv)
                  00028cca    00000014     EigenTest.obj (.text:_ZN5Eigen8internal23check_size_for_overflowIdEEvj)
                  00028cde    00000014     ExtendedKalman.obj (.text:_ZN5Eigen9BlockImplIKNS_6MatrixIfLi3ELi3ELi0ELi3ELi3EEELi3ELi1ELb1ENS_5DenseEEC2ERS3_i)
                  00028cf2    00000014     ExtendedKalman.obj (.text:_ZN5Eigen9BlockImplINS_6MatrixIfLi3ELi3ELi0ELi3ELi3EEELi1ELi3ELb0ENS_5DenseEEC2ERS2_i)
                  00028d06    00000014     ExtendedKalman.obj (.text:_ZNK5Eigen14CwiseNullaryOpINS_8internal18scalar_constant_opIfEENS_6MatrixIfLi3ELi1ELi0ELi3ELi1EEEE5coeffEi)
                  00028d1a    00000014     ExtendedKalman.obj (.text:_ZNK5Eigen14CwiseNullaryOpINS_8internal18scalar_constant_opIfEENS_6MatrixIfLi3ELi3ELi0ELi3ELi3EEEE5coeffEi)
                  00028d2e    00000014     ExtendedKalman.obj (.text:_ZNK5Eigen14CwiseNullaryOpINS_8internal18scalar_constant_opIfEENS_6MatrixIfLi3ELi7ELi0ELi3ELi7EEEE5coeffEi)
                  00028d42    00000014     ExtendedKalman.obj (.text:_ZNK5Eigen14CwiseNullaryOpINS_8internal18scalar_constant_opIfEENS_6MatrixIfLi7ELi1ELi0ELi7ELi1EEEE5coeffEi)
                  00028d56    00000014     ExtendedKalman.obj (.text:_ZNK5Eigen14CwiseNullaryOpINS_8internal18scalar_constant_opIfEENS_6MatrixIfLi7ELi3ELi0ELi7ELi3EEEE5coeffEi)
                  00028d6a    00000014     ExtendedKalman.obj (.text:_ZNK5Eigen14CwiseNullaryOpINS_8internal18scalar_constant_opIfEENS_6MatrixIfLi7ELi7ELi0ELi7ELi7EEEE5coeffEi)
                  00028d7e    00000014     ExtendedKalman.obj (.text:_ZNK5Eigen15PlainObjectBaseINS_6MatrixIfLi3ELi1ELi0ELi3ELi1EEEE5coeffEi)
                  00028d92    00000014     ExtendedKalman.obj (.text:_ZNK5Eigen15PlainObjectBaseINS_6MatrixIfLi7ELi1ELi0ELi7ELi1EEEE5coeffEi)
                  00028da6    00000014     ExtendedKalman.obj (.text:_ZNK5Eigen15PlainObjectBaseINS_6MatrixIfLi7ELi3ELi0ELi7ELi3EEEE5coeffEi)
                  00028dba    00000014     ExtendedKalman.obj (.text:_ZNK5Eigen15PlainObjectBaseINS_6MatrixIfLi7ELi7ELi0ELi7ELi7EEEE5coeffEi)
                  00028dce    00000014     ExtendedKalman.obj (.text:_ZNK5Eigen17CoeffBasedProductIRKNS_6MatrixIfLi3ELi7ELi0ELi3ELi7EEERKNS1_IfLi7ELi7ELi0ELi7ELi7EEELi6EEcvS4_Ev)
                  00028de2    00000014     ExtendedKalman.obj (.text:_ZNK5Eigen17CoeffBasedProductIRKNS_6MatrixIfLi7ELi7ELi0ELi7ELi7EEEKNS_9TransposeINS1_IfLi3ELi7ELi0ELi3ELi7EEEEELi6EEcvRKNS1_IfLi7ELi3ELi1ELi7ELi3EEEEv)
                  00028df6    00000014     ExtendedKalman.obj (.text:_ZNK5Eigen17CoeffBasedProductIRKNS_6MatrixIfLi7ELi7ELi0ELi7ELi7EEES4_Li6EEcvS4_Ev)
                  00028e0a    00000014     ExtendedKalman.obj (.text:_ZNK5Eigen8internal18scalar_constant_opIfEclIiEEKfT_S5_)
                  00028e1e    00000014     ExtendedKalman.obj (.text:_ZNK5Eigen9DenseBaseINS_13CwiseBinaryOpINS_8internal17scalar_product_opIffEEKNS_6MatrixIfLi3ELi1ELi0ELi3ELi1EEEKNS_5BlockIKNS5_IfLi3ELi3ELi0ELi3ELi3EEELi3ELi1ELb1EEEEEE5reduxINS2_13scalar_sum_opIfEEEENS2_9result_ofIFT_fEE4typeERKSJ_)
                  00028e32    00000014     EigenTest.obj (.text:_ZNKSsixEj)
                  00028e46    00000014     EigenTest.obj (.text:_ZNKSt4fposIiEcvlEv)
                  00028e5a    00000014     PID.obj (.text:_ZNKSt8ios_base4goodEv)
                  00028e6e    00000014     PID.obj (.text:_ZNSsixEj)
                  00028e82    00000014     PID.obj (.text:_ZNSt11char_traitsIcE4copyEPcPKcj)
                  00028e96    00000014     PID.obj (.text:_ZNSt11char_traitsIcE4moveEPcPKcj)
                  00028eaa    00000014     PID.obj (.text:_ZNSt11char_traitsIcE6assignERcRKc)
                  00028ebe    00000014     rtsv7M4_T_le_v4SPD16_eabi.lib : wiostrea.obj (.text:_ZNSt13basic_ostreamIwSt11char_traitsIwEED0Ev)
                  00028ed2    00000002     --HOLE-- [fill = 0]
                  00028ed4    00000014     EigenTest.obj (.text:_ZNSt14numeric_limitsIdE7epsilonEv)
                  00028ee8    00000014     EigenTest.obj (.text:_ZNSt15basic_streambufIcSt11char_traitsIcEE6_GnincEv)
                  00028efc    00000014     PID.obj (.text:_ZNSt15basic_streambufIcSt11char_traitsIcEE6_PnincEv)
                  00028f10    00000014     rtsv7M4_T_le_v4SPD16_eabi.lib : wiostrea.obj (.text:_ZNSt15basic_streambufIwSt11char_traitsIwEED1Ev)
                  00028f24    00000014     PID.obj (.text:_ZNSt6locale2idC1Ej)
                  00028f38    00000014     PID.obj (.text:_ZSt10_MaklocchrIcET_cPS0_RKSt7_Cvtvec)
                  00028f4c    00000014     ExtendedKalman.obj (.text:_ZSt3powfi)
                  00028f60    00000014     rtsv7M4_T_le_v4SPD16_eabi.lib : wiostrea.obj (.text:_ZTv0_n12_NSt13basic_ostreamIwSt11char_traitsIwEED1Ev)
                  00028f74    00000014                                   : _lock.obj (.text)
                  00028f88    00000014                                   : strlen.obj (.text)
                  00028f9c    00000012     driverlib.lib : i2c.obj (.text:I2CMasterControl)
                  00028fae    00000012                   : ssi.obj (.text:SSIIntClear)
                  00028fc0    00000012                   : timer.obj (.text:TimerIntClear)
                  00028fd2    00000012     ExtendedKalman.obj (.text:_ZN5Eigen15PlainObjectBaseINS_6MatrixIfLi3ELi1ELi0ELi3ELi1EEEE13_set_selectorINS_13CwiseBinaryOpINS_8internal20scalar_difference_opIfEEKS2_S9_EEEEvRKT_RKNS6_10false_typeE)
                  00028fe4    00000012     ExtendedKalman.obj (.text:_ZN5Eigen15PlainObjectBaseINS_6MatrixIfLi3ELi1ELi0ELi3ELi1EEEE13_set_selectorINS_14CwiseNullaryOpINS_8internal18scalar_constant_opIfEES2_EEEEvRKT_RKNS6_10false_typeE)
                  00028ff6    00000012     ExtendedKalman.obj (.text:_ZN5Eigen15PlainObjectBaseINS_6MatrixIfLi3ELi3ELi0ELi3ELi3EEEE13_set_selectorINS_13CwiseBinaryOpINS_8internal13scalar_sum_opIfEEKNS_17CoeffBasedProductIRKNS1_IfLi3ELi7ELi0ELi3ELi7EEEKNS_9TransposeISA_EELi6EEEKS2_EEEEvRKT_RKNS6_10false_typeE)
                  00029008    00000012     ExtendedKalman.obj (.text:_ZN5Eigen15PlainObjectBaseINS_6MatrixIfLi3ELi3ELi0ELi3ELi3EEEE13_set_selectorINS_14CwiseNullaryOpINS_8internal18scalar_constant_opIfEES2_EEEEvRKT_RKNS6_10false_typeE)
                  0002901a    00000012     ExtendedKalman.obj (.text:_ZN5Eigen15PlainObjectBaseINS_6MatrixIfLi3ELi7ELi0ELi3ELi7EEEE13_set_selectorINS_14CwiseNullaryOpINS_8internal18scalar_constant_opIfEES2_EEEEvRKT_RKNS6_10false_typeE)
                  0002902c    00000012     ExtendedKalman.obj (.text:_ZN5Eigen15PlainObjectBaseINS_6MatrixIfLi7ELi1ELi0ELi7ELi1EEEE13_set_selectorINS_13CwiseBinaryOpINS_8internal13scalar_sum_opIfEEKS2_KNS_17CoeffBasedProductIRKNS1_IfLi7ELi3ELi0ELi7ELi3EEERKNS1_IfLi3ELi1ELi0ELi3ELi1EEELi6EEEEEEEvRKT_RKNS6_10false_typeE)
                  0002903e    00000012     ExtendedKalman.obj (.text:_ZN5Eigen15PlainObjectBaseINS_6MatrixIfLi7ELi1ELi0ELi7ELi1EEEE13_set_selectorINS_14CwiseNullaryOpINS_8internal18scalar_constant_opIfEES2_EEEEvRKT_RKNS6_10false_typeE)
                  00029050    00000012     ExtendedKalman.obj (.text:_ZN5Eigen15PlainObjectBaseINS_6MatrixIfLi7ELi3ELi0ELi7ELi3EEEE13_set_selectorINS_14CwiseNullaryOpINS_8internal18scalar_constant_opIfEES2_EEEEvRKT_RKNS6_10false_typeE)
                  00029062    00000012     ExtendedKalman.obj (.text:_ZN5Eigen15PlainObjectBaseINS_6MatrixIfLi7ELi7ELi0ELi7ELi7EEEE13_set_selectorINS_13CwiseBinaryOpINS_8internal13scalar_sum_opIfEEKNS_17CoeffBasedProductIRKS2_KNS_9TransposeIS2_EELi6EEESA_EEEEvRKT_RKNS6_10false_typeE)
                  00029074    00000012     ExtendedKalman.obj (.text:_ZN5Eigen15PlainObjectBaseINS_6MatrixIfLi7ELi7ELi0ELi7ELi7EEEE13_set_selectorINS_14CwiseNullaryOpINS_8internal18scalar_constant_opIfEES2_EEEEvRKT_RKNS6_10false_typeE)
                  00029086    00000012     ExtendedKalman.obj (.text:_ZN5Eigen15PlainObjectBaseINS_6MatrixIfLi7ELi7ELi0ELi7ELi7EEEE13_set_selectorINS_14CwiseNullaryOpINS_8internal18scalar_identity_opIfEES2_EEEEvRKT_RKNS6_10false_typeE)
                  00029098    00000012     ExtendedKalman.obj (.text:_ZN5Eigen6MatrixIfLi3ELi1ELi0ELi3ELi1EEC1Ev)
                  000290aa    00000012     ExtendedKalman.obj (.text:_ZN5Eigen6MatrixIfLi3ELi3ELi0ELi3ELi3EEC1Ev)
                  000290bc    00000012     ExtendedKalman.obj (.text:_ZN5Eigen6MatrixIfLi3ELi3ELi1ELi3ELi3EEC1Ev)
                  000290ce    00000012     ExtendedKalman.obj (.text:_ZN5Eigen6MatrixIfLi3ELi7ELi0ELi3ELi7EEC1Ev)
                  000290e0    00000012     ExtendedKalman.obj (.text:_ZN5Eigen6MatrixIfLi7ELi1ELi0ELi7ELi1EEC1Ev)
                  000290f2    00000012     ExtendedKalman.obj (.text:_ZN5Eigen6MatrixIfLi7ELi3ELi0ELi7ELi3EEC1Ev)
                  00029104    00000012     ExtendedKalman.obj (.text:_ZN5Eigen6MatrixIfLi7ELi3ELi1ELi7ELi3EEC1Ev)
                  00029116    00000012     ExtendedKalman.obj (.text:_ZN5Eigen6MatrixIfLi7ELi7ELi0ELi7ELi7EEC1Ev)
                  00029128    00000012     ExtendedKalman.obj (.text:_ZN5Eigen6MatrixIfLi7ELi7ELi1ELi7ELi7EEC1Ev)
                  0002913a    00000012     ExtendedKalman.obj (.text:_ZN5Eigen8internal15BlockImpl_denseIKNS_6MatrixIfLi3ELi3ELi0ELi3ELi3EEELi3ELi1ELb1ELb1EE4initEv)
                  0002914c    00000012     ExtendedKalman.obj (.text:_ZN5Eigen8internal15BlockImpl_denseINS_6MatrixIfLi3ELi3ELi0ELi3ELi3EEELi1ELi3ELb0ELb1EE4initEv)
                  0002915e    00000012     EigenTest.obj (.text:_ZN5Eigen8internal19throw_std_bad_allocEv)
                  00029170    00000012     ExtendedKalman.obj (.text:_ZN5Eigen8internal20redux_novec_unrollerINS0_13scalar_sum_opIfEENS_13CwiseBinaryOpINS0_17scalar_product_opIffEEKNS_6MatrixIfLi3ELi1ELi0ELi3ELi1EEEKNS_5BlockIKNS7_IfLi3ELi3ELi0ELi3ELi3EEELi3ELi1ELb1EEEEELi0ELi1EE3runERKSF_RKS3_)
                  00029182    00000012     ExtendedKalman.obj (.text:_ZN5Eigen8internal20redux_novec_unrollerINS0_13scalar_sum_opIfEENS_13CwiseBinaryOpINS0_17scalar_product_opIffEEKNS_6MatrixIfLi3ELi1ELi0ELi3ELi1EEEKNS_5BlockIKNS7_IfLi3ELi3ELi0ELi3ELi3EEELi3ELi1ELb1EEEEELi1ELi1EE3runERKSF_RKS3_)
                  00029194    00000012     ExtendedKalman.obj (.text:_ZN5Eigen8internal20redux_novec_unrollerINS0_13scalar_sum_opIfEENS_13CwiseBinaryOpINS0_17scalar_product_opIffEEKNS_6MatrixIfLi3ELi1ELi0ELi3ELi1EEEKNS_5BlockIKNS7_IfLi3ELi3ELi0ELi3ELi3EEELi3ELi1ELb1EEEEELi2ELi1EE3runERKSF_RKS3_)
                  000291a6    00000012     EigenTest.obj (.text:_ZNKSt18basic_stringstreamIcSt11char_traitsIcESaIcEE3strEv)
                  000291b8    00000012     PID.obj (.text:_ZNKSt5ctypeIcE8do_widenEc)
                  000291ca    00000012     PID.obj (.text:_ZNKSt8ios_base6getlocEv)
                  000291dc    00000012     PID.obj (.text:_ZNKSt8numpunctIcE11do_groupingEv)
                  000291ee    00000012     PID.obj (.text:_ZNKSt8numpunctIcE11do_truenameEv)
                  00029200    00000012     PID.obj (.text:_ZNKSt8numpunctIcE12do_falsenameEv)
                  00029212    00000012     PID.obj (.text:_ZNKSt8numpunctIcE13decimal_pointEv)
                  00029224    00000012     PID.obj (.text:_ZNKSt8numpunctIcE13thousands_sepEv)
                  00029236    00000012     PID.obj (.text:_ZNSsD1Ev)
                  00029248    00000012     PID.obj (.text:_ZNSt11_String_valIcSaIcEEC1ES0_)
                  0002925a    00000012     PID.obj (.text:_ZNSt15basic_streambufIcSt11char_traitsIcEE7pubsyncEv)
                  0002926c    00000012     PID.obj (.text:_ZNSt5ctypeIcE5_InitERKSt8_Locinfo)
                  0002927e    00000012     PID.obj (.text:_ZNSt7num_putIcSt19ostreambuf_iteratorIcSt11char_traitsIcEEE5_InitERKSt8_Locinfo)
                  00029290    00000012     EigenTest.obj (.text:_ZSt3logf)
                  000292a2    00000012     PID.obj (.text:_ZSt8_ToloweriPKSt9_Ctypevec)
                  000292b4    00000012     PID.obj (.text:_ZSt8_ToupperiPKSt9_Ctypevec)
                  000292c6    00000012     EigenTest.obj (.text:_ZThn8_NSdD0Ev)
                  000292d8    00000012     EigenTest.obj (.text:_ZThn8_NSt18basic_stringstreamIcSt11char_traitsIcESaIcEED0Ev)
                  000292ea    00000012     rtsv7M4_T_le_v4SPD16_eabi.lib : copy_zero_init.obj (.text:decompress:ZI)
                  000292fc    00000012                                   : xdclass.obj (.text)
                  0002930e    00000010     ExtendedKalman.obj (.text:_ZN5Eigen12DenseStorageIfLi21ELi3ELi7ELi0EE6resizeEiii)
                  0002931e    00000010     ExtendedKalman.obj (.text:_ZN5Eigen12DenseStorageIfLi21ELi7ELi3ELi0EE6resizeEiii)
                  0002932e    00000010     ExtendedKalman.obj (.text:_ZN5Eigen12DenseStorageIfLi21ELi7ELi3ELi1EE6resizeEiii)
                  0002933e    00000010     ExtendedKalman.obj (.text:_ZN5Eigen12DenseStorageIfLi3ELi3ELi1ELi0EE6resizeEiii)
                  0002934e    00000010     ExtendedKalman.obj (.text:_ZN5Eigen12DenseStorageIfLi49ELi7ELi7ELi0EE6resizeEiii)
                  0002935e    00000010     ExtendedKalman.obj (.text:_ZN5Eigen12DenseStorageIfLi49ELi7ELi7ELi1EE6resizeEiii)
                  0002936e    00000010     ExtendedKalman.obj (.text:_ZN5Eigen12DenseStorageIfLi7ELi7ELi1ELi0EE6resizeEiii)
                  0002937e    00000010     ExtendedKalman.obj (.text:_ZN5Eigen12DenseStorageIfLi9ELi3ELi3ELi0EE6resizeEiii)
                  0002938e    00000010     ExtendedKalman.obj (.text:_ZN5Eigen12DenseStorageIfLi9ELi3ELi3ELi1EE6resizeEiii)
                  0002939e    00000010     ExtendedKalman.obj (.text:_ZN5Eigen15PlainObjectBaseINS_6MatrixIfLi3ELi1ELi0ELi3ELi1EEEE16_resize_to_matchINS_13CwiseBinaryOpINS_8internal20scalar_difference_opIfEEKS2_S9_EEEEvRKNS_9EigenBaseIT_EE)
                  000293ae    00000010     ExtendedKalman.obj (.text:_ZN5Eigen15PlainObjectBaseINS_6MatrixIfLi3ELi1ELi0ELi3ELi1EEEE16_resize_to_matchINS_14CwiseNullaryOpINS_8internal18scalar_constant_opIfEES2_EEEEvRKNS_9EigenBaseIT_EE)
                  000293be    00000010     ExtendedKalman.obj (.text:_ZN5Eigen15PlainObjectBaseINS_6MatrixIfLi3ELi3ELi0ELi3ELi3EEEE16_resize_to_matchINS_13CwiseBinaryOpINS_8internal13scalar_sum_opIfEEKNS_17CoeffBasedProductIRKNS1_IfLi3ELi7ELi0ELi3ELi7EEEKNS_9TransposeISA_EELi6EEEKS2_EEEEvRKNS_9EigenBaseIT_EE)
                  000293ce    00000010     ExtendedKalman.obj (.text:_ZN5Eigen15PlainObjectBaseINS_6MatrixIfLi3ELi3ELi0ELi3ELi3EEEE16_resize_to_matchINS_14CwiseNullaryOpINS_8internal18scalar_constant_opIfEES2_EEEEvRKNS_9EigenBaseIT_EE)
                  000293de    00000010     ExtendedKalman.obj (.text:_ZN5Eigen15PlainObjectBaseINS_6MatrixIfLi3ELi3ELi1ELi3ELi3EEEE16_resize_to_matchINS_17CoeffBasedProductIRKNS1_IfLi3ELi7ELi0ELi3ELi7EEEKNS_9TransposeIS6_EELi6EEEEEvRKNS_9EigenBaseIT_EE)
                  000293ee    00000010     ExtendedKalman.obj (.text:_ZN5Eigen15PlainObjectBaseINS_6MatrixIfLi3ELi7ELi0ELi3ELi7EEEE16_resize_to_matchINS_14CwiseNullaryOpINS_8internal18scalar_constant_opIfEES2_EEEEvRKNS_9EigenBaseIT_EE)
                  000293fe    00000010     ExtendedKalman.obj (.text:_ZN5Eigen15PlainObjectBaseINS_6MatrixIfLi3ELi7ELi0ELi3ELi7EEEE16_resize_to_matchINS_17CoeffBasedProductIRKS2_RKNS1_IfLi7ELi7ELi0ELi7ELi7EEELi6EEEEEvRKNS_9EigenBaseIT_EE)
                  0002940e    00000010     ExtendedKalman.obj (.text:_ZN5Eigen15PlainObjectBaseINS_6MatrixIfLi7ELi1ELi0ELi7ELi1EEEE16_resize_to_matchINS_13CwiseBinaryOpINS_8internal13scalar_sum_opIfEEKS2_KNS_17CoeffBasedProductIRKNS1_IfLi7ELi3ELi0ELi7ELi3EEERKNS1_IfLi3ELi1ELi0ELi3ELi1EEELi6EEEEEEEvRKNS_9EigenBaseIT_EE)
                  0002941e    00000010     ExtendedKalman.obj (.text:_ZN5Eigen15PlainObjectBaseINS_6MatrixIfLi7ELi1ELi0ELi7ELi1EEEE16_resize_to_matchINS_14CwiseNullaryOpINS_8internal18scalar_constant_opIfEES2_EEEEvRKNS_9EigenBaseIT_EE)
                  0002942e    00000010     ExtendedKalman.obj (.text:_ZN5Eigen15PlainObjectBaseINS_6MatrixIfLi7ELi1ELi0ELi7ELi1EEEE16_resize_to_matchINS_17CoeffBasedProductIRKNS1_IfLi7ELi3ELi0ELi7ELi3EEERKNS1_IfLi3ELi1ELi0ELi3ELi1EEELi6EEEEEvRKNS_9EigenBaseIT_EE)
                  0002943e    00000010     ExtendedKalman.obj (.text:_ZN5Eigen15PlainObjectBaseINS_6MatrixIfLi7ELi3ELi0ELi7ELi3EEEE16_resize_to_matchINS_14CwiseNullaryOpINS_8internal18scalar_constant_opIfEES2_EEEEvRKNS_9EigenBaseIT_EE)
                  0002944e    00000010     ExtendedKalman.obj (.text:_ZN5Eigen15PlainObjectBaseINS_6MatrixIfLi7ELi3ELi0ELi7ELi3EEEE16_resize_to_matchINS_17CoeffBasedProductIRKNS1_IfLi7ELi3ELi1ELi7ELi3EEENS1_IfLi3ELi3ELi0ELi3ELi3EEELi6EEEEEvRKNS_9EigenBaseIT_EE)
                  0002945e    00000010     ExtendedKalman.obj (.text:_ZN5Eigen15PlainObjectBaseINS_6MatrixIfLi7ELi3ELi0ELi7ELi3EEEE16_resize_to_matchIS2_EEvRKNS_9EigenBaseIT_EE)
                  0002946e    00000010     ExtendedKalman.obj (.text:_ZN5Eigen15PlainObjectBaseINS_6MatrixIfLi7ELi3ELi1ELi7ELi3EEEE16_resize_to_matchINS_17CoeffBasedProductIRKNS1_IfLi7ELi7ELi0ELi7ELi7EEEKNS_9TransposeINS1_IfLi3ELi7ELi0ELi3ELi7EEEEELi6EEEEEvRKNS_9EigenBaseIT_EE)
                  0002947e    00000010     ExtendedKalman.obj (.text:_ZN5Eigen15PlainObjectBaseINS_6MatrixIfLi7ELi7ELi0ELi7ELi7EEEE16_resize_to_matchINS_13CwiseBinaryOpINS_8internal13scalar_sum_opIfEEKNS_17CoeffBasedProductIRKS2_KNS_9TransposeIS2_EELi6EEESA_EEEEvRKNS_9EigenBaseIT_EE)
                  0002948e    00000010     ExtendedKalman.obj (.text:_ZN5Eigen15PlainObjectBaseINS_6MatrixIfLi7ELi7ELi0ELi7ELi7EEEE16_resize_to_matchINS_13CwiseBinaryOpINS_8internal20scalar_difference_opIfEEKS2_KNS_17CoeffBasedProductIRKNS1_IfLi7ELi3ELi0ELi7ELi3EEERKNS1_IfLi3ELi7ELi0ELi3ELi7EEELi6EEEEEEEvRKNS_9EigenBaseIT_EE)
                  0002949e    00000010     ExtendedKalman.obj (.text:_ZN5Eigen15PlainObjectBaseINS_6MatrixIfLi7ELi7ELi0ELi7ELi7EEEE16_resize_to_matchINS_14CwiseNullaryOpINS_8internal18scalar_constant_opIfEES2_EEEEvRKNS_9EigenBaseIT_EE)
                  000294ae    00000010     ExtendedKalman.obj (.text:_ZN5Eigen15PlainObjectBaseINS_6MatrixIfLi7ELi7ELi0ELi7ELi7EEEE16_resize_to_matchINS_14CwiseNullaryOpINS_8internal18scalar_identity_opIfEES2_EEEEvRKNS_9EigenBaseIT_EE)
                  000294be    00000010     ExtendedKalman.obj (.text:_ZN5Eigen15PlainObjectBaseINS_6MatrixIfLi7ELi7ELi0ELi7ELi7EEEE16_resize_to_matchINS_17CoeffBasedProductIRKNS1_IfLi7ELi3ELi0ELi7ELi3EEERKNS1_IfLi3ELi7ELi0ELi3ELi7EEELi6EEEEEvRKNS_9EigenBaseIT_EE)
                  000294ce    00000010     ExtendedKalman.obj (.text:_ZN5Eigen15PlainObjectBaseINS_6MatrixIfLi7ELi7ELi0ELi7ELi7EEEE16_resize_to_matchINS_17CoeffBasedProductIRKS2_S7_Li6EEEEEvRKNS_9EigenBaseIT_EE)
                  000294de    00000010     ExtendedKalman.obj (.text:_ZN5Eigen15PlainObjectBaseINS_6MatrixIfLi7ELi7ELi0ELi7ELi7EEEE16_resize_to_matchINS_17CoeffBasedProductIS2_RKS2_Li6EEEEEvRKNS_9EigenBaseIT_EE)
                  000294ee    00000010     ExtendedKalman.obj (.text:_ZN5Eigen15PlainObjectBaseINS_6MatrixIfLi7ELi7ELi0ELi7ELi7EEEE16_resize_to_matchIS2_EEvRKNS_9EigenBaseIT_EE)
                  000294fe    00000010     ExtendedKalman.obj (.text:_ZN5Eigen15PlainObjectBaseINS_6MatrixIfLi7ELi7ELi1ELi7ELi7EEEE16_resize_to_matchINS_17CoeffBasedProductIRKNS1_IfLi7ELi7ELi0ELi7ELi7EEEKNS_9TransposeIS6_EELi6EEEEEvRKNS_9EigenBaseIT_EE)
                  0002950e    00000010     EigenTest.obj (.text:_ZN5Eigen16GenericNumTraitsIdE7epsilonEv)
                  0002951e    00000010     ExtendedKalman.obj (.text:_ZN5Eigen6MatrixIfLi3ELi1ELi0ELi3ELi1EEaSINS_13CwiseBinaryOpINS_8internal20scalar_difference_opIfEEKS1_S7_EEEERS1_RKNS_10MatrixBaseIT_EE)
                  0002952e    00000010     ExtendedKalman.obj (.text:_ZN5Eigen6MatrixIfLi3ELi1ELi0ELi3ELi1EEaSINS_14CwiseNullaryOpINS_8internal18scalar_constant_opIfEES1_EEEERS1_RKNS_10MatrixBaseIT_EE)
                  0002953e    00000010     ExtendedKalman.obj (.text:_ZN5Eigen6MatrixIfLi3ELi3ELi0ELi3ELi3EEaSINS_13CwiseBinaryOpINS_8internal13scalar_sum_opIfEEKNS_17CoeffBasedProductIRKNS0_IfLi3ELi7ELi0ELi3ELi7EEEKNS_9TransposeIS8_EELi6EEEKS1_EEEERS1_RKNS_10MatrixBaseIT_EE)
                  0002954e    00000010     ExtendedKalman.obj (.text:_ZN5Eigen6MatrixIfLi3ELi3ELi0ELi3ELi3EEaSINS_14CwiseNullaryOpINS_8internal18scalar_constant_opIfEES1_EEEERS1_RKNS_10MatrixBaseIT_EE)
                  0002955e    00000010     ExtendedKalman.obj (.text:_ZN5Eigen6MatrixIfLi3ELi7ELi0ELi3ELi7EEaSINS_14CwiseNullaryOpINS_8internal18scalar_constant_opIfEES1_EEEERS1_RKNS_10MatrixBaseIT_EE)
                  0002956e    00000010     ExtendedKalman.obj (.text:_ZN5Eigen6MatrixIfLi7ELi1ELi0ELi7ELi1EEaSINS_13CwiseBinaryOpINS_8internal13scalar_sum_opIfEEKS1_KNS_17CoeffBasedProductIRKNS0_IfLi7ELi3ELi0ELi7ELi3EEERKNS0_IfLi3ELi1ELi0ELi3ELi1EEELi6EEEEEEERS1_RKNS_10MatrixBaseIT_EE)
                  0002957e    00000010     ExtendedKalman.obj (.text:_ZN5Eigen6MatrixIfLi7ELi1ELi0ELi7ELi1EEaSINS_14CwiseNullaryOpINS_8internal18scalar_constant_opIfEES1_EEEERS1_RKNS_10MatrixBaseIT_EE)
                  0002958e    00000010     ExtendedKalman.obj (.text:_ZN5Eigen6MatrixIfLi7ELi3ELi0ELi7ELi3EEaSINS_14CwiseNullaryOpINS_8internal18scalar_constant_opIfEES1_EEEERS1_RKNS_10MatrixBaseIT_EE)
                  0002959e    00000010     ExtendedKalman.obj (.text:_ZN5Eigen6MatrixIfLi7ELi3ELi0ELi7ELi3EEaSINS_17CoeffBasedProductIRKNS0_IfLi7ELi3ELi1ELi7ELi3EEENS0_IfLi3ELi3ELi0ELi3ELi3EEELi6EEEEERS1_RKNS_10MatrixBaseIT_EE)
                  000295ae    00000010     ExtendedKalman.obj (.text:_ZN5Eigen6MatrixIfLi7ELi7ELi0ELi7ELi7EEaSINS_13CwiseBinaryOpINS_8internal13scalar_sum_opIfEEKNS_17CoeffBasedProductIRKS1_KNS_9TransposeIS1_EELi6EEES8_EEEERS1_RKNS_10MatrixBaseIT_EE)
                  000295be    00000010     ExtendedKalman.obj (.text:_ZN5Eigen6MatrixIfLi7ELi7ELi0ELi7ELi7EEaSINS_14CwiseNullaryOpINS_8internal18scalar_constant_opIfEES1_EEEERS1_RKNS_10MatrixBaseIT_EE)
                  000295ce    00000010     ExtendedKalman.obj (.text:_ZN5Eigen6MatrixIfLi7ELi7ELi0ELi7ELi7EEaSINS_14CwiseNullaryOpINS_8internal18scalar_identity_opIfEES1_EEEERS1_RKNS_10MatrixBaseIT_EE)
                  000295de    00000010     ExtendedKalman.obj (.text:_ZN5Eigen6MatrixIfLi7ELi7ELi0ELi7ELi7EEaSINS_17CoeffBasedProductIS1_RKS1_Li6EEEEERS1_RKNS_10MatrixBaseIT_EE)
                  000295ee    00000010     ExtendedKalman.obj (.text:_ZN5Eigen8internal11assign_implINS_17SelfCwiseBinaryOpINS0_17scalar_product_opIffEENS_6MatrixIfLi7ELi7ELi0ELi7ELi7EEENS_14CwiseNullaryOpINS0_18scalar_constant_opIfEES6_EEEESA_Li1ELi2ELi0EE3runERSB_RKSA_)
                  000295fe    00000010     ExtendedKalman.obj (.text:_ZN5Eigen8internal11assign_implINS_5BlockINS_6MatrixIfLi3ELi3ELi0ELi3ELi3EEELi1ELi3ELb0EEENS_9TransposeIKNS_12CwiseUnaryOpINS0_18scalar_multiple_opIfEEKNS3_IfLi3ELi1ELi0ELi3ELi1EEEEEEELi1ELi2ELi0EE3runERS5_RKSE_)
                  0002960e    00000010     ExtendedKalman.obj (.text:_ZN5Eigen8internal11assign_implINS_6MatrixIfLi3ELi1ELi0ELi3ELi1EEENS_13CwiseBinaryOpINS0_20scalar_difference_opIfEEKS3_S7_EELi1ELi2ELi0EE3runERS3_RKS8_)
                  0002961e    00000010     ExtendedKalman.obj (.text:_ZN5Eigen8internal11assign_implINS_6MatrixIfLi3ELi1ELi0ELi3ELi1EEENS_14CwiseNullaryOpINS0_18scalar_constant_opIfEES3_EELi1ELi2ELi0EE3runERS3_RKS7_)
                  0002962e    00000010     ExtendedKalman.obj (.text:_ZN5Eigen8internal11assign_implINS_6MatrixIfLi3ELi3ELi0ELi3ELi3EEENS_13CwiseBinaryOpINS0_13scalar_sum_opIfEEKNS_17CoeffBasedProductIRKNS2_IfLi3ELi7ELi0ELi3ELi7EEEKNS_9TransposeIS8_EELi6EEEKS3_EELi0ELi2ELi0EE3runERS3_RKSH_)
                  0002963e    00000010     ExtendedKalman.obj (.text:_ZN5Eigen8internal11assign_implINS_6MatrixIfLi3ELi3ELi0ELi3ELi3EEENS_14CwiseNullaryOpINS0_18scalar_constant_opIfEES3_EELi1ELi2ELi0EE3runERS3_RKS7_)
                  0002964e    00000010     ExtendedKalman.obj (.text:_ZN5Eigen8internal11assign_implINS_6MatrixIfLi3ELi7ELi0ELi3ELi7EEENS_14CwiseNullaryOpINS0_18scalar_constant_opIfEES3_EELi1ELi2ELi0EE3runERS3_RKS7_)
                  0002965e    00000010     ExtendedKalman.obj (.text:_ZN5Eigen8internal11assign_implINS_6MatrixIfLi7ELi1ELi0ELi7ELi1EEENS_13CwiseBinaryOpINS0_13scalar_sum_opIfEEKS3_KNS_17CoeffBasedProductIRKNS2_IfLi7ELi3ELi0ELi7ELi3EEERKNS2_IfLi3ELi1ELi0ELi3ELi1EEELi6EEEEELi1ELi2ELi0EE3runERS3_RKSH_)
                  0002966e    00000010     ExtendedKalman.obj (.text:_ZN5Eigen8internal11assign_implINS_6MatrixIfLi7ELi1ELi0ELi7ELi1EEENS_14CwiseNullaryOpINS0_18scalar_constant_opIfEES3_EELi1ELi2ELi0EE3runERS3_RKS7_)
                  0002967e    00000010     ExtendedKalman.obj (.text:_ZN5Eigen8internal11assign_implINS_6MatrixIfLi7ELi1ELi0ELi7ELi1EEENS_17CoeffBasedProductIRKNS2_IfLi7ELi3ELi0ELi7ELi3EEERKNS2_IfLi3ELi1ELi0ELi3ELi1EEELi6EEELi0ELi2ELi0EE3runERS3_RKSB_)
                  0002968e    00000010     ExtendedKalman.obj (.text:_ZN5Eigen8internal11assign_implINS_6MatrixIfLi7ELi3ELi0ELi7ELi3EEENS_14CwiseNullaryOpINS0_18scalar_constant_opIfEES3_EELi1ELi2ELi0EE3runERS3_RKS7_)
                  0002969e    00000010     ExtendedKalman.obj (.text:_ZN5Eigen8internal11assign_implINS_6MatrixIfLi7ELi3ELi0ELi7ELi3EEES3_Li1ELi2ELi0EE3runERS3_RKS3_)
                  000296ae    00000010     ExtendedKalman.obj (.text:_ZN5Eigen8internal11assign_implINS_6MatrixIfLi7ELi7ELi0ELi7ELi7EEENS_14CwiseNullaryOpINS0_18scalar_constant_opIfEES3_EELi1ELi2ELi0EE3runERS3_RKS7_)
                  000296be    00000010     ExtendedKalman.obj (.text:_ZN5Eigen8internal11assign_implINS_6MatrixIfLi7ELi7ELi0ELi7ELi7EEENS_14CwiseNullaryOpINS0_18scalar_identity_opIfEES3_EELi0ELi2ELi0EE3runERS3_RKS7_)
                  000296ce    00000010     ExtendedKalman.obj (.text:_ZN5Eigen8internal11assign_implINS_6MatrixIfLi7ELi7ELi0ELi7ELi7EEES3_Li1ELi2ELi0EE3runERS3_RKS3_)
                  000296de    00000010     EigenTest.obj (.text:_ZN5Eigen8internal31conditional_aligned_delete_autoIdLb1EEEvPT_j)
                  000296ee    00000010     ExtendedKalman.obj (.text:_ZNK5Eigen13CwiseBinaryOpINS_8internal13scalar_sum_opIfEEKNS_17CoeffBasedProductIRKNS_6MatrixIfLi7ELi7ELi0ELi7ELi7EEEKNS_9TransposeIS6_EELi6EEES7_E3rhsEv)
                  000296fe    00000010     ExtendedKalman.obj (.text:_ZNK5Eigen13CwiseBinaryOpINS_8internal13scalar_sum_opIfEEKNS_6MatrixIfLi7ELi1ELi0ELi7ELi1EEEKNS_17CoeffBasedProductIRKNS4_IfLi7ELi3ELi0ELi7ELi3EEERKNS4_IfLi3ELi1ELi0ELi3ELi1EEELi6EEEE4colsEv)
                  0002970e    00000010     ExtendedKalman.obj (.text:_ZNK5Eigen13CwiseBinaryOpINS_8internal13scalar_sum_opIfEEKNS_6MatrixIfLi7ELi1ELi0ELi7ELi1EEEKNS_17CoeffBasedProductIRKNS4_IfLi7ELi3ELi0ELi7ELi3EEERKNS4_IfLi3ELi1ELi0ELi3ELi1EEELi6EEEE4rowsEv)
                  0002971e    00000010     ExtendedKalman.obj (.text:_ZNK5Eigen13CwiseBinaryOpINS_8internal20scalar_difference_opIfEEKNS_6MatrixIfLi3ELi1ELi0ELi3ELi1EEES6_E4colsEv)
                  0002972e    00000010     ExtendedKalman.obj (.text:_ZNK5Eigen13CwiseBinaryOpINS_8internal20scalar_difference_opIfEEKNS_6MatrixIfLi3ELi1ELi0ELi3ELi1EEES6_E4rowsEv)
                  0002973e    00000010     ExtendedKalman.obj (.text:_ZNK5Eigen13CwiseBinaryOpINS_8internal20scalar_difference_opIfEEKNS_6MatrixIfLi7ELi7ELi0ELi7ELi7EEEKNS_17CoeffBasedProductIRKNS4_IfLi7ELi3ELi0ELi7ELi3EEERKNS4_IfLi3ELi7ELi0ELi3ELi7EEELi6EEEE4colsEv)
                  0002974e    00000010     ExtendedKalman.obj (.text:_ZNK5Eigen13CwiseBinaryOpINS_8internal20scalar_difference_opIfEEKNS_6MatrixIfLi7ELi7ELi0ELi7ELi7EEEKNS_17CoeffBasedProductIRKNS4_IfLi7ELi3ELi0ELi7ELi3EEERKNS4_IfLi3ELi7ELi0ELi3ELi7EEELi6EEEE4rowsEv)
                  0002975e    00000010     ExtendedKalman.obj (.text:_ZNK5Eigen13ReturnByValueINS_8internal12inverse_implINS_6MatrixIfLi3ELi3ELi0ELi3ELi3EEEEEE6evalToIS4_EEvRT_)
                  0002976e    00000010     ExtendedKalman.obj (.text:_ZNK5Eigen15DenseCoeffsBaseINS_13CwiseBinaryOpINS_8internal17scalar_product_opIffEEKNS_6MatrixIfLi3ELi1ELi0ELi3ELi1EEEKNS_5BlockIKNS5_IfLi3ELi3ELi0ELi3ELi3EEELi3ELi1ELb1EEEEELi0EE20colIndexByOuterInnerEii)
                  0002977e    00000010     ExtendedKalman.obj (.text:_ZNK5Eigen15DenseCoeffsBaseINS_13CwiseBinaryOpINS_8internal17scalar_product_opIffEEKNS_6MatrixIfLi3ELi1ELi0ELi3ELi1EEEKNS_5BlockIKNS5_IfLi3ELi3ELi0ELi3ELi3EEELi3ELi1ELb1EEEEELi0EE20rowIndexByOuterInnerEii)
                  0002978e    00000010     ExtendedKalman.obj (.text:_ZNK5Eigen15DenseCoeffsBaseINS_5BlockIKNS_6MatrixIfLi3ELi3ELi0ELi3ELi3EEELi3ELi1ELb1EEELi2EE11innerStrideEv)
                  0002979e    00000010     ExtendedKalman.obj (.text:_ZNK5Eigen15DenseCoeffsBaseINS_5BlockIKNS_6MatrixIfLi3ELi3ELi0ELi3ELi3EEELi3ELi1ELb1EEELi2EE11outerStrideEv)
                  000297ae    00000010     ExtendedKalman.obj (.text:_ZNK5Eigen15DenseCoeffsBaseINS_5BlockINS_6MatrixIfLi3ELi3ELi0ELi3ELi3EEELi1ELi3ELb0EEELi3EE11innerStrideEv)
                  000297be    00000010     ExtendedKalman.obj (.text:_ZNK5Eigen15DenseCoeffsBaseINS_6MatrixIfLi3ELi3ELi0ELi3ELi3EEELi0EE20colIndexByOuterInnerEii)
                  000297ce    00000010     ExtendedKalman.obj (.text:_ZNK5Eigen15DenseCoeffsBaseINS_6MatrixIfLi3ELi3ELi0ELi3ELi3EEELi0EE20rowIndexByOuterInnerEii)
                  000297de    00000010     ExtendedKalman.obj (.text:_ZNK5Eigen15DenseCoeffsBaseINS_6MatrixIfLi3ELi3ELi1ELi3ELi3EEELi0EE20colIndexByOuterInnerEii)
                  000297ee    00000010     ExtendedKalman.obj (.text:_ZNK5Eigen15DenseCoeffsBaseINS_6MatrixIfLi3ELi3ELi1ELi3ELi3EEELi0EE20rowIndexByOuterInnerEii)
                  000297fe    00000010     ExtendedKalman.obj (.text:_ZNK5Eigen15DenseCoeffsBaseINS_6MatrixIfLi3ELi7ELi0ELi3ELi7EEELi0EE20colIndexByOuterInnerEii)
                  0002980e    00000010     ExtendedKalman.obj (.text:_ZNK5Eigen15DenseCoeffsBaseINS_6MatrixIfLi3ELi7ELi0ELi3ELi7EEELi0EE20rowIndexByOuterInnerEii)
                  0002981e    00000010     ExtendedKalman.obj (.text:_ZNK5Eigen15DenseCoeffsBaseINS_6MatrixIfLi7ELi1ELi0ELi7ELi1EEELi0EE20colIndexByOuterInnerEii)
                  0002982e    00000010     ExtendedKalman.obj (.text:_ZNK5Eigen15DenseCoeffsBaseINS_6MatrixIfLi7ELi1ELi0ELi7ELi1EEELi0EE20rowIndexByOuterInnerEii)
                  0002983e    00000010     ExtendedKalman.obj (.text:_ZNK5Eigen15DenseCoeffsBaseINS_6MatrixIfLi7ELi3ELi0ELi7ELi3EEELi0EE20colIndexByOuterInnerEii)
                  0002984e    00000010     ExtendedKalman.obj (.text:_ZNK5Eigen15DenseCoeffsBaseINS_6MatrixIfLi7ELi3ELi0ELi7ELi3EEELi0EE20rowIndexByOuterInnerEii)
                  0002985e    00000010     ExtendedKalman.obj (.text:_ZNK5Eigen15DenseCoeffsBaseINS_6MatrixIfLi7ELi3ELi1ELi7ELi3EEELi0EE20colIndexByOuterInnerEii)
                  0002986e    00000010     ExtendedKalman.obj (.text:_ZNK5Eigen15DenseCoeffsBaseINS_6MatrixIfLi7ELi3ELi1ELi7ELi3EEELi0EE20rowIndexByOuterInnerEii)
                  0002987e    00000010     ExtendedKalman.obj (.text:_ZNK5Eigen15DenseCoeffsBaseINS_6MatrixIfLi7ELi7ELi0ELi7ELi7EEELi0EE20colIndexByOuterInnerEii)
                  0002988e    00000010     ExtendedKalman.obj (.text:_ZNK5Eigen15DenseCoeffsBaseINS_6MatrixIfLi7ELi7ELi0ELi7ELi7EEELi0EE20rowIndexByOuterInnerEii)
                  0002989e    00000010     ExtendedKalman.obj (.text:_ZNK5Eigen15DenseCoeffsBaseINS_6MatrixIfLi7ELi7ELi1ELi7ELi7EEELi0EE20colIndexByOuterInnerEii)
                  000298ae    00000010     ExtendedKalman.obj (.text:_ZNK5Eigen15DenseCoeffsBaseINS_6MatrixIfLi7ELi7ELi1ELi7ELi7EEELi0EE20rowIndexByOuterInnerEii)
                  000298be    00000010     ExtendedKalman.obj (.text:_ZNK5Eigen17CoeffBasedProductINS_6MatrixIfLi7ELi7ELi0ELi7ELi7EEERKS2_Li6EE4colsEv)
                  000298ce    00000010     ExtendedKalman.obj (.text:_ZNK5Eigen9DenseBaseINS_13CwiseBinaryOpINS_8internal17scalar_product_opIffEEKNS_6MatrixIfLi3ELi1ELi0ELi3ELi1EEEKNS_5BlockIKNS5_IfLi3ELi3ELi0ELi3ELi3EEELi3ELi1ELb1EEEEEE3sumEv)
                  000298de    00000010     ExtendedKalman.obj (.text:_ZNK5Eigen9EigenBaseINS_13CwiseBinaryOpINS_8internal20scalar_difference_opIfEEKNS_6MatrixIfLi7ELi7ELi0ELi7ELi7EEEKNS_17CoeffBasedProductIRKNS5_IfLi7ELi3ELi0ELi7ELi3EEERKNS5_IfLi3ELi7ELi0ELi3ELi7EEELi6EEEEEE4colsEv)
                  000298ee    00000010     ExtendedKalman.obj (.text:_ZNK5Eigen9EigenBaseINS_13CwiseBinaryOpINS_8internal20scalar_difference_opIfEEKNS_6MatrixIfLi7ELi7ELi0ELi7ELi7EEEKNS_17CoeffBasedProductIRKNS5_IfLi7ELi3ELi0ELi7ELi3EEERKNS5_IfLi3ELi7ELi0ELi3ELi7EEELi6EEEEEE4rowsEv)
                  000298fe    00000010     EigenTest.obj (.text:_ZNK5Eigen9EigenBaseINS_14CwiseNullaryOpINS_8internal18scalar_constant_opIfEENS_6MatrixIfLi7ELi7ELi0ELi7ELi7EEEEEE4colsEv)
                  0002990e    00000010     EigenTest.obj (.text:_ZNK5Eigen9EigenBaseINS_14CwiseNullaryOpINS_8internal18scalar_constant_opIfEENS_6MatrixIfLi7ELi7ELi0ELi7ELi7EEEEEE4rowsEv)
                  0002991e    00000010     ExtendedKalman.obj (.text:_ZNK5Eigen9EigenBaseINS_17CoeffBasedProductINS_6MatrixIfLi7ELi7ELi0ELi7ELi7EEERKS3_Li6EEEE4colsEv)
                  0002992e    00000010     ExtendedKalman.obj (.text:_ZNK5Eigen9EigenBaseINS_17CoeffBasedProductINS_6MatrixIfLi7ELi7ELi0ELi7ELi7EEERKS3_Li6EEEE4rowsEv)
                  0002993e    00000010     ExtendedKalman.obj (.text:_ZNK5Eigen9EigenBaseINS_17CoeffBasedProductIRKNS_6MatrixIfLi3ELi7ELi0ELi3ELi7EEEKNS_9TransposeIS3_EELi6EEEE4colsEv)
                  0002994e    00000010     ExtendedKalman.obj (.text:_ZNK5Eigen9EigenBaseINS_17CoeffBasedProductIRKNS_6MatrixIfLi3ELi7ELi0ELi3ELi7EEEKNS_9TransposeIS3_EELi6EEEE4rowsEv)
                  0002995e    00000010     ExtendedKalman.obj (.text:_ZNK5Eigen9EigenBaseINS_17CoeffBasedProductIRKNS_6MatrixIfLi7ELi3ELi0ELi7ELi3EEERKNS2_IfLi3ELi1ELi0ELi3ELi1EEELi6EEEE4colsEv)
                  0002996e    00000010     ExtendedKalman.obj (.text:_ZNK5Eigen9EigenBaseINS_17CoeffBasedProductIRKNS_6MatrixIfLi7ELi3ELi0ELi7ELi3EEERKNS2_IfLi3ELi1ELi0ELi3ELi1EEELi6EEEE4rowsEv)
                  0002997e    00000010     ExtendedKalman.obj (.text:_ZNK5Eigen9EigenBaseINS_17CoeffBasedProductIRKNS_6MatrixIfLi7ELi3ELi0ELi7ELi3EEERKNS2_IfLi3ELi7ELi0ELi3ELi7EEELi6EEEE4colsEv)
                  0002998e    00000010     ExtendedKalman.obj (.text:_ZNK5Eigen9EigenBaseINS_17CoeffBasedProductIRKNS_6MatrixIfLi7ELi3ELi0ELi7ELi3EEERKNS2_IfLi3ELi7ELi0ELi3ELi7EEELi6EEEE4rowsEv)
                  0002999e    00000010     ExtendedKalman.obj (.text:_ZNK5Eigen9EigenBaseINS_17CoeffBasedProductIRKNS_6MatrixIfLi7ELi3ELi1ELi7ELi3EEENS2_IfLi3ELi3ELi0ELi3ELi3EEELi6EEEE4colsEv)
                  000299ae    00000010     ExtendedKalman.obj (.text:_ZNK5Eigen9EigenBaseINS_17CoeffBasedProductIRKNS_6MatrixIfLi7ELi3ELi1ELi7ELi3EEENS2_IfLi3ELi3ELi0ELi3ELi3EEELi6EEEE4rowsEv)
                  000299be    00000010     ExtendedKalman.obj (.text:_ZNK5Eigen9EigenBaseINS_17CoeffBasedProductIRKNS_6MatrixIfLi7ELi7ELi0ELi7ELi7EEEKNS_9TransposeIS3_EELi6EEEE4colsEv)
                  000299ce    00000010     ExtendedKalman.obj (.text:_ZNK5Eigen9EigenBaseINS_17CoeffBasedProductIRKNS_6MatrixIfLi7ELi7ELi0ELi7ELi7EEEKNS_9TransposeIS3_EELi6EEEE4rowsEv)
                  000299de    00000010     EigenTest.obj (.text:_ZNK5Eigen9EigenBaseINS_6MatrixIdLin1ELin1ELi0ELin1ELin1EEEE4colsEv)
                  000299ee    00000010     EigenTest.obj (.text:_ZNK5Eigen9EigenBaseINS_6MatrixIdLin1ELin1ELi0ELin1ELin1EEEE4rowsEv)
                  000299fe    00000010     ExtendedKalman.obj (.text:_ZNK5Eigen9EigenBaseINS_6MatrixIfLi3ELi3ELi0ELi3ELi3EEEE4rowsEv)
                  00029a0e    00000010     ExtendedKalman.obj (.text:_ZNK5Eigen9EigenBaseINS_6MatrixIfLi3ELi3ELi1ELi3ELi3EEEE4rowsEv)
                  00029a1e    00000010     ExtendedKalman.obj (.text:_ZNK5Eigen9EigenBaseINS_6MatrixIfLi3ELi7ELi0ELi3ELi7EEEE4colsEv)
                  00029a2e    00000010     ExtendedKalman.obj (.text:_ZNK5Eigen9EigenBaseINS_6MatrixIfLi7ELi3ELi0ELi7ELi3EEEE4colsEv)
                  00029a3e    00000010     ExtendedKalman.obj (.text:_ZNK5Eigen9EigenBaseINS_6MatrixIfLi7ELi3ELi1ELi7ELi3EEEE4rowsEv)
                  00029a4e    00000010     ExtendedKalman.obj (.text:_ZNK5Eigen9EigenBaseINS_6MatrixIfLi7ELi7ELi0ELi7ELi7EEEE4colsEv)
                  00029a5e    00000010     ExtendedKalman.obj (.text:_ZNK5Eigen9EigenBaseINS_6MatrixIfLi7ELi7ELi0ELi7ELi7EEEE4rowsEv)
                  00029a6e    00000010     ExtendedKalman.obj (.text:_ZNK5Eigen9EigenBaseINS_6MatrixIfLi7ELi7ELi1ELi7ELi7EEEE4colsEv)
                  00029a7e    00000010     ExtendedKalman.obj (.text:_ZNK5Eigen9EigenBaseINS_6MatrixIfLi7ELi7ELi1ELi7ELi7EEEE4rowsEv)
                  00029a8e    00000010     EigenTest.obj (.text:_ZNKSt15basic_streambufIcSt11char_traitsIcEE4gptrEv)
                  00029a9e    00000010     EigenTest.obj (.text:_ZNKSt15basic_streambufIcSt11char_traitsIcEE4pptrEv)
                  00029aae    00000010     EigenTest.obj (.text:_ZNKSt15basic_streambufIcSt11char_traitsIcEE5ebackEv)
                  00029abe    00000010     EigenTest.obj (.text:_ZNKSt15basic_streambufIcSt11char_traitsIcEE5egptrEv)
                  00029ace    00000010     EigenTest.obj (.text:_ZNKSt15basic_streambufIcSt11char_traitsIcEE5epptrEv)
                  00029ade    00000010     EigenTest.obj (.text:_ZNKSt15basic_streambufIcSt11char_traitsIcEE5pbaseEv)
                  00029aee    00000002     --HOLE-- [fill = 0]
                  00029af0    00000010     PID.obj (.text:_ZNKSt8_Locinfo8_GettrueEv)
                  00029b00    00000010     PID.obj (.text:_ZNKSt8_Locinfo9_GetfalseEv)
                  00029b10    00000010     PID.obj (.text:_ZNKSt9basic_iosIcSt11char_traitsIcEE4fillEv)
                  00029b20    00000010     PID.obj (.text:_ZNSaIcE10deallocateEPcj)
                  00029b30    00000010     PID.obj (.text:_ZNSaIcE8allocateEj)
                  00029b40    00000010     PID.obj (.text:_ZNSo12_Sentry_baseC2ERSo)
                  00029b50    00000010     PID.obj (.text:_ZNSt10ctype_baseC2Ej)
                  00029b60    00000010     PID.obj (.text:_ZNSt11_String_valIcSaIcEEC2ES0_)
                  00029b70    00000010     rtsv7M4_T_le_v4SPD16_eabi.lib : wiostrea.obj (.text:_ZNSt13basic_istreamIwSt11char_traitsIwEED1Ev)
                  00029b80    00000010     EigenTest.obj (.text:_ZNSt15basic_streambufIcSt11char_traitsIcEE6setbufEPci)
                  00029b90    00000010     PID.obj (.text:_ZNSt6locale5facetC2Ej)
                  00029ba0    00000010     AHRS.obj (.text:_ZSt4asinf)
                  00029bb0    00000010     EigenTest.obj (.text:_ZSt4ceilf)
                  00029bc0    00000010     rtsv7M4_T_le_v4SPD16_eabi.lib : strcpy.obj (.text)
                  00029bd0    00000010                                   : tolower.obj (.text)
                  00029be0    00000010                                   : toupper.obj (.text)
                  00029bf0    0000000e     driverlib.lib : i2c.obj (.text:I2CMasterDataGet)
                  00029bfe    0000000e     ExtendedKalman.obj (.text:_ZN5Eigen10MatrixBaseINS_12CwiseUnaryOpINS_8internal18scalar_multiple_opIfEEKNS_6MatrixIfLi3ELi1ELi0ELi3ELi1EEEEEEC1Ev)
                  00029c0c    0000000e     ExtendedKalman.obj (.text:_ZN5Eigen10MatrixBaseINS_13CwiseBinaryOpINS_8internal13scalar_sum_opIfEEKNS_17CoeffBasedProductIRKNS_6MatrixIfLi3ELi7ELi0ELi3ELi7EEEKNS_9TransposeIS7_EELi6EEEKNS6_IfLi3ELi3ELi0ELi3ELi3EEEEEEC1Ev)
                  00029c1a    0000000e     ExtendedKalman.obj (.text:_ZN5Eigen10MatrixBaseINS_13CwiseBinaryOpINS_8internal13scalar_sum_opIfEEKNS_17CoeffBasedProductIRKNS_6MatrixIfLi7ELi7ELi0ELi7ELi7EEEKNS_9TransposeIS7_EELi6EEES8_EEEC1Ev)
                  00029c28    0000000e     ExtendedKalman.obj (.text:_ZN5Eigen10MatrixBaseINS_13CwiseBinaryOpINS_8internal13scalar_sum_opIfEEKNS_6MatrixIfLi7ELi1ELi0ELi7ELi1EEEKNS_17CoeffBasedProductIRKNS5_IfLi7ELi3ELi0ELi7ELi3EEERKNS5_IfLi3ELi1ELi0ELi3ELi1EEELi6EEEEEEC1Ev)
                  00029c36    0000000e     ExtendedKalman.obj (.text:_ZN5Eigen10MatrixBaseINS_13CwiseBinaryOpINS_8internal17scalar_product_opIffEEKNS_6MatrixIfLi3ELi1ELi0ELi3ELi1EEEKNS_5BlockIKNS5_IfLi3ELi3ELi0ELi3ELi3EEELi3ELi1ELb1EEEEEEC1Ev)
                  00029c44    0000000e     ExtendedKalman.obj (.text:_ZN5Eigen10MatrixBaseINS_13CwiseBinaryOpINS_8internal20scalar_difference_opIfEEKNS_6MatrixIfLi3ELi1ELi0ELi3ELi1EEES7_EEEC1Ev)
                  00029c52    0000000e     ExtendedKalman.obj (.text:_ZN5Eigen10MatrixBaseINS_13CwiseBinaryOpINS_8internal20scalar_difference_opIfEEKNS_6MatrixIfLi7ELi7ELi0ELi7ELi7EEEKNS_17CoeffBasedProductIRKNS5_IfLi7ELi3ELi0ELi7ELi3EEERKNS5_IfLi3ELi7ELi0ELi3ELi7EEELi6EEEEEEC1Ev)
                  00029c60    0000000e     ExtendedKalman.obj (.text:_ZN5Eigen10MatrixBaseINS_13ReturnByValueINS_8internal12inverse_implINS_6MatrixIfLi3ELi3ELi0ELi3ELi3EEEEEEEEC1Ev)
                  00029c6e    0000000e     ExtendedKalman.obj (.text:_ZN5Eigen10MatrixBaseINS_14CwiseNullaryOpINS_8internal18scalar_constant_opIfEENS_6MatrixIfLi3ELi1ELi0ELi3ELi1EEEEEEC1Ev)
                  00029c7c    0000000e     ExtendedKalman.obj (.text:_ZN5Eigen10MatrixBaseINS_14CwiseNullaryOpINS_8internal18scalar_constant_opIfEENS_6MatrixIfLi3ELi3ELi0ELi3ELi3EEEEEEC1Ev)
                  00029c8a    0000000e     ExtendedKalman.obj (.text:_ZN5Eigen10MatrixBaseINS_14CwiseNullaryOpINS_8internal18scalar_constant_opIfEENS_6MatrixIfLi3ELi7ELi0ELi3ELi7EEEEEEC1Ev)
                  00029c98    0000000e     ExtendedKalman.obj (.text:_ZN5Eigen10MatrixBaseINS_14CwiseNullaryOpINS_8internal18scalar_constant_opIfEENS_6MatrixIfLi7ELi1ELi0ELi7ELi1EEEEEEC1Ev)
                  00029ca6    0000000e     ExtendedKalman.obj (.text:_ZN5Eigen10MatrixBaseINS_14CwiseNullaryOpINS_8internal18scalar_constant_opIfEENS_6MatrixIfLi7ELi3ELi0ELi7ELi3EEEEEEC1Ev)
                  00029cb4    0000000e     ExtendedKalman.obj (.text:_ZN5Eigen10MatrixBaseINS_14CwiseNullaryOpINS_8internal18scalar_constant_opIfEENS_6MatrixIfLi7ELi7ELi0ELi7ELi7EEEEEEC1Ev)
                  00029cc2    0000000e     ExtendedKalman.obj (.text:_ZN5Eigen10MatrixBaseINS_14CwiseNullaryOpINS_8internal18scalar_identity_opIfEENS_6MatrixIfLi7ELi7ELi0ELi7ELi7EEEEEEC1Ev)
                  00029cd0    0000000e     ExtendedKalman.obj (.text:_ZN5Eigen10MatrixBaseINS_17CoeffBasedProductINS_6MatrixIfLi7ELi7ELi0ELi7ELi7EEERKS3_Li6EEEEC1Ev)
                  00029cde    0000000e     ExtendedKalman.obj (.text:_ZN5Eigen10MatrixBaseINS_17CoeffBasedProductIRKNS_6MatrixIfLi3ELi7ELi0ELi3ELi7EEEKNS_9TransposeIS3_EELi6EEEEC1Ev)
                  00029cec    0000000e     ExtendedKalman.obj (.text:_ZN5Eigen10MatrixBaseINS_17CoeffBasedProductIRKNS_6MatrixIfLi3ELi7ELi0ELi3ELi7EEERKNS2_IfLi7ELi7ELi0ELi7ELi7EEELi6EEEEC1Ev)
                  00029cfa    0000000e     ExtendedKalman.obj (.text:_ZN5Eigen10MatrixBaseINS_17CoeffBasedProductIRKNS_6MatrixIfLi7ELi3ELi0ELi7ELi3EEERKNS2_IfLi3ELi1ELi0ELi3ELi1EEELi6EEEEC1Ev)
                  00029d08    0000000e     ExtendedKalman.obj (.text:_ZN5Eigen10MatrixBaseINS_17CoeffBasedProductIRKNS_6MatrixIfLi7ELi3ELi0ELi7ELi3EEERKNS2_IfLi3ELi7ELi0ELi3ELi7EEELi6EEEEC1Ev)
                  00029d16    0000000e     ExtendedKalman.obj (.text:_ZN5Eigen10MatrixBaseINS_17CoeffBasedProductIRKNS_6MatrixIfLi7ELi3ELi1ELi7ELi3EEENS2_IfLi3ELi3ELi0ELi3ELi3EEELi6EEEEC1Ev)
                  00029d24    0000000e     ExtendedKalman.obj (.text:_ZN5Eigen10MatrixBaseINS_17CoeffBasedProductIRKNS_6MatrixIfLi7ELi7ELi0ELi7ELi7EEEKNS_9TransposeINS2_IfLi3ELi7ELi0ELi3ELi7EEEEELi6EEEEC1Ev)
                  00029d32    0000000e     ExtendedKalman.obj (.text:_ZN5Eigen10MatrixBaseINS_17CoeffBasedProductIRKNS_6MatrixIfLi7ELi7ELi0ELi7ELi7EEEKNS_9TransposeIS3_EELi6EEEEC1Ev)
                  00029d40    0000000e     ExtendedKalman.obj (.text:_ZN5Eigen10MatrixBaseINS_17CoeffBasedProductIRKNS_6MatrixIfLi7ELi7ELi0ELi7ELi7EEES5_Li6EEEEC1Ev)
                  00029d4e    0000000e     ExtendedKalman.obj (.text:_ZN5Eigen10MatrixBaseINS_17SelfCwiseBinaryOpINS_8internal17scalar_product_opIffEENS_6MatrixIfLi7ELi7ELi0ELi7ELi7EEENS_14CwiseNullaryOpINS2_18scalar_constant_opIfEES6_EEEEEC1Ev)
                  00029d5c    0000000e     ExtendedKalman.obj (.text:_ZN5Eigen10MatrixBaseINS_5BlockIKNS_6MatrixIfLi3ELi3ELi0ELi3ELi3EEELi3ELi1ELb1EEEEC1Ev)
                  00029d6a    0000000e     ExtendedKalman.obj (.text:_ZN5Eigen10MatrixBaseINS_5BlockINS_6MatrixIfLi3ELi3ELi0ELi3ELi3EEELi1ELi3ELb0EEEEC1Ev)
                  00029d78    0000000e     EigenTest.obj (.text:_ZN5Eigen10MatrixBaseINS_6MatrixIdLin1ELin1ELi0ELin1ELin1EEEEC1Ev)
                  00029d86    0000000e     ExtendedKalman.obj (.text:_ZN5Eigen10MatrixBaseINS_6MatrixIfLi3ELi1ELi0ELi3ELi1EEEEC1Ev)
                  00029d94    0000000e     ExtendedKalman.obj (.text:_ZN5Eigen10MatrixBaseINS_6MatrixIfLi3ELi3ELi0ELi3ELi3EEEEC1Ev)
                  00029da2    0000000e     ExtendedKalman.obj (.text:_ZN5Eigen10MatrixBaseINS_6MatrixIfLi3ELi3ELi1ELi3ELi3EEEEC1Ev)
                  00029db0    0000000e     ExtendedKalman.obj (.text:_ZN5Eigen10MatrixBaseINS_6MatrixIfLi3ELi7ELi0ELi3ELi7EEEEC1Ev)
                  00029dbe    0000000e     ExtendedKalman.obj (.text:_ZN5Eigen10MatrixBaseINS_6MatrixIfLi7ELi1ELi0ELi7ELi1EEEEC1Ev)
                  00029dcc    0000000e     ExtendedKalman.obj (.text:_ZN5Eigen10MatrixBaseINS_6MatrixIfLi7ELi3ELi0ELi7ELi3EEEEC1Ev)
                  00029dda    0000000e     ExtendedKalman.obj (.text:_ZN5Eigen10MatrixBaseINS_6MatrixIfLi7ELi3ELi1ELi7ELi3EEEEC1Ev)
                  00029de8    0000000e     ExtendedKalman.obj (.text:_ZN5Eigen10MatrixBaseINS_6MatrixIfLi7ELi7ELi0ELi7ELi7EEEEC1Ev)
                  00029df6    0000000e     ExtendedKalman.obj (.text:_ZN5Eigen10MatrixBaseINS_6MatrixIfLi7ELi7ELi1ELi7ELi7EEEEC1Ev)
                  00029e04    0000000e     ExtendedKalman.obj (.text:_ZN5Eigen10MatrixBaseINS_9TransposeIKNS_12CwiseUnaryOpINS_8internal18scalar_multiple_opIfEEKNS_6MatrixIfLi3ELi1ELi0ELi3ELi1EEEEEEEEC1Ev)
                  00029e12    0000000e     ExtendedKalman.obj (.text:_ZN5Eigen10MatrixBaseINS_9TransposeINS_6MatrixIfLi3ELi7ELi0ELi3ELi7EEEEEEC1Ev)
                  00029e20    0000000e     ExtendedKalman.obj (.text:_ZN5Eigen10MatrixBaseINS_9TransposeINS_6MatrixIfLi7ELi7ELi0ELi7ELi7EEEEEEC1Ev)
                  00029e2e    0000000e     EigenTest.obj (.text:_ZN5Eigen12DenseStorageIdLin1ELin1ELin1ELi0EE4dataEv)
                  00029e3c    0000000e     ExtendedKalman.obj (.text:_ZN5Eigen12DenseStorageIfLi21ELi3ELi7ELi0EEC1Ev)
                  00029e4a    0000000e     ExtendedKalman.obj (.text:_ZN5Eigen12DenseStorageIfLi21ELi7ELi3ELi0EEC1Ev)
                  00029e58    0000000e     ExtendedKalman.obj (.text:_ZN5Eigen12DenseStorageIfLi21ELi7ELi3ELi1EEC1Ev)
                  00029e66    0000000e     ExtendedKalman.obj (.text:_ZN5Eigen12DenseStorageIfLi3ELi3ELi1ELi0EEC1Ev)
                  00029e74    0000000e     ExtendedKalman.obj (.text:_ZN5Eigen12DenseStorageIfLi49ELi7ELi7ELi0EEC1Ev)
                  00029e82    0000000e     ExtendedKalman.obj (.text:_ZN5Eigen12DenseStorageIfLi49ELi7ELi7ELi1EEC1Ev)
                  00029e90    0000000e     ExtendedKalman.obj (.text:_ZN5Eigen12DenseStorageIfLi7ELi7ELi1ELi0EEC1Ev)
                  00029e9e    0000000e     ExtendedKalman.obj (.text:_ZN5Eigen12DenseStorageIfLi9ELi3ELi3ELi0EEC1Ev)
                  00029eac    0000000e     ExtendedKalman.obj (.text:_ZN5Eigen12DenseStorageIfLi9ELi3ELi3ELi1EEC1Ev)
                  00029eba    0000000e     ExtendedKalman.obj (.text:_ZN5Eigen13ReturnByValueINS_8internal12inverse_implINS_6MatrixIfLi3ELi3ELi0ELi3ELi3EEEEEEC1Ev)
                  00029ec8    0000000e     ExtendedKalman.obj (.text:_ZN5Eigen13TransposeImplIKNS_12CwiseUnaryOpINS_8internal18scalar_multiple_opIfEEKNS_6MatrixIfLi3ELi1ELi0ELi3ELi1EEEEENS_5DenseEEC1Ev)
                  00029ed6    0000000e     ExtendedKalman.obj (.text:_ZN5Eigen13TransposeImplINS_6MatrixIfLi3ELi7ELi0ELi3ELi7EEENS_5DenseEEC1Ev)
                  00029ee4    0000000e     ExtendedKalman.obj (.text:_ZN5Eigen13TransposeImplINS_6MatrixIfLi7ELi7ELi0ELi7ELi7EEENS_5DenseEEC1Ev)
                  00029ef2    0000000e     EigenTest.obj (.text:_ZN5Eigen15PlainObjectBaseINS_6MatrixIdLin1ELin1ELi0ELin1ELin1EEEED1Ev)
                  00029f00    0000000e     ExtendedKalman.obj (.text:_ZN5Eigen16CwiseUnaryOpImplINS_8internal18scalar_multiple_opIfEEKNS_6MatrixIfLi3ELi1ELi0ELi3ELi1EEENS_5DenseEEC1Ev)
                  00029f0e    0000000e     ExtendedKalman.obj (.text:_ZN5Eigen17CwiseBinaryOpImplINS_8internal13scalar_sum_opIfEEKNS_17CoeffBasedProductIRKNS_6MatrixIfLi3ELi7ELi0ELi3ELi7EEEKNS_9TransposeIS6_EELi6EEEKNS5_IfLi3ELi3ELi0ELi3ELi3EEENS_5DenseEEC1Ev)
                  00029f1c    0000000e     ExtendedKalman.obj (.text:_ZN5Eigen17CwiseBinaryOpImplINS_8internal13scalar_sum_opIfEEKNS_17CoeffBasedProductIRKNS_6MatrixIfLi7ELi7ELi0ELi7ELi7EEEKNS_9TransposeIS6_EELi6EEES7_NS_5DenseEEC1Ev)
                  00029f2a    0000000e     ExtendedKalman.obj (.text:_ZN5Eigen17CwiseBinaryOpImplINS_8internal13scalar_sum_opIfEEKNS_6MatrixIfLi7ELi1ELi0ELi7ELi1EEEKNS_17CoeffBasedProductIRKNS4_IfLi7ELi3ELi0ELi7ELi3EEERKNS4_IfLi3ELi1ELi0ELi3ELi1EEELi6EEENS_5DenseEEC1Ev)
                  00029f38    0000000e     ExtendedKalman.obj (.text:_ZN5Eigen17CwiseBinaryOpImplINS_8internal17scalar_product_opIffEEKNS_6MatrixIfLi3ELi1ELi0ELi3ELi1EEEKNS_5BlockIKNS4_IfLi3ELi3ELi0ELi3ELi3EEELi3ELi1ELb1EEENS_5DenseEEC1Ev)
                  00029f46    0000000e     ExtendedKalman.obj (.text:_ZN5Eigen17CwiseBinaryOpImplINS_8internal20scalar_difference_opIfEEKNS_6MatrixIfLi3ELi1ELi0ELi3ELi1EEES6_NS_5DenseEEC1Ev)
                  00029f54    0000000e     ExtendedKalman.obj (.text:_ZN5Eigen17CwiseBinaryOpImplINS_8internal20scalar_difference_opIfEEKNS_6MatrixIfLi7ELi7ELi0ELi7ELi7EEEKNS_17CoeffBasedProductIRKNS4_IfLi7ELi3ELi0ELi7ELi3EEERKNS4_IfLi3ELi7ELi0ELi3ELi7EEELi6EEENS_5DenseEEC1Ev)
                  00029f62    0000000e     EigenTest.obj (.text:_ZN5Eigen6MatrixIdLin1ELin1ELi0ELin1ELin1EED1Ev)
                  00029f70    0000000e     ExtendedKalman.obj (.text:_ZN5Eigen8internal19variable_if_dynamicIiLi1EEC1Ei)
                  00029f7e    0000000e     ExtendedKalman.obj (.text:_ZN5Eigen8internal19variable_if_dynamicIiLi3EEC1Ei)
                  00029f8c    0000000e     ExtendedKalman.obj (.text:_ZN5Eigen8internal19variable_if_dynamicIiLi7EEC1Ei)
                  00029f9a    0000000e     ExtendedKalman.obj (.text:_ZN5Eigen8internal38assign_DefaultTraversal_InnerUnrollingINS_6MatrixIfLi3ELi3ELi1ELi3ELi3EEENS_17CoeffBasedProductIRKNS2_IfLi3ELi7ELi0ELi3ELi7EEEKNS_9TransposeIS5_EELi6EEELi3ELi3EE3runERS3_RKSB_i)
                  00029fa8    0000000e     ExtendedKalman.obj (.text:_ZN5Eigen8internal38assign_DefaultTraversal_InnerUnrollingINS_6MatrixIfLi3ELi7ELi0ELi3ELi7EEENS_17CoeffBasedProductIRKS3_RKNS2_IfLi7ELi7ELi0ELi7ELi7EEELi6EEELi3ELi3EE3runERS3_RKSA_i)
                  00029fb6    0000000e     ExtendedKalman.obj (.text:_ZN5Eigen8internal38assign_DefaultTraversal_InnerUnrollingINS_6MatrixIfLi7ELi3ELi0ELi7ELi3EEENS_17CoeffBasedProductIRKNS2_IfLi7ELi3ELi1ELi7ELi3EEENS2_IfLi3ELi3ELi0ELi3ELi3EEELi6EEELi7ELi7EE3runERS3_RKS9_i)
                  00029fc4    0000000e     ExtendedKalman.obj (.text:_ZN5Eigen8internal38assign_DefaultTraversal_InnerUnrollingINS_6MatrixIfLi7ELi3ELi1ELi7ELi3EEENS_17CoeffBasedProductIRKNS2_IfLi7ELi7ELi0ELi7ELi7EEEKNS_9TransposeINS2_IfLi3ELi7ELi0ELi3ELi7EEEEELi6EEELi3ELi3EE3runERS3_RKSC_i)
                  00029fd2    0000000e     ExtendedKalman.obj (.text:_ZN5Eigen8internal38assign_DefaultTraversal_InnerUnrollingINS_6MatrixIfLi7ELi7ELi0ELi7ELi7EEENS_13CwiseBinaryOpINS0_13scalar_sum_opIfEEKNS_17CoeffBasedProductIRKS3_KNS_9TransposeIS3_EELi6EEES8_EELi7ELi7EE3runERS3_RKSF_i)
                  00029fe0    0000000e     ExtendedKalman.obj (.text:_ZN5Eigen8internal38assign_DefaultTraversal_InnerUnrollingINS_6MatrixIfLi7ELi7ELi0ELi7ELi7EEENS_17CoeffBasedProductIRKNS2_IfLi7ELi3ELi0ELi7ELi3EEERKNS2_IfLi3ELi7ELi0ELi3ELi7EEELi6EEELi7ELi7EE3runERS3_RKSB_i)
                  00029fee    0000000e     EigenTest.obj (.text:_ZN5Eigen8internal9cast_implIdiE3runERKd)
                  00029ffc    0000000e     ExtendedKalman.obj (.text:_ZNK5Eigen12CwiseUnaryOpINS_8internal18scalar_multiple_opIfEEKNS_6MatrixIfLi3ELi1ELi0ELi3ELi1EEEE16nestedExpressionEv)
                  0002a00a    0000000e     ExtendedKalman.obj (.text:_ZNK5Eigen12CwiseUnaryOpINS_8internal18scalar_multiple_opIfEEKNS_6MatrixIfLi3ELi1ELi0ELi3ELi1EEEE7functorEv)
                  0002a018    0000000e     EigenTest.obj (.text:_ZNK5Eigen12DenseStorageIdLin1ELin1ELin1ELi0EE4colsEv)
                  0002a026    0000000e     EigenTest.obj (.text:_ZNK5Eigen12DenseStorageIdLin1ELin1ELin1ELi0EE4dataEv)
                  0002a034    0000000e     EigenTest.obj (.text:_ZNK5Eigen12DenseStorageIdLin1ELin1ELin1ELi0EE4rowsEv)
                  0002a042    0000000e     ExtendedKalman.obj (.text:_ZNK5Eigen13CwiseBinaryOpINS_8internal13scalar_sum_opIfEEKNS_17CoeffBasedProductIRKNS_6MatrixIfLi3ELi7ELi0ELi3ELi7EEEKNS_9TransposeIS6_EELi6EEEKNS5_IfLi3ELi3ELi0ELi3ELi3EEEE3rhsEv)
                  0002a050    0000000e     ExtendedKalman.obj (.text:_ZNK5Eigen13CwiseBinaryOpINS_8internal13scalar_sum_opIfEEKNS_17CoeffBasedProductIRKNS_6MatrixIfLi3ELi7ELi0ELi3ELi7EEEKNS_9TransposeIS6_EELi6EEEKNS5_IfLi3ELi3ELi0ELi3ELi3EEEE4colsEv)
                  0002a05e    0000000e     ExtendedKalman.obj (.text:_ZNK5Eigen13CwiseBinaryOpINS_8internal13scalar_sum_opIfEEKNS_17CoeffBasedProductIRKNS_6MatrixIfLi3ELi7ELi0ELi3ELi7EEEKNS_9TransposeIS6_EELi6EEEKNS5_IfLi3ELi3ELi0ELi3ELi3EEEE4rowsEv)
                  0002a06c    0000000e     ExtendedKalman.obj (.text:_ZNK5Eigen13CwiseBinaryOpINS_8internal13scalar_sum_opIfEEKNS_17CoeffBasedProductIRKNS_6MatrixIfLi3ELi7ELi0ELi3ELi7EEEKNS_9TransposeIS6_EELi6EEEKNS5_IfLi3ELi3ELi0ELi3ELi3EEEE7functorEv)
                  0002a07a    0000000e     ExtendedKalman.obj (.text:_ZNK5Eigen13CwiseBinaryOpINS_8internal13scalar_sum_opIfEEKNS_17CoeffBasedProductIRKNS_6MatrixIfLi7ELi7ELi0ELi7ELi7EEEKNS_9TransposeIS6_EELi6EEES7_E4colsEv)
                  0002a088    0000000e     ExtendedKalman.obj (.text:_ZNK5Eigen13CwiseBinaryOpINS_8internal13scalar_sum_opIfEEKNS_17CoeffBasedProductIRKNS_6MatrixIfLi7ELi7ELi0ELi7ELi7EEEKNS_9TransposeIS6_EELi6EEES7_E4rowsEv)
                  0002a096    0000000e     ExtendedKalman.obj (.text:_ZNK5Eigen13CwiseBinaryOpINS_8internal13scalar_sum_opIfEEKNS_17CoeffBasedProductIRKNS_6MatrixIfLi7ELi7ELi0ELi7ELi7EEEKNS_9TransposeIS6_EELi6EEES7_E7functorEv)
                  0002a0a4    0000000e     ExtendedKalman.obj (.text:_ZNK5Eigen13CwiseBinaryOpINS_8internal13scalar_sum_opIfEEKNS_6MatrixIfLi7ELi1ELi0ELi7ELi1EEEKNS_17CoeffBasedProductIRKNS4_IfLi7ELi3ELi0ELi7ELi3EEERKNS4_IfLi3ELi1ELi0ELi3ELi1EEELi6EEEE3lhsEv)
                  0002a0b2    0000000e     ExtendedKalman.obj (.text:_ZNK5Eigen13CwiseBinaryOpINS_8internal13scalar_sum_opIfEEKNS_6MatrixIfLi7ELi1ELi0ELi7ELi1EEEKNS_17CoeffBasedProductIRKNS4_IfLi7ELi3ELi0ELi7ELi3EEERKNS4_IfLi3ELi1ELi0ELi3ELi1EEELi6EEEE3rhsEv)
                  0002a0c0    0000000e     ExtendedKalman.obj (.text:_ZNK5Eigen13CwiseBinaryOpINS_8internal13scalar_sum_opIfEEKNS_6MatrixIfLi7ELi1ELi0ELi7ELi1EEEKNS_17CoeffBasedProductIRKNS4_IfLi7ELi3ELi0ELi7ELi3EEERKNS4_IfLi3ELi1ELi0ELi3ELi1EEELi6EEEE7functorEv)
                  0002a0ce    0000000e     ExtendedKalman.obj (.text:_ZNK5Eigen13CwiseBinaryOpINS_8internal17scalar_product_opIffEEKNS_6MatrixIfLi3ELi1ELi0ELi3ELi1EEEKNS_5BlockIKNS4_IfLi3ELi3ELi0ELi3ELi3EEELi3ELi1ELb1EEEE3lhsEv)
                  0002a0dc    0000000e     ExtendedKalman.obj (.text:_ZNK5Eigen13CwiseBinaryOpINS_8internal17scalar_product_opIffEEKNS_6MatrixIfLi3ELi1ELi0ELi3ELi1EEEKNS_5BlockIKNS4_IfLi3ELi3ELi0ELi3ELi3EEELi3ELi1ELb1EEEE3rhsEv)
                  0002a0ea    0000000e     ExtendedKalman.obj (.text:_ZNK5Eigen13CwiseBinaryOpINS_8internal17scalar_product_opIffEEKNS_6MatrixIfLi3ELi1ELi0ELi3ELi1EEEKNS_5BlockIKNS4_IfLi3ELi3ELi0ELi3ELi3EEELi3ELi1ELb1EEEE7functorEv)
                  0002a0f8    0000000e     ExtendedKalman.obj (.text:_ZNK5Eigen13CwiseBinaryOpINS_8internal20scalar_difference_opIfEEKNS_6MatrixIfLi3ELi1ELi0ELi3ELi1EEES6_E3lhsEv)
                  0002a106    0000000e     ExtendedKalman.obj (.text:_ZNK5Eigen13CwiseBinaryOpINS_8internal20scalar_difference_opIfEEKNS_6MatrixIfLi3ELi1ELi0ELi3ELi1EEES6_E3rhsEv)
                  0002a114    0000000e     ExtendedKalman.obj (.text:_ZNK5Eigen13CwiseBinaryOpINS_8internal20scalar_difference_opIfEEKNS_6MatrixIfLi3ELi1ELi0ELi3ELi1EEES6_E7functorEv)
                  0002a122    0000000e     ExtendedKalman.obj (.text:_ZNK5Eigen13CwiseBinaryOpINS_8internal20scalar_difference_opIfEEKNS_6MatrixIfLi7ELi7ELi0ELi7ELi7EEEKNS_17CoeffBasedProductIRKNS4_IfLi7ELi3ELi0ELi7ELi3EEERKNS4_IfLi3ELi7ELi0ELi3ELi7EEELi6EEEE3lhsEv)
                  0002a130    0000000e     ExtendedKalman.obj (.text:_ZNK5Eigen13CwiseBinaryOpINS_8internal20scalar_difference_opIfEEKNS_6MatrixIfLi7ELi7ELi0ELi7ELi7EEEKNS_17CoeffBasedProductIRKNS4_IfLi7ELi3ELi0ELi7ELi3EEERKNS4_IfLi3ELi7ELi0ELi3ELi7EEELi6EEEE3rhsEv)
                  0002a13e    0000000e     ExtendedKalman.obj (.text:_ZNK5Eigen13CwiseBinaryOpINS_8internal20scalar_difference_opIfEEKNS_6MatrixIfLi7ELi7ELi0ELi7ELi7EEEKNS_17CoeffBasedProductIRKNS4_IfLi7ELi3ELi0ELi7ELi3EEERKNS4_IfLi3ELi7ELi0ELi3ELi7EEELi6EEEE7functorEv)
                  0002a14c    0000000e     ExtendedKalman.obj (.text:_ZNK5Eigen17CoeffBasedProductIRKNS_6MatrixIfLi3ELi7ELi0ELi3ELi7EEEKNS_9TransposeIS2_EELi6EE4colsEv)
                  0002a15a    0000000e     ExtendedKalman.obj (.text:_ZNK5Eigen17CoeffBasedProductIRKNS_6MatrixIfLi3ELi7ELi0ELi3ELi7EEEKNS_9TransposeIS2_EELi6EE4rowsEv)
                  0002a168    0000000e     ExtendedKalman.obj (.text:_ZNK5Eigen17CoeffBasedProductIRKNS_6MatrixIfLi3ELi7ELi0ELi3ELi7EEERKNS1_IfLi7ELi7ELi0ELi7ELi7EEELi6EE4colsEv)
                  0002a176    0000000e     ExtendedKalman.obj (.text:_ZNK5Eigen17CoeffBasedProductIRKNS_6MatrixIfLi3ELi7ELi0ELi3ELi7EEERKNS1_IfLi7ELi7ELi0ELi7ELi7EEELi6EE4rowsEv)
                  0002a184    0000000e     ExtendedKalman.obj (.text:_ZNK5Eigen17CoeffBasedProductIRKNS_6MatrixIfLi7ELi3ELi0ELi7ELi3EEERKNS1_IfLi3ELi1ELi0ELi3ELi1EEELi6EE4colsEv)
                  0002a192    0000000e     ExtendedKalman.obj (.text:_ZNK5Eigen17CoeffBasedProductIRKNS_6MatrixIfLi7ELi3ELi0ELi7ELi3EEERKNS1_IfLi3ELi1ELi0ELi3ELi1EEELi6EE4rowsEv)
                  0002a1a0    0000000e     ExtendedKalman.obj (.text:_ZNK5Eigen17CoeffBasedProductIRKNS_6MatrixIfLi7ELi3ELi0ELi7ELi3EEERKNS1_IfLi3ELi7ELi0ELi3ELi7EEELi6EE4colsEv)
                  0002a1ae    0000000e     ExtendedKalman.obj (.text:_ZNK5Eigen17CoeffBasedProductIRKNS_6MatrixIfLi7ELi3ELi0ELi7ELi3EEERKNS1_IfLi3ELi7ELi0ELi3ELi7EEELi6EE4rowsEv)
                  0002a1bc    0000000e     ExtendedKalman.obj (.text:_ZNK5Eigen17CoeffBasedProductIRKNS_6MatrixIfLi7ELi3ELi1ELi7ELi3EEENS1_IfLi3ELi3ELi0ELi3ELi3EEELi6EE4colsEv)
                  0002a1ca    0000000e     ExtendedKalman.obj (.text:_ZNK5Eigen17CoeffBasedProductIRKNS_6MatrixIfLi7ELi3ELi1ELi7ELi3EEENS1_IfLi3ELi3ELi0ELi3ELi3EEELi6EE4rowsEv)
                  0002a1d8    0000000e     ExtendedKalman.obj (.text:_ZNK5Eigen17CoeffBasedProductIRKNS_6MatrixIfLi7ELi7ELi0ELi7ELi7EEEKNS_9TransposeINS1_IfLi3ELi7ELi0ELi3ELi7EEEEELi6EE4colsEv)
                  0002a1e6    0000000e     ExtendedKalman.obj (.text:_ZNK5Eigen17CoeffBasedProductIRKNS_6MatrixIfLi7ELi7ELi0ELi7ELi7EEEKNS_9TransposeINS1_IfLi3ELi7ELi0ELi3ELi7EEEEELi6EE4rowsEv)
                  0002a1f4    0000000e     ExtendedKalman.obj (.text:_ZNK5Eigen17CoeffBasedProductIRKNS_6MatrixIfLi7ELi7ELi0ELi7ELi7EEEKNS_9TransposeIS2_EELi6EE4colsEv)
                  0002a202    0000000e     ExtendedKalman.obj (.text:_ZNK5Eigen17CoeffBasedProductIRKNS_6MatrixIfLi7ELi7ELi0ELi7ELi7EEEKNS_9TransposeIS2_EELi6EE4rowsEv)
                  0002a210    0000000e     ExtendedKalman.obj (.text:_ZNK5Eigen17CoeffBasedProductIRKNS_6MatrixIfLi7ELi7ELi0ELi7ELi7EEES4_Li6EE4colsEv)
                  0002a21e    0000000e     ExtendedKalman.obj (.text:_ZNK5Eigen17CoeffBasedProductIRKNS_6MatrixIfLi7ELi7ELi0ELi7ELi7EEES4_Li6EE4rowsEv)
                  0002a22c    0000000e     ExtendedKalman.obj (.text:_ZNK5Eigen8internal12inverse_implINS_6MatrixIfLi3ELi3ELi0ELi3ELi3EEEE4colsEv)
                  0002a23a    0000000e     ExtendedKalman.obj (.text:_ZNK5Eigen8internal12inverse_implINS_6MatrixIfLi3ELi3ELi0ELi3ELi3EEEE4rowsEv)
                  0002a248    0000000e     ExtendedKalman.obj (.text:_ZNK5Eigen8internal15BlockImpl_denseIKNS_6MatrixIfLi3ELi3ELi0ELi3ELi3EEELi3ELi1ELb1ELb1EE11innerStrideEv)
                  0002a256    0000000e     ExtendedKalman.obj (.text:_ZNK5Eigen8internal15BlockImpl_denseIKNS_6MatrixIfLi3ELi3ELi0ELi3ELi3EEELi3ELi1ELb1ELb1EE11outerStrideEv)
                  0002a264    0000000e     ExtendedKalman.obj (.text:_ZNK5Eigen8internal15BlockImpl_denseINS_6MatrixIfLi3ELi3ELi0ELi3ELi3EEELi1ELi3ELb0ELb1EE11innerStrideEv)
                  0002a272    0000000e     ExtendedKalman.obj (.text:_ZNK5Eigen9TransposeINS_6MatrixIfLi3ELi7ELi0ELi3ELi7EEEE16nestedExpressionEv)
                  0002a280    0000000e     ExtendedKalman.obj (.text:_ZNK5Eigen9TransposeINS_6MatrixIfLi3ELi7ELi0ELi3ELi7EEEE4colsEv)
                  0002a28e    0000000e     ExtendedKalman.obj (.text:_ZNK5Eigen9TransposeINS_6MatrixIfLi7ELi7ELi0ELi7ELi7EEEE16nestedExpressionEv)
                  0002a29c    0000000e     ExtendedKalman.obj (.text:_ZNK5Eigen9TransposeINS_6MatrixIfLi7ELi7ELi0ELi7ELi7EEEE4colsEv)
                  0002a2aa    0000000e     PID.obj (.text:_ZNKSo6sentrycvbEv)
                  0002a2b8    0000000e     PID.obj (.text:_ZNKSs4sizeEv)
                  0002a2c6    0000000e     EigenTest.obj (.text:_ZNKSs6lengthEv)
                  0002a2d4    0000000e     rtsv7M4_T_le_v4SPD16_eabi.lib : string.obj (.text:_ZNKSt11logic_error4whatEv)
                  0002a2e2    0000000e                                   : ios.obj (.text:_ZNKSt13runtime_error4whatEv)
                  0002a2f0    0000000e     PID.obj (.text:_ZNKSt19ostreambuf_iteratorIcSt11char_traitsIcEE6failedEv)
                  0002a2fe    0000000e     rtsv7M4_T_le_v4SPD16_eabi.lib : iostream.obj (.text:_ZNKSt7codecvtIcciE5do_inERiPKcS3_RS3_PcS5_RS5_)
                  0002a30c    0000000e                                   : iostream.obj (.text:_ZNKSt7codecvtIcciE6do_outERiPKcS3_RS3_PcS5_RS5_)
                  0002a31a    0000000e     PID.obj (.text:_ZNKSt8ios_base5flagsEv)
                  0002a328    0000000e     PID.obj (.text:_ZNKSt8ios_base5widthEv)
                  0002a336    0000000e     PID.obj (.text:_ZNKSt8ios_base7rdstateEv)
                  0002a344    0000000e     PID.obj (.text:_ZNKSt8ios_base9precisionEv)
                  0002a352    0000000e     PID.obj (.text:_ZNKSt8numpunctIcE16do_decimal_pointEv)
                  0002a360    0000000e     PID.obj (.text:_ZNKSt8numpunctIcE16do_thousands_sepEv)
                  0002a36e    0000000e     PID.obj (.text:_ZNKSt9basic_iosIcSt11char_traitsIcEE3tieEv)
                  0002a37c    0000000e     PID.obj (.text:_ZNKSt9basic_iosIcSt11char_traitsIcEE5rdbufEv)
                  0002a38a    0000000e     PID.obj (.text:_ZNSaIcEC1ERKS_)
                  0002a398    0000000e     EigenTest.obj (.text:_ZNSdD1Ev)
                  0002a3a6    0000000e     EigenTest.obj (.text:_ZNSiD1Ev)
                  0002a3b4    0000000e     EigenTest.obj (.text:_ZNSoD1Ev)
                  0002a3c2    0000000e     PID.obj (.text:_ZNSolsEPFRSoS_E)
                  0002a3d0    0000000e     PID.obj (.text:_ZNSt10ctype_baseD1Ev)
                  0002a3de    0000000e     PID.obj (.text:_ZNSt11char_traitsIcE11to_int_typeERKc)
                  0002a3ec    0000000e     EigenTest.obj (.text:_ZNSt11char_traitsIcE12to_char_typeERKi)
                  0002a3fa    0000000e     rtsv7M4_T_le_v4SPD16_eabi.lib : wiostrea.obj (.text:_ZNSt13basic_ostreamIwSt11char_traitsIwEED1Ev)
                  0002a408    0000000e     EigenTest.obj (.text:_ZNSt15basic_streambufIcSt11char_traitsIcEE5_LockEv)
                  0002a416    0000000e     EigenTest.obj (.text:_ZNSt15basic_streambufIcSt11char_traitsIcEE7_UnlockEv)
                  0002a424    0000000e     EigenTest.obj (.text:_ZNSt18basic_stringstreamIcSt11char_traitsIcESaIcEED1Ev)
                  0002a432    0000000e     PID.obj (.text:_ZNSt7_LockitC1Ei)
                  0002a440    0000000e     PID.obj (.text:_ZNSt7num_putIcSt19ostreambuf_iteratorIcSt11char_traitsIcEEED1Ev)
                  0002a44e    0000000e     EigenTest.obj (.text:_ZNSt9basic_iosIcSt11char_traitsIcEED1Ev)
                  0002a45c    0000000e     rtsv7M4_T_le_v4SPD16_eabi.lib : wiostrea.obj (.text:_ZNSt9basic_iosIwSt11char_traitsIwEED0Ev)
                  0002a46a    0000000e     PID.obj (.text:_ZSt9_AllocateIcEPT_jS1_)
                  0002a478    0000000e     rtsv7M4_T_le_v4SPD16_eabi.lib : copy_decompress_none.obj (.text:decompress:none)
                  0002a486    0000000c     SPISlave.obj (.text:_ZN15RingBufferClassI9message_sED1Ev)
                  0002a492    0000000c     SPISlave.obj (.text:_ZN15RingBufferClassIhED1Ev)
                  0002a49e    0000000c     ExtendedKalman.obj (.text:_ZN5Eigen10MatrixBaseINS_12CwiseUnaryOpINS_8internal18scalar_multiple_opIfEEKNS_6MatrixIfLi3ELi1ELi0ELi3ELi1EEEEEEC2Ev)
                  0002a4aa    0000000c     ExtendedKalman.obj (.text:_ZN5Eigen10MatrixBaseINS_13CwiseBinaryOpINS_8internal13scalar_sum_opIfEEKNS_17CoeffBasedProductIRKNS_6MatrixIfLi3ELi7ELi0ELi3ELi7EEEKNS_9TransposeIS7_EELi6EEEKNS6_IfLi3ELi3ELi0ELi3ELi3EEEEEEC2Ev)
                  0002a4b6    0000000c     ExtendedKalman.obj (.text:_ZN5Eigen10MatrixBaseINS_13CwiseBinaryOpINS_8internal13scalar_sum_opIfEEKNS_17CoeffBasedProductIRKNS_6MatrixIfLi7ELi7ELi0ELi7ELi7EEEKNS_9TransposeIS7_EELi6EEES8_EEEC2Ev)
                  0002a4c2    0000000c     ExtendedKalman.obj (.text:_ZN5Eigen10MatrixBaseINS_13CwiseBinaryOpINS_8internal13scalar_sum_opIfEEKNS_6MatrixIfLi7ELi1ELi0ELi7ELi1EEEKNS_17CoeffBasedProductIRKNS5_IfLi7ELi3ELi0ELi7ELi3EEERKNS5_IfLi3ELi1ELi0ELi3ELi1EEELi6EEEEEEC2Ev)
                  0002a4ce    0000000c     ExtendedKalman.obj (.text:_ZN5Eigen10MatrixBaseINS_13CwiseBinaryOpINS_8internal17scalar_product_opIffEEKNS_6MatrixIfLi3ELi1ELi0ELi3ELi1EEEKNS_5BlockIKNS5_IfLi3ELi3ELi0ELi3ELi3EEELi3ELi1ELb1EEEEEEC2Ev)
                  0002a4da    0000000c     ExtendedKalman.obj (.text:_ZN5Eigen10MatrixBaseINS_13CwiseBinaryOpINS_8internal20scalar_difference_opIfEEKNS_6MatrixIfLi3ELi1ELi0ELi3ELi1EEES7_EEEC2Ev)
                  0002a4e6    0000000c     ExtendedKalman.obj (.text:_ZN5Eigen10MatrixBaseINS_13CwiseBinaryOpINS_8internal20scalar_difference_opIfEEKNS_6MatrixIfLi7ELi7ELi0ELi7ELi7EEEKNS_17CoeffBasedProductIRKNS5_IfLi7ELi3ELi0ELi7ELi3EEERKNS5_IfLi3ELi7ELi0ELi3ELi7EEELi6EEEEEEC2Ev)
                  0002a4f2    0000000c     ExtendedKalman.obj (.text:_ZN5Eigen10MatrixBaseINS_13ReturnByValueINS_8internal12inverse_implINS_6MatrixIfLi3ELi3ELi0ELi3ELi3EEEEEEEEC2Ev)
                  0002a4fe    0000000c     ExtendedKalman.obj (.text:_ZN5Eigen10MatrixBaseINS_14CwiseNullaryOpINS_8internal18scalar_constant_opIfEENS_6MatrixIfLi3ELi1ELi0ELi3ELi1EEEEEEC2Ev)
                  0002a50a    0000000c     ExtendedKalman.obj (.text:_ZN5Eigen10MatrixBaseINS_14CwiseNullaryOpINS_8internal18scalar_constant_opIfEENS_6MatrixIfLi3ELi3ELi0ELi3ELi3EEEEEEC2Ev)
                  0002a516    0000000c     ExtendedKalman.obj (.text:_ZN5Eigen10MatrixBaseINS_14CwiseNullaryOpINS_8internal18scalar_constant_opIfEENS_6MatrixIfLi3ELi7ELi0ELi3ELi7EEEEEEC2Ev)
                  0002a522    0000000c     ExtendedKalman.obj (.text:_ZN5Eigen10MatrixBaseINS_14CwiseNullaryOpINS_8internal18scalar_constant_opIfEENS_6MatrixIfLi7ELi1ELi0ELi7ELi1EEEEEEC2Ev)
                  0002a52e    0000000c     ExtendedKalman.obj (.text:_ZN5Eigen10MatrixBaseINS_14CwiseNullaryOpINS_8internal18scalar_constant_opIfEENS_6MatrixIfLi7ELi3ELi0ELi7ELi3EEEEEEC2Ev)
                  0002a53a    0000000c     ExtendedKalman.obj (.text:_ZN5Eigen10MatrixBaseINS_14CwiseNullaryOpINS_8internal18scalar_constant_opIfEENS_6MatrixIfLi7ELi7ELi0ELi7ELi7EEEEEEC2Ev)
                  0002a546    0000000c     ExtendedKalman.obj (.text:_ZN5Eigen10MatrixBaseINS_14CwiseNullaryOpINS_8internal18scalar_identity_opIfEENS_6MatrixIfLi7ELi7ELi0ELi7ELi7EEEEEEC2Ev)
                  0002a552    0000000c     ExtendedKalman.obj (.text:_ZN5Eigen10MatrixBaseINS_17CoeffBasedProductINS_6MatrixIfLi7ELi7ELi0ELi7ELi7EEERKS3_Li6EEEEC2Ev)
                  0002a55e    0000000c     ExtendedKalman.obj (.text:_ZN5Eigen10MatrixBaseINS_17CoeffBasedProductIRKNS_6MatrixIfLi3ELi7ELi0ELi3ELi7EEEKNS_9TransposeIS3_EELi6EEEEC2Ev)
                  0002a56a    0000000c     ExtendedKalman.obj (.text:_ZN5Eigen10MatrixBaseINS_17CoeffBasedProductIRKNS_6MatrixIfLi3ELi7ELi0ELi3ELi7EEERKNS2_IfLi7ELi7ELi0ELi7ELi7EEELi6EEEEC2Ev)
                  0002a576    0000000c     ExtendedKalman.obj (.text:_ZN5Eigen10MatrixBaseINS_17CoeffBasedProductIRKNS_6MatrixIfLi7ELi3ELi0ELi7ELi3EEERKNS2_IfLi3ELi1ELi0ELi3ELi1EEELi6EEEEC2Ev)
                  0002a582    0000000c     ExtendedKalman.obj (.text:_ZN5Eigen10MatrixBaseINS_17CoeffBasedProductIRKNS_6MatrixIfLi7ELi3ELi0ELi7ELi3EEERKNS2_IfLi3ELi7ELi0ELi3ELi7EEELi6EEEEC2Ev)
                  0002a58e    0000000c     ExtendedKalman.obj (.text:_ZN5Eigen10MatrixBaseINS_17CoeffBasedProductIRKNS_6MatrixIfLi7ELi3ELi1ELi7ELi3EEENS2_IfLi3ELi3ELi0ELi3ELi3EEELi6EEEEC2Ev)
                  0002a59a    0000000c     ExtendedKalman.obj (.text:_ZN5Eigen10MatrixBaseINS_17CoeffBasedProductIRKNS_6MatrixIfLi7ELi7ELi0ELi7ELi7EEEKNS_9TransposeINS2_IfLi3ELi7ELi0ELi3ELi7EEEEELi6EEEEC2Ev)
                  0002a5a6    0000000c     ExtendedKalman.obj (.text:_ZN5Eigen10MatrixBaseINS_17CoeffBasedProductIRKNS_6MatrixIfLi7ELi7ELi0ELi7ELi7EEEKNS_9TransposeIS3_EELi6EEEEC2Ev)
                  0002a5b2    0000000c     ExtendedKalman.obj (.text:_ZN5Eigen10MatrixBaseINS_17CoeffBasedProductIRKNS_6MatrixIfLi7ELi7ELi0ELi7ELi7EEES5_Li6EEEEC2Ev)
                  0002a5be    0000000c     ExtendedKalman.obj (.text:_ZN5Eigen10MatrixBaseINS_17SelfCwiseBinaryOpINS_8internal17scalar_product_opIffEENS_6MatrixIfLi7ELi7ELi0ELi7ELi7EEENS_14CwiseNullaryOpINS2_18scalar_constant_opIfEES6_EEEEEC2Ev)
                  0002a5ca    0000000c     ExtendedKalman.obj (.text:_ZN5Eigen10MatrixBaseINS_5BlockIKNS_6MatrixIfLi3ELi3ELi0ELi3ELi3EEELi3ELi1ELb1EEEEC2Ev)
                  0002a5d6    0000000c     ExtendedKalman.obj (.text:_ZN5Eigen10MatrixBaseINS_5BlockINS_6MatrixIfLi3ELi3ELi0ELi3ELi3EEELi1ELi3ELb0EEEEC2Ev)
                  0002a5e2    0000000c     EigenTest.obj (.text:_ZN5Eigen10MatrixBaseINS_6MatrixIdLin1ELin1ELi0ELin1ELin1EEEEC2Ev)
                  0002a5ee    0000000c     ExtendedKalman.obj (.text:_ZN5Eigen10MatrixBaseINS_6MatrixIfLi3ELi1ELi0ELi3ELi1EEEEC2Ev)
                  0002a5fa    0000000c     ExtendedKalman.obj (.text:_ZN5Eigen10MatrixBaseINS_6MatrixIfLi3ELi3ELi0ELi3ELi3EEEEC2Ev)
                  0002a606    0000000c     ExtendedKalman.obj (.text:_ZN5Eigen10MatrixBaseINS_6MatrixIfLi3ELi3ELi1ELi3ELi3EEEEC2Ev)
                  0002a612    0000000c     ExtendedKalman.obj (.text:_ZN5Eigen10MatrixBaseINS_6MatrixIfLi3ELi7ELi0ELi3ELi7EEEEC2Ev)
                  0002a61e    0000000c     ExtendedKalman.obj (.text:_ZN5Eigen10MatrixBaseINS_6MatrixIfLi7ELi1ELi0ELi7ELi1EEEEC2Ev)
                  0002a62a    0000000c     ExtendedKalman.obj (.text:_ZN5Eigen10MatrixBaseINS_6MatrixIfLi7ELi3ELi0ELi7ELi3EEEEC2Ev)
                  0002a636    0000000c     ExtendedKalman.obj (.text:_ZN5Eigen10MatrixBaseINS_6MatrixIfLi7ELi3ELi1ELi7ELi3EEEEC2Ev)
                  0002a642    0000000c     ExtendedKalman.obj (.text:_ZN5Eigen10MatrixBaseINS_6MatrixIfLi7ELi7ELi0ELi7ELi7EEEEC2Ev)
                  0002a64e    0000000c     ExtendedKalman.obj (.text:_ZN5Eigen10MatrixBaseINS_6MatrixIfLi7ELi7ELi1ELi7ELi7EEEEC2Ev)
                  0002a65a    0000000c     ExtendedKalman.obj (.text:_ZN5Eigen10MatrixBaseINS_9TransposeIKNS_12CwiseUnaryOpINS_8internal18scalar_multiple_opIfEEKNS_6MatrixIfLi3ELi1ELi0ELi3ELi1EEEEEEEEC2Ev)
                  0002a666    0000000c     ExtendedKalman.obj (.text:_ZN5Eigen10MatrixBaseINS_9TransposeINS_6MatrixIfLi3ELi7ELi0ELi3ELi7EEEEEEC2Ev)
                  0002a672    0000000c     ExtendedKalman.obj (.text:_ZN5Eigen10MatrixBaseINS_9TransposeINS_6MatrixIfLi7ELi7ELi0ELi7ELi7EEEEEEC2Ev)
                  0002a67e    0000000c     ExtendedKalman.obj (.text:_ZN5Eigen12DenseStorageIfLi21ELi3ELi7ELi0EE4dataEv)
                  0002a68a    0000000c     ExtendedKalman.obj (.text:_ZN5Eigen12DenseStorageIfLi21ELi7ELi3ELi0EE4dataEv)
                  0002a696    0000000c     ExtendedKalman.obj (.text:_ZN5Eigen12DenseStorageIfLi21ELi7ELi3ELi1EE4dataEv)
                  0002a6a2    0000000c     ExtendedKalman.obj (.text:_ZN5Eigen12DenseStorageIfLi3ELi3ELi1ELi0EE4dataEv)
                  0002a6ae    0000000c     ExtendedKalman.obj (.text:_ZN5Eigen12DenseStorageIfLi49ELi7ELi7ELi0EE4dataEv)
                  0002a6ba    0000000c     ExtendedKalman.obj (.text:_ZN5Eigen12DenseStorageIfLi49ELi7ELi7ELi1EE4dataEv)
                  0002a6c6    0000000c     ExtendedKalman.obj (.text:_ZN5Eigen12DenseStorageIfLi7ELi7ELi1ELi0EE4dataEv)
                  0002a6d2    0000000c     ExtendedKalman.obj (.text:_ZN5Eigen12DenseStorageIfLi9ELi3ELi3ELi0EE4dataEv)
                  0002a6de    0000000c     ExtendedKalman.obj (.text:_ZN5Eigen12DenseStorageIfLi9ELi3ELi3ELi1EE4dataEv)
                  0002a6ea    0000000c     ExtendedKalman.obj (.text:_ZN5Eigen13ReturnByValueINS_8internal12inverse_implINS_6MatrixIfLi3ELi3ELi0ELi3ELi3EEEEEEC2Ev)
                  0002a6f6    0000000c     ExtendedKalman.obj (.text:_ZN5Eigen13TransposeImplIKNS_12CwiseUnaryOpINS_8internal18scalar_multiple_opIfEEKNS_6MatrixIfLi3ELi1ELi0ELi3ELi1EEEEENS_5DenseEEC2Ev)
                  0002a702    0000000c     ExtendedKalman.obj (.text:_ZN5Eigen13TransposeImplINS_6MatrixIfLi3ELi7ELi0ELi3ELi7EEENS_5DenseEEC2Ev)
                  0002a70e    0000000c     ExtendedKalman.obj (.text:_ZN5Eigen13TransposeImplINS_6MatrixIfLi7ELi7ELi0ELi7ELi7EEENS_5DenseEEC2Ev)
                  0002a71a    0000000c     EigenTest.obj (.text:_ZN5Eigen15PlainObjectBaseINS_6MatrixIdLin1ELin1ELi0ELin1ELin1EEEEC2Ev)
                  0002a726    0000000c     EigenTest.obj (.text:_ZN5Eigen15PlainObjectBaseINS_6MatrixIdLin1ELin1ELi0ELin1ELin1EEEED2Ev)
                  0002a732    0000000c     ExtendedKalman.obj (.text:_ZN5Eigen15PlainObjectBaseINS_6MatrixIfLi3ELi1ELi0ELi3ELi1EEEEC2Ev)
                  0002a73e    0000000c     ExtendedKalman.obj (.text:_ZN5Eigen15PlainObjectBaseINS_6MatrixIfLi3ELi3ELi0ELi3ELi3EEEEC2Ev)
                  0002a74a    0000000c     ExtendedKalman.obj (.text:_ZN5Eigen15PlainObjectBaseINS_6MatrixIfLi3ELi3ELi1ELi3ELi3EEEEC2Ev)
                  0002a756    0000000c     ExtendedKalman.obj (.text:_ZN5Eigen15PlainObjectBaseINS_6MatrixIfLi3ELi7ELi0ELi3ELi7EEEEC2Ev)
                  0002a762    0000000c     ExtendedKalman.obj (.text:_ZN5Eigen15PlainObjectBaseINS_6MatrixIfLi7ELi1ELi0ELi7ELi1EEEEC2Ev)
                  0002a76e    0000000c     ExtendedKalman.obj (.text:_ZN5Eigen15PlainObjectBaseINS_6MatrixIfLi7ELi3ELi0ELi7ELi3EEEEC2Ev)
                  0002a77a    0000000c     ExtendedKalman.obj (.text:_ZN5Eigen15PlainObjectBaseINS_6MatrixIfLi7ELi3ELi1ELi7ELi3EEEEC2Ev)
                  0002a786    0000000c     ExtendedKalman.obj (.text:_ZN5Eigen15PlainObjectBaseINS_6MatrixIfLi7ELi7ELi0ELi7ELi7EEEEC2Ev)
                  0002a792    0000000c     ExtendedKalman.obj (.text:_ZN5Eigen15PlainObjectBaseINS_6MatrixIfLi7ELi7ELi1ELi7ELi7EEEEC2Ev)
                  0002a79e    0000000c     ExtendedKalman.obj (.text:_ZN5Eigen16CwiseUnaryOpImplINS_8internal18scalar_multiple_opIfEEKNS_6MatrixIfLi3ELi1ELi0ELi3ELi1EEENS_5DenseEEC2Ev)
                  0002a7aa    0000000c     ExtendedKalman.obj (.text:_ZN5Eigen17CwiseBinaryOpImplINS_8internal13scalar_sum_opIfEEKNS_17CoeffBasedProductIRKNS_6MatrixIfLi3ELi7ELi0ELi3ELi7EEEKNS_9TransposeIS6_EELi6EEEKNS5_IfLi3ELi3ELi0ELi3ELi3EEENS_5DenseEEC2Ev)
                  0002a7b6    0000000c     ExtendedKalman.obj (.text:_ZN5Eigen17CwiseBinaryOpImplINS_8internal13scalar_sum_opIfEEKNS_17CoeffBasedProductIRKNS_6MatrixIfLi7ELi7ELi0ELi7ELi7EEEKNS_9TransposeIS6_EELi6EEES7_NS_5DenseEEC2Ev)
                  0002a7c2    0000000c     ExtendedKalman.obj (.text:_ZN5Eigen17CwiseBinaryOpImplINS_8internal13scalar_sum_opIfEEKNS_6MatrixIfLi7ELi1ELi0ELi7ELi1EEEKNS_17CoeffBasedProductIRKNS4_IfLi7ELi3ELi0ELi7ELi3EEERKNS4_IfLi3ELi1ELi0ELi3ELi1EEELi6EEENS_5DenseEEC2Ev)
                  0002a7ce    0000000c     ExtendedKalman.obj (.text:_ZN5Eigen17CwiseBinaryOpImplINS_8internal17scalar_product_opIffEEKNS_6MatrixIfLi3ELi1ELi0ELi3ELi1EEEKNS_5BlockIKNS4_IfLi3ELi3ELi0ELi3ELi3EEELi3ELi1ELb1EEENS_5DenseEEC2Ev)
                  0002a7da    0000000c     ExtendedKalman.obj (.text:_ZN5Eigen17CwiseBinaryOpImplINS_8internal20scalar_difference_opIfEEKNS_6MatrixIfLi3ELi1ELi0ELi3ELi1EEES6_NS_5DenseEEC2Ev)
                  0002a7e6    0000000c     ExtendedKalman.obj (.text:_ZN5Eigen17CwiseBinaryOpImplINS_8internal20scalar_difference_opIfEEKNS_6MatrixIfLi7ELi7ELi0ELi7ELi7EEEKNS_17CoeffBasedProductIRKNS4_IfLi7ELi3ELi0ELi7ELi3EEERKNS4_IfLi3ELi7ELi0ELi3ELi7EEELi6EEENS_5DenseEEC2Ev)
                  0002a7f2    0000000c     ExtendedKalman.obj (.text:_ZN5Eigen8internal11plain_arrayIfLi21ELi0ELi0EEC1Ev)
                  0002a7fe    0000000c     ExtendedKalman.obj (.text:_ZN5Eigen8internal11plain_arrayIfLi21ELi1ELi0EEC1Ev)
                  0002a80a    0000000c     ExtendedKalman.obj (.text:_ZN5Eigen8internal11plain_arrayIfLi3ELi0ELi0EEC1Ev)
                  0002a816    0000000c     ExtendedKalman.obj (.text:_ZN5Eigen8internal11plain_arrayIfLi49ELi0ELi0EEC1Ev)
                  0002a822    0000000c     ExtendedKalman.obj (.text:_ZN5Eigen8internal11plain_arrayIfLi49ELi1ELi0EEC1Ev)
                  0002a82e    0000000c     ExtendedKalman.obj (.text:_ZN5Eigen8internal11plain_arrayIfLi7ELi0ELi0EEC1Ev)
                  0002a83a    0000000c     ExtendedKalman.obj (.text:_ZN5Eigen8internal11plain_arrayIfLi9ELi0ELi0EEC1Ev)
                  0002a846    0000000c     ExtendedKalman.obj (.text:_ZN5Eigen8internal11plain_arrayIfLi9ELi1ELi0EEC1Ev)
                  0002a852    0000000c     EigenTest.obj (.text:_ZN5Eigen8internal12aligned_freeEPv)
                  0002a85e    0000000c     ExtendedKalman.obj (.text:_ZN5Eigen8internal14const_cast_ptrIfEEPT_PKS2_)
                  0002a86a    0000000c     EigenTest.obj (.text:_ZN5Eigen8internal24conditional_aligned_freeILb1EEEvPv)
                  0002a876    0000000c     EigenTest.obj (.text:_ZN5Eigen8internal26conditional_aligned_mallocILb1EEEPvj)
                  0002a882    0000000c     ExtendedKalman.obj (.text:_ZN5Eigen8internal28check_rows_cols_for_overflowILi21EE3runIiEEvT_S4_)
                  0002a88e    0000000c     ExtendedKalman.obj (.text:_ZN5Eigen8internal28check_rows_cols_for_overflowILi3EE3runIiEEvT_S4_)
                  0002a89a    0000000c     ExtendedKalman.obj (.text:_ZN5Eigen8internal28check_rows_cols_for_overflowILi49EE3runIiEEvT_S4_)
                  0002a8a6    0000000c     ExtendedKalman.obj (.text:_ZN5Eigen8internal28check_rows_cols_for_overflowILi7EE3runIiEEvT_S4_)
                  0002a8b2    0000000c     ExtendedKalman.obj (.text:_ZN5Eigen8internal28check_rows_cols_for_overflowILi9EE3runIiEEvT_S4_)
                  0002a8be    0000000c     ExtendedKalman.obj (.text:_ZN5Eigen8internal40assign_LinearTraversal_CompleteUnrollingINS_17SelfCwiseBinaryOpINS0_17scalar_product_opIffEENS_6MatrixIfLi7ELi7ELi0ELi7ELi7EEENS_14CwiseNullaryOpINS0_18scalar_constant_opIfEES6_EEEESA_Li49ELi49EE3runERSB_RKSA_)
                  0002a8ca    0000000c     ExtendedKalman.obj (.text:_ZN5Eigen8internal40assign_LinearTraversal_CompleteUnrollingINS_5BlockINS_6MatrixIfLi3ELi3ELi0ELi3ELi3EEELi1ELi3ELb0EEENS_9TransposeIKNS_12CwiseUnaryOpINS0_18scalar_multiple_opIfEEKNS3_IfLi3ELi1ELi0ELi3ELi1EEEEEEELi3ELi3EE3runERS5_RKSE_)
                  0002a8d6    0000000c     ExtendedKalman.obj (.text:_ZN5Eigen8internal40assign_LinearTraversal_CompleteUnrollingINS_6MatrixIfLi3ELi1ELi0ELi3ELi1EEENS_13CwiseBinaryOpINS0_20scalar_difference_opIfEEKS3_S7_EELi3ELi3EE3runERS3_RKS8_)
                  0002a8e2    0000000c     ExtendedKalman.obj (.text:_ZN5Eigen8internal40assign_LinearTraversal_CompleteUnrollingINS_6MatrixIfLi3ELi1ELi0ELi3ELi1EEENS_14CwiseNullaryOpINS0_18scalar_constant_opIfEES3_EELi3ELi3EE3runERS3_RKS7_)
                  0002a8ee    0000000c     ExtendedKalman.obj (.text:_ZN5Eigen8internal40assign_LinearTraversal_CompleteUnrollingINS_6MatrixIfLi3ELi3ELi0ELi3ELi3EEENS_14CwiseNullaryOpINS0_18scalar_constant_opIfEES3_EELi9ELi9EE3runERS3_RKS7_)
                  0002a8fa    0000000c     ExtendedKalman.obj (.text:_ZN5Eigen8internal40assign_LinearTraversal_CompleteUnrollingINS_6MatrixIfLi3ELi7ELi0ELi3ELi7EEENS_14CwiseNullaryOpINS0_18scalar_constant_opIfEES3_EELi21ELi21EE3runERS3_RKS7_)
                  0002a906    0000000c     ExtendedKalman.obj (.text:_ZN5Eigen8internal40assign_LinearTraversal_CompleteUnrollingINS_6MatrixIfLi7ELi1ELi0ELi7ELi1EEENS_13CwiseBinaryOpINS0_13scalar_sum_opIfEEKS3_KNS_17CoeffBasedProductIRKNS2_IfLi7ELi3ELi0ELi7ELi3EEERKNS2_IfLi3ELi1ELi0ELi3ELi1EEELi6EEEEELi7ELi7EE3runERS3_RKSH_)
                  0002a912    0000000c     ExtendedKalman.obj (.text:_ZN5Eigen8internal40assign_LinearTraversal_CompleteUnrollingINS_6MatrixIfLi7ELi1ELi0ELi7ELi1EEENS_14CwiseNullaryOpINS0_18scalar_constant_opIfEES3_EELi7ELi7EE3runERS3_RKS7_)
                  0002a91e    0000000c     ExtendedKalman.obj (.text:_ZN5Eigen8internal40assign_LinearTraversal_CompleteUnrollingINS_6MatrixIfLi7ELi3ELi0ELi7ELi3EEENS_14CwiseNullaryOpINS0_18scalar_constant_opIfEES3_EELi21ELi21EE3runERS3_RKS7_)
                  0002a92a    0000000c     ExtendedKalman.obj (.text:_ZN5Eigen8internal40assign_LinearTraversal_CompleteUnrollingINS_6MatrixIfLi7ELi3ELi0ELi7ELi3EEES3_Li21ELi21EE3runERS3_RKS3_)
                  0002a936    0000000c     ExtendedKalman.obj (.text:_ZN5Eigen8internal40assign_LinearTraversal_CompleteUnrollingINS_6MatrixIfLi7ELi7ELi0ELi7ELi7EEENS_14CwiseNullaryOpINS0_18scalar_constant_opIfEES3_EELi49ELi49EE3runERS3_RKS7_)
                  0002a942    0000000c     ExtendedKalman.obj (.text:_ZN5Eigen8internal40assign_LinearTraversal_CompleteUnrollingINS_6MatrixIfLi7ELi7ELi0ELi7ELi7EEES3_Li49ELi49EE3runERS3_RKS3_)
                  0002a94e    0000000c     ExtendedKalman.obj (.text:_ZN5Eigen8internal41assign_DefaultTraversal_CompleteUnrollingINS_6MatrixIfLi3ELi3ELi0ELi3ELi3EEENS_13CwiseBinaryOpINS0_13scalar_sum_opIfEEKNS_17CoeffBasedProductIRKNS2_IfLi3ELi7ELi0ELi3ELi7EEEKNS_9TransposeIS8_EELi6EEEKS3_EELi9ELi9EE3runERS3_RKSH_)
                  0002a95a    0000000c     ExtendedKalman.obj (.text:_ZN5Eigen8internal41assign_DefaultTraversal_CompleteUnrollingINS_6MatrixIfLi7ELi1ELi0ELi7ELi1EEENS_17CoeffBasedProductIRKNS2_IfLi7ELi3ELi0ELi7ELi3EEERKNS2_IfLi3ELi1ELi0ELi3ELi1EEELi6EEELi7ELi7EE3runERS3_RKSB_)
                  0002a966    0000000c     ExtendedKalman.obj (.text:_ZN5Eigen8internal41assign_DefaultTraversal_CompleteUnrollingINS_6MatrixIfLi7ELi7ELi0ELi7ELi7EEENS_14CwiseNullaryOpINS0_18scalar_identity_opIfEES3_EELi49ELi49EE3runERS3_RKS7_)
                  0002a972    0000000c     EigenTest.obj (.text:_ZN5Eigen8internal4castIdiEET0_RKT_)
                  0002a97e    0000000c     EigenTest.obj (.text:_ZN5Eigen8internal4castIfiEET0_RKT_)
                  0002a98a    0000000c     ExtendedKalman.obj (.text:_ZN5Eigen9DenseBaseINS_12CwiseUnaryOpINS_8internal18scalar_multiple_opIfEEKNS_6MatrixIfLi3ELi1ELi0ELi3ELi1EEEEEEC1Ev)
                  0002a996    0000000c     ExtendedKalman.obj (.text:_ZN5Eigen9DenseBaseINS_12CwiseUnaryOpINS_8internal18scalar_multiple_opIfEEKNS_6MatrixIfLi3ELi1ELi0ELi3ELi1EEEEEEC2Ev)
                  0002a9a2    0000000c     ExtendedKalman.obj (.text:_ZN5Eigen9DenseBaseINS_13CwiseBinaryOpINS_8internal13scalar_sum_opIfEEKNS_17CoeffBasedProductIRKNS_6MatrixIfLi3ELi7ELi0ELi3ELi7EEEKNS_9TransposeIS7_EELi6EEEKNS6_IfLi3ELi3ELi0ELi3ELi3EEEEEEC1Ev)
                  0002a9ae    0000000c     ExtendedKalman.obj (.text:_ZN5Eigen9DenseBaseINS_13CwiseBinaryOpINS_8internal13scalar_sum_opIfEEKNS_17CoeffBasedProductIRKNS_6MatrixIfLi3ELi7ELi0ELi3ELi7EEEKNS_9TransposeIS7_EELi6EEEKNS6_IfLi3ELi3ELi0ELi3ELi3EEEEEEC2Ev)
                  0002a9ba    0000000c     ExtendedKalman.obj (.text:_ZN5Eigen9DenseBaseINS_13CwiseBinaryOpINS_8internal13scalar_sum_opIfEEKNS_17CoeffBasedProductIRKNS_6MatrixIfLi7ELi7ELi0ELi7ELi7EEEKNS_9TransposeIS7_EELi6EEES8_EEEC1Ev)
                  0002a9c6    0000000c     ExtendedKalman.obj (.text:_ZN5Eigen9DenseBaseINS_13CwiseBinaryOpINS_8internal13scalar_sum_opIfEEKNS_17CoeffBasedProductIRKNS_6MatrixIfLi7ELi7ELi0ELi7ELi7EEEKNS_9TransposeIS7_EELi6EEES8_EEEC2Ev)
                  0002a9d2    0000000c     ExtendedKalman.obj (.text:_ZN5Eigen9DenseBaseINS_13CwiseBinaryOpINS_8internal13scalar_sum_opIfEEKNS_6MatrixIfLi7ELi1ELi0ELi7ELi1EEEKNS_17CoeffBasedProductIRKNS5_IfLi7ELi3ELi0ELi7ELi3EEERKNS5_IfLi3ELi1ELi0ELi3ELi1EEELi6EEEEEEC1Ev)
                  0002a9de    0000000c     ExtendedKalman.obj (.text:_ZN5Eigen9DenseBaseINS_13CwiseBinaryOpINS_8internal13scalar_sum_opIfEEKNS_6MatrixIfLi7ELi1ELi0ELi7ELi1EEEKNS_17CoeffBasedProductIRKNS5_IfLi7ELi3ELi0ELi7ELi3EEERKNS5_IfLi3ELi1ELi0ELi3ELi1EEELi6EEEEEEC2Ev)
                  0002a9ea    0000000c     ExtendedKalman.obj (.text:_ZN5Eigen9DenseBaseINS_13CwiseBinaryOpINS_8internal17scalar_product_opIffEEKNS_6MatrixIfLi3ELi1ELi0ELi3ELi1EEEKNS_5BlockIKNS5_IfLi3ELi3ELi0ELi3ELi3EEELi3ELi1ELb1EEEEEEC1Ev)
                  0002a9f6    0000000c     ExtendedKalman.obj (.text:_ZN5Eigen9DenseBaseINS_13CwiseBinaryOpINS_8internal17scalar_product_opIffEEKNS_6MatrixIfLi3ELi1ELi0ELi3ELi1EEEKNS_5BlockIKNS5_IfLi3ELi3ELi0ELi3ELi3EEELi3ELi1ELb1EEEEEEC2Ev)
                  0002aa02    0000000c     ExtendedKalman.obj (.text:_ZN5Eigen9DenseBaseINS_13CwiseBinaryOpINS_8internal20scalar_difference_opIfEEKNS_6MatrixIfLi3ELi1ELi0ELi3ELi1EEES7_EEEC1Ev)
                  0002aa0e    0000000c     ExtendedKalman.obj (.text:_ZN5Eigen9DenseBaseINS_13CwiseBinaryOpINS_8internal20scalar_difference_opIfEEKNS_6MatrixIfLi3ELi1ELi0ELi3ELi1EEES7_EEEC2Ev)
                  0002aa1a    0000000c     ExtendedKalman.obj (.text:_ZN5Eigen9DenseBaseINS_13CwiseBinaryOpINS_8internal20scalar_difference_opIfEEKNS_6MatrixIfLi7ELi7ELi0ELi7ELi7EEEKNS_17CoeffBasedProductIRKNS5_IfLi7ELi3ELi0ELi7ELi3EEERKNS5_IfLi3ELi7ELi0ELi3ELi7EEELi6EEEEEEC1Ev)
                  0002aa26    0000000c     ExtendedKalman.obj (.text:_ZN5Eigen9DenseBaseINS_13CwiseBinaryOpINS_8internal20scalar_difference_opIfEEKNS_6MatrixIfLi7ELi7ELi0ELi7ELi7EEEKNS_17CoeffBasedProductIRKNS5_IfLi7ELi3ELi0ELi7ELi3EEERKNS5_IfLi3ELi7ELi0ELi3ELi7EEELi6EEEEEEC2Ev)
                  0002aa32    0000000c     ExtendedKalman.obj (.text:_ZN5Eigen9DenseBaseINS_13ReturnByValueINS_8internal12inverse_implINS_6MatrixIfLi3ELi3ELi0ELi3ELi3EEEEEEEEC1Ev)
                  0002aa3e    0000000c     ExtendedKalman.obj (.text:_ZN5Eigen9DenseBaseINS_13ReturnByValueINS_8internal12inverse_implINS_6MatrixIfLi3ELi3ELi0ELi3ELi3EEEEEEEEC2Ev)
                  0002aa4a    0000000c     ExtendedKalman.obj (.text:_ZN5Eigen9DenseBaseINS_14CwiseNullaryOpINS_8internal18scalar_constant_opIfEENS_6MatrixIfLi3ELi1ELi0ELi3ELi1EEEEEEC1Ev)
                  0002aa56    0000000c     ExtendedKalman.obj (.text:_ZN5Eigen9DenseBaseINS_14CwiseNullaryOpINS_8internal18scalar_constant_opIfEENS_6MatrixIfLi3ELi1ELi0ELi3ELi1EEEEEEC2Ev)
                  0002aa62    0000000c     ExtendedKalman.obj (.text:_ZN5Eigen9DenseBaseINS_14CwiseNullaryOpINS_8internal18scalar_constant_opIfEENS_6MatrixIfLi3ELi3ELi0ELi3ELi3EEEEEEC1Ev)
                  0002aa6e    0000000c     ExtendedKalman.obj (.text:_ZN5Eigen9DenseBaseINS_14CwiseNullaryOpINS_8internal18scalar_constant_opIfEENS_6MatrixIfLi3ELi3ELi0ELi3ELi3EEEEEEC2Ev)
                  0002aa7a    0000000c     ExtendedKalman.obj (.text:_ZN5Eigen9DenseBaseINS_14CwiseNullaryOpINS_8internal18scalar_constant_opIfEENS_6MatrixIfLi3ELi7ELi0ELi3ELi7EEEEEEC1Ev)
                  0002aa86    0000000c     ExtendedKalman.obj (.text:_ZN5Eigen9DenseBaseINS_14CwiseNullaryOpINS_8internal18scalar_constant_opIfEENS_6MatrixIfLi3ELi7ELi0ELi3ELi7EEEEEEC2Ev)
                  0002aa92    0000000c     ExtendedKalman.obj (.text:_ZN5Eigen9DenseBaseINS_14CwiseNullaryOpINS_8internal18scalar_constant_opIfEENS_6MatrixIfLi7ELi1ELi0ELi7ELi1EEEEEEC1Ev)
                  0002aa9e    0000000c     ExtendedKalman.obj (.text:_ZN5Eigen9DenseBaseINS_14CwiseNullaryOpINS_8internal18scalar_constant_opIfEENS_6MatrixIfLi7ELi1ELi0ELi7ELi1EEEEEEC2Ev)
                  0002aaaa    0000000c     ExtendedKalman.obj (.text:_ZN5Eigen9DenseBaseINS_14CwiseNullaryOpINS_8internal18scalar_constant_opIfEENS_6MatrixIfLi7ELi3ELi0ELi7ELi3EEEEEEC1Ev)
                  0002aab6    0000000c     ExtendedKalman.obj (.text:_ZN5Eigen9DenseBaseINS_14CwiseNullaryOpINS_8internal18scalar_constant_opIfEENS_6MatrixIfLi7ELi3ELi0ELi7ELi3EEEEEEC2Ev)
                  0002aac2    0000000c     ExtendedKalman.obj (.text:_ZN5Eigen9DenseBaseINS_14CwiseNullaryOpINS_8internal18scalar_constant_opIfEENS_6MatrixIfLi7ELi7ELi0ELi7ELi7EEEEEEC1Ev)
                  0002aace    0000000c     ExtendedKalman.obj (.text:_ZN5Eigen9DenseBaseINS_14CwiseNullaryOpINS_8internal18scalar_constant_opIfEENS_6MatrixIfLi7ELi7ELi0ELi7ELi7EEEEEEC2Ev)
                  0002aada    0000000c     ExtendedKalman.obj (.text:_ZN5Eigen9DenseBaseINS_14CwiseNullaryOpINS_8internal18scalar_identity_opIfEENS_6MatrixIfLi7ELi7ELi0ELi7ELi7EEEEEEC1Ev)
                  0002aae6    0000000c     ExtendedKalman.obj (.text:_ZN5Eigen9DenseBaseINS_14CwiseNullaryOpINS_8internal18scalar_identity_opIfEENS_6MatrixIfLi7ELi7ELi0ELi7ELi7EEEEEEC2Ev)
                  0002aaf2    0000000c     ExtendedKalman.obj (.text:_ZN5Eigen9DenseBaseINS_17CoeffBasedProductINS_6MatrixIfLi7ELi7ELi0ELi7ELi7EEERKS3_Li6EEEEC1Ev)
                  0002aafe    0000000c     ExtendedKalman.obj (.text:_ZN5Eigen9DenseBaseINS_17CoeffBasedProductINS_6MatrixIfLi7ELi7ELi0ELi7ELi7EEERKS3_Li6EEEEC2Ev)
                  0002ab0a    0000000c     ExtendedKalman.obj (.text:_ZN5Eigen9DenseBaseINS_17CoeffBasedProductIRKNS_6MatrixIfLi3ELi7ELi0ELi3ELi7EEEKNS_9TransposeIS3_EELi6EEEEC1Ev)
                  0002ab16    0000000c     ExtendedKalman.obj (.text:_ZN5Eigen9DenseBaseINS_17CoeffBasedProductIRKNS_6MatrixIfLi3ELi7ELi0ELi3ELi7EEEKNS_9TransposeIS3_EELi6EEEEC2Ev)
                  0002ab22    0000000c     ExtendedKalman.obj (.text:_ZN5Eigen9DenseBaseINS_17CoeffBasedProductIRKNS_6MatrixIfLi3ELi7ELi0ELi3ELi7EEERKNS2_IfLi7ELi7ELi0ELi7ELi7EEELi6EEEEC1Ev)
                  0002ab2e    0000000c     ExtendedKalman.obj (.text:_ZN5Eigen9DenseBaseINS_17CoeffBasedProductIRKNS_6MatrixIfLi3ELi7ELi0ELi3ELi7EEERKNS2_IfLi7ELi7ELi0ELi7ELi7EEELi6EEEEC2Ev)
                  0002ab3a    0000000c     ExtendedKalman.obj (.text:_ZN5Eigen9DenseBaseINS_17CoeffBasedProductIRKNS_6MatrixIfLi7ELi3ELi0ELi7ELi3EEERKNS2_IfLi3ELi1ELi0ELi3ELi1EEELi6EEEEC1Ev)
                  0002ab46    0000000c     ExtendedKalman.obj (.text:_ZN5Eigen9DenseBaseINS_17CoeffBasedProductIRKNS_6MatrixIfLi7ELi3ELi0ELi7ELi3EEERKNS2_IfLi3ELi1ELi0ELi3ELi1EEELi6EEEEC2Ev)
                  0002ab52    0000000c     ExtendedKalman.obj (.text:_ZN5Eigen9DenseBaseINS_17CoeffBasedProductIRKNS_6MatrixIfLi7ELi3ELi0ELi7ELi3EEERKNS2_IfLi3ELi7ELi0ELi3ELi7EEELi6EEEEC1Ev)
                  0002ab5e    0000000c     ExtendedKalman.obj (.text:_ZN5Eigen9DenseBaseINS_17CoeffBasedProductIRKNS_6MatrixIfLi7ELi3ELi0ELi7ELi3EEERKNS2_IfLi3ELi7ELi0ELi3ELi7EEELi6EEEEC2Ev)
                  0002ab6a    0000000c     ExtendedKalman.obj (.text:_ZN5Eigen9DenseBaseINS_17CoeffBasedProductIRKNS_6MatrixIfLi7ELi3ELi1ELi7ELi3EEENS2_IfLi3ELi3ELi0ELi3ELi3EEELi6EEEEC1Ev)
                  0002ab76    0000000c     ExtendedKalman.obj (.text:_ZN5Eigen9DenseBaseINS_17CoeffBasedProductIRKNS_6MatrixIfLi7ELi3ELi1ELi7ELi3EEENS2_IfLi3ELi3ELi0ELi3ELi3EEELi6EEEEC2Ev)
                  0002ab82    0000000c     ExtendedKalman.obj (.text:_ZN5Eigen9DenseBaseINS_17CoeffBasedProductIRKNS_6MatrixIfLi7ELi7ELi0ELi7ELi7EEEKNS_9TransposeINS2_IfLi3ELi7ELi0ELi3ELi7EEEEELi6EEEEC1Ev)
                  0002ab8e    0000000c     ExtendedKalman.obj (.text:_ZN5Eigen9DenseBaseINS_17CoeffBasedProductIRKNS_6MatrixIfLi7ELi7ELi0ELi7ELi7EEEKNS_9TransposeINS2_IfLi3ELi7ELi0ELi3ELi7EEEEELi6EEEEC2Ev)
                  0002ab9a    0000000c     ExtendedKalman.obj (.text:_ZN5Eigen9DenseBaseINS_17CoeffBasedProductIRKNS_6MatrixIfLi7ELi7ELi0ELi7ELi7EEEKNS_9TransposeIS3_EELi6EEEEC1Ev)
                  0002aba6    0000000c     ExtendedKalman.obj (.text:_ZN5Eigen9DenseBaseINS_17CoeffBasedProductIRKNS_6MatrixIfLi7ELi7ELi0ELi7ELi7EEEKNS_9TransposeIS3_EELi6EEEEC2Ev)
                  0002abb2    0000000c     ExtendedKalman.obj (.text:_ZN5Eigen9DenseBaseINS_17CoeffBasedProductIRKNS_6MatrixIfLi7ELi7ELi0ELi7ELi7EEES5_Li6EEEEC1Ev)
                  0002abbe    0000000c     ExtendedKalman.obj (.text:_ZN5Eigen9DenseBaseINS_17CoeffBasedProductIRKNS_6MatrixIfLi7ELi7ELi0ELi7ELi7EEES5_Li6EEEEC2Ev)
                  0002abca    0000000c     ExtendedKalman.obj (.text:_ZN5Eigen9DenseBaseINS_17SelfCwiseBinaryOpINS_8internal17scalar_product_opIffEENS_6MatrixIfLi7ELi7ELi0ELi7ELi7EEENS_14CwiseNullaryOpINS2_18scalar_constant_opIfEES6_EEEEEC1Ev)
                  0002abd6    0000000c     ExtendedKalman.obj (.text:_ZN5Eigen9DenseBaseINS_17SelfCwiseBinaryOpINS_8internal17scalar_product_opIffEENS_6MatrixIfLi7ELi7ELi0ELi7ELi7EEENS_14CwiseNullaryOpINS2_18scalar_constant_opIfEES6_EEEEEC2Ev)
                  0002abe2    0000000c     ExtendedKalman.obj (.text:_ZN5Eigen9DenseBaseINS_5BlockIKNS_6MatrixIfLi3ELi3ELi0ELi3ELi3EEELi3ELi1ELb1EEEEC1Ev)
                  0002abee    0000000c     ExtendedKalman.obj (.text:_ZN5Eigen9DenseBaseINS_5BlockIKNS_6MatrixIfLi3ELi3ELi0ELi3ELi3EEELi3ELi1ELb1EEEEC2Ev)
                  0002abfa    0000000c     ExtendedKalman.obj (.text:_ZN5Eigen9DenseBaseINS_5BlockINS_6MatrixIfLi3ELi3ELi0ELi3ELi3EEELi1ELi3ELb0EEEEC1Ev)
                  0002ac06    0000000c     ExtendedKalman.obj (.text:_ZN5Eigen9DenseBaseINS_5BlockINS_6MatrixIfLi3ELi3ELi0ELi3ELi3EEELi1ELi3ELb0EEEEC2Ev)
                  0002ac12    0000000c     EigenTest.obj (.text:_ZN5Eigen9DenseBaseINS_6MatrixIdLin1ELin1ELi0ELin1ELin1EEEEC1Ev)
                  0002ac1e    0000000c     EigenTest.obj (.text:_ZN5Eigen9DenseBaseINS_6MatrixIdLin1ELin1ELi0ELin1ELin1EEEEC2Ev)
                  0002ac2a    0000000c     ExtendedKalman.obj (.text:_ZN5Eigen9DenseBaseINS_6MatrixIfLi3ELi1ELi0ELi3ELi1EEEEC1Ev)
                  0002ac36    0000000c     ExtendedKalman.obj (.text:_ZN5Eigen9DenseBaseINS_6MatrixIfLi3ELi1ELi0ELi3ELi1EEEEC2Ev)
                  0002ac42    0000000c     ExtendedKalman.obj (.text:_ZN5Eigen9DenseBaseINS_6MatrixIfLi3ELi3ELi0ELi3ELi3EEEEC1Ev)
                  0002ac4e    0000000c     ExtendedKalman.obj (.text:_ZN5Eigen9DenseBaseINS_6MatrixIfLi3ELi3ELi0ELi3ELi3EEEEC2Ev)
                  0002ac5a    0000000c     ExtendedKalman.obj (.text:_ZN5Eigen9DenseBaseINS_6MatrixIfLi3ELi3ELi1ELi3ELi3EEEEC1Ev)
                  0002ac66    0000000c     ExtendedKalman.obj (.text:_ZN5Eigen9DenseBaseINS_6MatrixIfLi3ELi3ELi1ELi3ELi3EEEEC2Ev)
                  0002ac72    0000000c     ExtendedKalman.obj (.text:_ZN5Eigen9DenseBaseINS_6MatrixIfLi3ELi7ELi0ELi3ELi7EEEEC1Ev)
                  0002ac7e    0000000c     ExtendedKalman.obj (.text:_ZN5Eigen9DenseBaseINS_6MatrixIfLi3ELi7ELi0ELi3ELi7EEEEC2Ev)
                  0002ac8a    0000000c     ExtendedKalman.obj (.text:_ZN5Eigen9DenseBaseINS_6MatrixIfLi7ELi1ELi0ELi7ELi1EEEEC1Ev)
                  0002ac96    0000000c     ExtendedKalman.obj (.text:_ZN5Eigen9DenseBaseINS_6MatrixIfLi7ELi1ELi0ELi7ELi1EEEEC2Ev)
                  0002aca2    0000000c     ExtendedKalman.obj (.text:_ZN5Eigen9DenseBaseINS_6MatrixIfLi7ELi3ELi0ELi7ELi3EEEEC1Ev)
                  0002acae    0000000c     ExtendedKalman.obj (.text:_ZN5Eigen9DenseBaseINS_6MatrixIfLi7ELi3ELi0ELi7ELi3EEEEC2Ev)
                  0002acba    0000000c     ExtendedKalman.obj (.text:_ZN5Eigen9DenseBaseINS_6MatrixIfLi7ELi3ELi1ELi7ELi3EEEEC1Ev)
                  0002acc6    0000000c     ExtendedKalman.obj (.text:_ZN5Eigen9DenseBaseINS_6MatrixIfLi7ELi3ELi1ELi7ELi3EEEEC2Ev)
                  0002acd2    0000000c     ExtendedKalman.obj (.text:_ZN5Eigen9DenseBaseINS_6MatrixIfLi7ELi7ELi0ELi7ELi7EEEEC1Ev)
                  0002acde    0000000c     ExtendedKalman.obj (.text:_ZN5Eigen9DenseBaseINS_6MatrixIfLi7ELi7ELi0ELi7ELi7EEEEC2Ev)
                  0002acea    0000000c     ExtendedKalman.obj (.text:_ZN5Eigen9DenseBaseINS_6MatrixIfLi7ELi7ELi1ELi7ELi7EEEEC1Ev)
                  0002acf6    0000000c     ExtendedKalman.obj (.text:_ZN5Eigen9DenseBaseINS_6MatrixIfLi7ELi7ELi1ELi7ELi7EEEEC2Ev)
                  0002ad02    0000000c     ExtendedKalman.obj (.text:_ZN5Eigen9DenseBaseINS_9TransposeIKNS_12CwiseUnaryOpINS_8internal18scalar_multiple_opIfEEKNS_6MatrixIfLi3ELi1ELi0ELi3ELi1EEEEEEEEC1Ev)
                  0002ad0e    0000000c     ExtendedKalman.obj (.text:_ZN5Eigen9DenseBaseINS_9TransposeIKNS_12CwiseUnaryOpINS_8internal18scalar_multiple_opIfEEKNS_6MatrixIfLi3ELi1ELi0ELi3ELi1EEEEEEEEC2Ev)
                  0002ad1a    0000000c     ExtendedKalman.obj (.text:_ZN5Eigen9DenseBaseINS_9TransposeINS_6MatrixIfLi3ELi7ELi0ELi3ELi7EEEEEEC1Ev)
                  0002ad26    0000000c     ExtendedKalman.obj (.text:_ZN5Eigen9DenseBaseINS_9TransposeINS_6MatrixIfLi3ELi7ELi0ELi3ELi7EEEEEEC2Ev)
                  0002ad32    0000000c     ExtendedKalman.obj (.text:_ZN5Eigen9DenseBaseINS_9TransposeINS_6MatrixIfLi7ELi7ELi0ELi7ELi7EEEEEEC1Ev)
                  0002ad3e    0000000c     ExtendedKalman.obj (.text:_ZN5Eigen9DenseBaseINS_9TransposeINS_6MatrixIfLi7ELi7ELi0ELi7ELi7EEEEEEC2Ev)
                  0002ad4a    0000000c     ExtendedKalman.obj (.text:_ZN5Eigen9EigenBaseINS_17SelfCwiseBinaryOpINS_8internal17scalar_product_opIffEENS_6MatrixIfLi7ELi7ELi0ELi7ELi7EEENS_14CwiseNullaryOpINS2_18scalar_constant_opIfEES6_EEEEE7derivedEv)
                  0002ad56    0000000c     ExtendedKalman.obj (.text:_ZN5Eigen9EigenBaseINS_5BlockINS_6MatrixIfLi3ELi3ELi0ELi3ELi3EEELi1ELi3ELb0EEEE7derivedEv)
                  0002ad62    0000000c     EigenTest.obj (.text:_ZN5Eigen9EigenBaseINS_6MatrixIdLin1ELin1ELi0ELin1ELin1EEEE7derivedEv)
                  0002ad6e    0000000c     ExtendedKalman.obj (.text:_ZN5Eigen9EigenBaseINS_6MatrixIfLi3ELi1ELi0ELi3ELi1EEEE7derivedEv)
                  0002ad7a    0000000c     ExtendedKalman.obj (.text:_ZN5Eigen9EigenBaseINS_6MatrixIfLi3ELi3ELi0ELi3ELi3EEEE7derivedEv)
                  0002ad86    0000000c     ExtendedKalman.obj (.text:_ZN5Eigen9EigenBaseINS_6MatrixIfLi3ELi3ELi1ELi3ELi3EEEE7derivedEv)
                  0002ad92    0000000c     ExtendedKalman.obj (.text:_ZN5Eigen9EigenBaseINS_6MatrixIfLi3ELi7ELi0ELi3ELi7EEEE7derivedEv)
                  0002ad9e    0000000c     ExtendedKalman.obj (.text:_ZN5Eigen9EigenBaseINS_6MatrixIfLi7ELi1ELi0ELi7ELi1EEEE7derivedEv)
                  0002adaa    0000000c     ExtendedKalman.obj (.text:_ZN5Eigen9EigenBaseINS_6MatrixIfLi7ELi3ELi0ELi7ELi3EEEE7derivedEv)
                  0002adb6    0000000c     ExtendedKalman.obj (.text:_ZN5Eigen9EigenBaseINS_6MatrixIfLi7ELi3ELi1ELi7ELi3EEEE7derivedEv)
                  0002adc2    0000000c     ExtendedKalman.obj (.text:_ZN5Eigen9EigenBaseINS_6MatrixIfLi7ELi7ELi0ELi7ELi7EEEE7derivedEv)
                  0002adce    0000000c     ExtendedKalman.obj (.text:_ZN5Eigen9EigenBaseINS_6MatrixIfLi7ELi7ELi1ELi7ELi7EEEE7derivedEv)
                  0002adda    0000000c     ExtendedKalman.obj (.text:_ZNK5Eigen12DenseStorageIfLi21ELi3ELi7ELi0EE4dataEv)
                  0002ade6    0000000c     ExtendedKalman.obj (.text:_ZNK5Eigen12DenseStorageIfLi21ELi7ELi3ELi0EE4dataEv)
                  0002adf2    0000000c     ExtendedKalman.obj (.text:_ZNK5Eigen12DenseStorageIfLi21ELi7ELi3ELi1EE4dataEv)
                  0002adfe    0000000c     ExtendedKalman.obj (.text:_ZNK5Eigen12DenseStorageIfLi3ELi3ELi1ELi0EE4dataEv)
                  0002ae0a    0000000c     ExtendedKalman.obj (.text:_ZNK5Eigen12DenseStorageIfLi49ELi7ELi7ELi0EE4dataEv)
                  0002ae16    0000000c     ExtendedKalman.obj (.text:_ZNK5Eigen12DenseStorageIfLi49ELi7ELi7ELi1EE4dataEv)
                  0002ae22    0000000c     ExtendedKalman.obj (.text:_ZNK5Eigen12DenseStorageIfLi7ELi7ELi1ELi0EE4dataEv)
                  0002ae2e    0000000c     ExtendedKalman.obj (.text:_ZNK5Eigen12DenseStorageIfLi9ELi3ELi3ELi0EE4dataEv)
                  0002ae3a    0000000c     ExtendedKalman.obj (.text:_ZNK5Eigen12DenseStorageIfLi9ELi3ELi3ELi1EE4dataEv)
                  0002ae46    0000000c     ExtendedKalman.obj (.text:_ZNK5Eigen13CwiseBinaryOpINS_8internal13scalar_sum_opIfEEKNS_17CoeffBasedProductIRKNS_6MatrixIfLi3ELi7ELi0ELi3ELi7EEEKNS_9TransposeIS6_EELi6EEEKNS5_IfLi3ELi3ELi0ELi3ELi3EEEE3lhsEv)
                  0002ae52    0000000c     ExtendedKalman.obj (.text:_ZNK5Eigen13CwiseBinaryOpINS_8internal13scalar_sum_opIfEEKNS_17CoeffBasedProductIRKNS_6MatrixIfLi7ELi7ELi0ELi7ELi7EEEKNS_9TransposeIS6_EELi6EEES7_E3lhsEv)
                  0002ae5e    0000000c     ExtendedKalman.obj (.text:_ZNK5Eigen13ReturnByValueINS_8internal12inverse_implINS_6MatrixIfLi3ELi3ELi0ELi3ELi3EEEEEE4colsEv)
                  0002ae6a    0000000c     ExtendedKalman.obj (.text:_ZNK5Eigen13ReturnByValueINS_8internal12inverse_implINS_6MatrixIfLi3ELi3ELi0ELi3ELi3EEEEEE4rowsEv)
                  0002ae76    0000000c     ExtendedKalman.obj (.text:_ZNK5Eigen15DenseCoeffsBaseINS_5BlockIKNS_6MatrixIfLi3ELi3ELi0ELi3ELi3EEELi3ELi1ELb1EEELi2EE9colStrideEv)
                  0002ae82    0000000c     ExtendedKalman.obj (.text:_ZNK5Eigen15DenseCoeffsBaseINS_5BlockIKNS_6MatrixIfLi3ELi3ELi0ELi3ELi3EEELi3ELi1ELb1EEELi2EE9rowStrideEv)
                  0002ae8e    0000000c     EigenTest.obj (.text:_ZNK5Eigen15PlainObjectBaseINS_6MatrixIdLin1ELin1ELi0ELin1ELin1EEEE4colsEv)
                  0002ae9a    0000000c     EigenTest.obj (.text:_ZNK5Eigen15PlainObjectBaseINS_6MatrixIdLin1ELin1ELi0ELin1ELin1EEEE4rowsEv)
                  0002aea6    0000000c     ExtendedKalman.obj (.text:_ZNK5Eigen17CoeffBasedProductINS_6MatrixIfLi7ELi7ELi0ELi7ELi7EEERKS2_Li6EE4rowsEv)
                  0002aeb2    0000000c     ExtendedKalman.obj (.text:_ZNK5Eigen6MatrixIfLi3ELi3ELi0ELi3ELi3EE11innerStrideEv)
                  0002aebe    0000000c     ExtendedKalman.obj (.text:_ZNK5Eigen6MatrixIfLi3ELi3ELi0ELi3ELi3EE11outerStrideEv)
                  0002aeca    0000000c     EigenTest.obj (.text:_ZNK5Eigen9DenseBaseINS_6MatrixIdLin1ELin1ELi0ELin1ELin1EEEE4evalEv)
                  0002aed6    0000000c     ExtendedKalman.obj (.text:_ZNK5Eigen9DenseBaseINS_6MatrixIfLi3ELi3ELi0ELi3ELi3EEEE9innerSizeEv)
                  0002aee2    0000000c     ExtendedKalman.obj (.text:_ZNK5Eigen9DenseBaseINS_6MatrixIfLi3ELi3ELi1ELi3ELi3EEEE9outerSizeEv)
                  0002aeee    0000000c     ExtendedKalman.obj (.text:_ZNK5Eigen9DenseBaseINS_6MatrixIfLi3ELi7ELi0ELi3ELi7EEEE9outerSizeEv)
                  0002aefa    0000000c     ExtendedKalman.obj (.text:_ZNK5Eigen9DenseBaseINS_6MatrixIfLi7ELi3ELi0ELi7ELi3EEEE9outerSizeEv)
                  0002af06    0000000c     ExtendedKalman.obj (.text:_ZNK5Eigen9DenseBaseINS_6MatrixIfLi7ELi3ELi1ELi7ELi3EEEE9outerSizeEv)
                  0002af12    0000000c     ExtendedKalman.obj (.text:_ZNK5Eigen9DenseBaseINS_6MatrixIfLi7ELi7ELi0ELi7ELi7EEEE9innerSizeEv)
                  0002af1e    0000000c     ExtendedKalman.obj (.text:_ZNK5Eigen9DenseBaseINS_6MatrixIfLi7ELi7ELi0ELi7ELi7EEEE9outerSizeEv)
                  0002af2a    0000000c     ExtendedKalman.obj (.text:_ZNK5Eigen9DenseBaseINS_6MatrixIfLi7ELi7ELi1ELi7ELi7EEEE9innerSizeEv)
                  0002af36    0000000c     ExtendedKalman.obj (.text:_ZNK5Eigen9DenseBaseINS_6MatrixIfLi7ELi7ELi1ELi7ELi7EEEE9outerSizeEv)
                  0002af42    0000000c     ExtendedKalman.obj (.text:_ZNK5Eigen9EigenBaseINS_12CwiseUnaryOpINS_8internal18scalar_multiple_opIfEEKNS_6MatrixIfLi3ELi1ELi0ELi3ELi1EEEEEE7derivedEv)
                  0002af4e    0000000c     ExtendedKalman.obj (.text:_ZNK5Eigen9EigenBaseINS_13CwiseBinaryOpINS_8internal13scalar_sum_opIfEEKNS_17CoeffBasedProductIRKNS_6MatrixIfLi3ELi7ELi0ELi3ELi7EEEKNS_9TransposeIS7_EELi6EEEKNS6_IfLi3ELi3ELi0ELi3ELi3EEEEEE7derivedEv)
                  0002af5a    0000000c     ExtendedKalman.obj (.text:_ZNK5Eigen9EigenBaseINS_13CwiseBinaryOpINS_8internal13scalar_sum_opIfEEKNS_17CoeffBasedProductIRKNS_6MatrixIfLi7ELi7ELi0ELi7ELi7EEEKNS_9TransposeIS7_EELi6EEES8_EEE7derivedEv)
                  0002af66    0000000c     ExtendedKalman.obj (.text:_ZNK5Eigen9EigenBaseINS_13CwiseBinaryOpINS_8internal13scalar_sum_opIfEEKNS_6MatrixIfLi7ELi1ELi0ELi7ELi1EEEKNS_17CoeffBasedProductIRKNS5_IfLi7ELi3ELi0ELi7ELi3EEERKNS5_IfLi3ELi1ELi0ELi3ELi1EEELi6EEEEEE7derivedEv)
                  0002af72    0000000c     ExtendedKalman.obj (.text:_ZNK5Eigen9EigenBaseINS_13CwiseBinaryOpINS_8internal17scalar_product_opIffEEKNS_6MatrixIfLi3ELi1ELi0ELi3ELi1EEEKNS_5BlockIKNS5_IfLi3ELi3ELi0ELi3ELi3EEELi3ELi1ELb1EEEEEE7derivedEv)
                  0002af7e    0000000c     ExtendedKalman.obj (.text:_ZNK5Eigen9EigenBaseINS_13CwiseBinaryOpINS_8internal20scalar_difference_opIfEEKNS_6MatrixIfLi3ELi1ELi0ELi3ELi1EEES7_EEE7derivedEv)
                  0002af8a    0000000c     ExtendedKalman.obj (.text:_ZNK5Eigen9EigenBaseINS_13CwiseBinaryOpINS_8internal20scalar_difference_opIfEEKNS_6MatrixIfLi7ELi7ELi0ELi7ELi7EEEKNS_17CoeffBasedProductIRKNS5_IfLi7ELi3ELi0ELi7ELi3EEERKNS5_IfLi3ELi7ELi0ELi3ELi7EEELi6EEEEEE7derivedEv)
                  0002af96    0000000c     ExtendedKalman.obj (.text:_ZNK5Eigen9EigenBaseINS_13ReturnByValueINS_8internal12inverse_implINS_6MatrixIfLi3ELi3ELi0ELi3ELi3EEEEEEEE7derivedEv)
                  0002afa2    0000000c     ExtendedKalman.obj (.text:_ZNK5Eigen9EigenBaseINS_14CwiseNullaryOpINS_8internal18scalar_constant_opIfEENS_6MatrixIfLi3ELi1ELi0ELi3ELi1EEEEEE7derivedEv)
                  0002afae    0000000c     ExtendedKalman.obj (.text:_ZNK5Eigen9EigenBaseINS_14CwiseNullaryOpINS_8internal18scalar_constant_opIfEENS_6MatrixIfLi3ELi3ELi0ELi3ELi3EEEEEE7derivedEv)
                  0002afba    0000000c     ExtendedKalman.obj (.text:_ZNK5Eigen9EigenBaseINS_14CwiseNullaryOpINS_8internal18scalar_constant_opIfEENS_6MatrixIfLi3ELi7ELi0ELi3ELi7EEEEEE7derivedEv)
                  0002afc6    0000000c     ExtendedKalman.obj (.text:_ZNK5Eigen9EigenBaseINS_14CwiseNullaryOpINS_8internal18scalar_constant_opIfEENS_6MatrixIfLi7ELi1ELi0ELi7ELi1EEEEEE7derivedEv)
                  0002afd2    0000000c     ExtendedKalman.obj (.text:_ZNK5Eigen9EigenBaseINS_14CwiseNullaryOpINS_8internal18scalar_constant_opIfEENS_6MatrixIfLi7ELi3ELi0ELi7ELi3EEEEEE7derivedEv)
                  0002afde    0000000c     ExtendedKalman.obj (.text:_ZNK5Eigen9EigenBaseINS_14CwiseNullaryOpINS_8internal18scalar_constant_opIfEENS_6MatrixIfLi7ELi7ELi0ELi7ELi7EEEEEE18const_cast_derivedEv)
                  0002afea    0000000c     ExtendedKalman.obj (.text:_ZNK5Eigen9EigenBaseINS_14CwiseNullaryOpINS_8internal18scalar_constant_opIfEENS_6MatrixIfLi7ELi7ELi0ELi7ELi7EEEEEE7derivedEv)
                  0002aff6    0000000c     ExtendedKalman.obj (.text:_ZNK5Eigen9EigenBaseINS_14CwiseNullaryOpINS_8internal18scalar_identity_opIfEENS_6MatrixIfLi7ELi7ELi0ELi7ELi7EEEEEE7derivedEv)
                  0002b002    0000000c     ExtendedKalman.obj (.text:_ZNK5Eigen9EigenBaseINS_17CoeffBasedProductINS_6MatrixIfLi7ELi7ELi0ELi7ELi7EEERKS3_Li6EEEE7derivedEv)
                  0002b00e    0000000c     ExtendedKalman.obj (.text:_ZNK5Eigen9EigenBaseINS_17CoeffBasedProductIRKNS_6MatrixIfLi3ELi7ELi0ELi3ELi7EEEKNS_9TransposeIS3_EELi6EEEE7derivedEv)
                  0002b01a    0000000c     ExtendedKalman.obj (.text:_ZNK5Eigen9EigenBaseINS_17CoeffBasedProductIRKNS_6MatrixIfLi3ELi7ELi0ELi3ELi7EEERKNS2_IfLi7ELi7ELi0ELi7ELi7EEELi6EEEE7derivedEv)
                  0002b026    0000000c     ExtendedKalman.obj (.text:_ZNK5Eigen9EigenBaseINS_17CoeffBasedProductIRKNS_6MatrixIfLi7ELi3ELi0ELi7ELi3EEERKNS2_IfLi3ELi1ELi0ELi3ELi1EEELi6EEEE7derivedEv)
                  0002b032    0000000c     ExtendedKalman.obj (.text:_ZNK5Eigen9EigenBaseINS_17CoeffBasedProductIRKNS_6MatrixIfLi7ELi3ELi0ELi7ELi3EEERKNS2_IfLi3ELi7ELi0ELi3ELi7EEELi6EEEE7derivedEv)
                  0002b03e    0000000c     ExtendedKalman.obj (.text:_ZNK5Eigen9EigenBaseINS_17CoeffBasedProductIRKNS_6MatrixIfLi7ELi3ELi1ELi7ELi3EEENS2_IfLi3ELi3ELi0ELi3ELi3EEELi6EEEE7derivedEv)
                  0002b04a    0000000c     ExtendedKalman.obj (.text:_ZNK5Eigen9EigenBaseINS_17CoeffBasedProductIRKNS_6MatrixIfLi7ELi7ELi0ELi7ELi7EEEKNS_9TransposeINS2_IfLi3ELi7ELi0ELi3ELi7EEEEELi6EEEE7derivedEv)
                  0002b056    0000000c     ExtendedKalman.obj (.text:_ZNK5Eigen9EigenBaseINS_17CoeffBasedProductIRKNS_6MatrixIfLi7ELi7ELi0ELi7ELi7EEEKNS_9TransposeIS3_EELi6EEEE7derivedEv)
                  0002b062    0000000c     ExtendedKalman.obj (.text:_ZNK5Eigen9EigenBaseINS_17CoeffBasedProductIRKNS_6MatrixIfLi7ELi7ELi0ELi7ELi7EEES5_Li6EEEE7derivedEv)
                  0002b06e    0000000c     ExtendedKalman.obj (.text:_ZNK5Eigen9EigenBaseINS_5BlockIKNS_6MatrixIfLi3ELi3ELi0ELi3ELi3EEELi3ELi1ELb1EEEE7derivedEv)
                  0002b07a    0000000c     ExtendedKalman.obj (.text:_ZNK5Eigen9EigenBaseINS_5BlockINS_6MatrixIfLi3ELi3ELi0ELi3ELi3EEELi1ELi3ELb0EEEE7derivedEv)
                  0002b086    0000000c     EigenTest.obj (.text:_ZNK5Eigen9EigenBaseINS_6MatrixIdLin1ELin1ELi0ELin1ELin1EEEE7derivedEv)
                  0002b092    0000000c     ExtendedKalman.obj (.text:_ZNK5Eigen9EigenBaseINS_6MatrixIfLi3ELi1ELi0ELi3ELi1EEEE7derivedEv)
                  0002b09e    0000000c     ExtendedKalman.obj (.text:_ZNK5Eigen9EigenBaseINS_6MatrixIfLi3ELi3ELi0ELi3ELi3EEEE7derivedEv)
                  0002b0aa    0000000c     ExtendedKalman.obj (.text:_ZNK5Eigen9EigenBaseINS_6MatrixIfLi3ELi3ELi1ELi3ELi3EEEE7derivedEv)
                  0002b0b6    0000000c     ExtendedKalman.obj (.text:_ZNK5Eigen9EigenBaseINS_6MatrixIfLi3ELi7ELi0ELi3ELi7EEEE7derivedEv)
                  0002b0c2    0000000c     ExtendedKalman.obj (.text:_ZNK5Eigen9EigenBaseINS_6MatrixIfLi7ELi1ELi0ELi7ELi1EEEE7derivedEv)
                  0002b0ce    0000000c     ExtendedKalman.obj (.text:_ZNK5Eigen9EigenBaseINS_6MatrixIfLi7ELi3ELi0ELi7ELi3EEEE7derivedEv)
                  0002b0da    0000000c     ExtendedKalman.obj (.text:_ZNK5Eigen9EigenBaseINS_6MatrixIfLi7ELi3ELi1ELi7ELi3EEEE7derivedEv)
                  0002b0e6    0000000c     ExtendedKalman.obj (.text:_ZNK5Eigen9EigenBaseINS_6MatrixIfLi7ELi7ELi0ELi7ELi7EEEE7derivedEv)
                  0002b0f2    0000000c     ExtendedKalman.obj (.text:_ZNK5Eigen9EigenBaseINS_6MatrixIfLi7ELi7ELi1ELi7ELi7EEEE7derivedEv)
                  0002b0fe    0000000c     ExtendedKalman.obj (.text:_ZNK5Eigen9EigenBaseINS_9TransposeIKNS_12CwiseUnaryOpINS_8internal18scalar_multiple_opIfEEKNS_6MatrixIfLi3ELi1ELi0ELi3ELi1EEEEEEEE7derivedEv)
                  0002b10a    0000000c     ExtendedKalman.obj (.text:_ZNK5Eigen9EigenBaseINS_9TransposeINS_6MatrixIfLi3ELi7ELi0ELi3ELi7EEEEEE7derivedEv)
                  0002b116    0000000c     ExtendedKalman.obj (.text:_ZNK5Eigen9EigenBaseINS_9TransposeINS_6MatrixIfLi7ELi7ELi0ELi7ELi7EEEEEE7derivedEv)
                  0002b122    0000000c     ExtendedKalman.obj (.text:_ZNK5Eigen9TransposeIKNS_12CwiseUnaryOpINS_8internal18scalar_multiple_opIfEEKNS_6MatrixIfLi3ELi1ELi0ELi3ELi1EEEEEE16nestedExpressionEv)
                  0002b12e    0000000c     PID.obj (.text:_ZNKSs5c_strEv)
                  0002b13a    0000000c     rtsv7M4_T_le_v4SPD16_eabi.lib : iostream.obj (.text:_ZNKSt7codecvtIcciE9do_lengthERKiPKcS4_j)
                  0002b146    0000000c     PID.obj (.text:_ZNSaIcEC1Ev)
                  0002b152    0000000c     PID.obj (.text:_ZNSo12_Sentry_baseD2Ev)
                  0002b15e    0000000c     PID.obj (.text:_ZNSt10ctype_baseD2Ev)
                  0002b16a    0000000c     PID.obj (.text:_ZNSt11char_traitsIcE6lengthEPKc)
                  0002b176    00000002     --HOLE-- [fill = 0]
                  0002b178    0000000c     EigenTest.obj (.text:_ZNSt14numeric_limitsIfE7epsilonEv)
                  0002b184    0000000c     EigenTest.obj (.text:_ZNSt15basic_streambufIcSt11char_traitsIcEE4syncEv)
                  0002b190    0000000c     EigenTest.obj (.text:_ZNSt15basic_streambufIcSt11char_traitsIcEE5imbueERKSt6locale)
                  0002b19c    0000000c     EigenTest.obj (.text:_ZNSt15basic_streambufIcSt11char_traitsIcEE8overflowEi)
                  0002b1a8    0000000c     EigenTest.obj (.text:_ZNSt15basic_streambufIcSt11char_traitsIcEE9pbackfailEi)
                  0002b1b4    0000000c     EigenTest.obj (.text:_ZNSt15basic_streambufIcSt11char_traitsIcEE9showmanycEv)
                  0002b1c0    0000000c     EigenTest.obj (.text:_ZNSt15basic_streambufIcSt11char_traitsIcEEC2Ev)
                  0002b1cc    0000000c     EigenTest.obj (.text:_ZNSt15basic_streambufIcSt11char_traitsIcEED2Ev)
                  0002b1d8    0000000c     PID.obj (.text:_ZNSt19ostreambuf_iteratorIcSt11char_traitsIcEEdeEv)
                  0002b1e4    0000000c     PID.obj (.text:_ZNSt19ostreambuf_iteratorIcSt11char_traitsIcEEppEv)
                  0002b1f0    0000000c     PID.obj (.text:_ZNSt6locale5facetD1Ev)
                  0002b1fc    0000000c     PID.obj (.text:_ZNSt6locale5facetD2Ev)
                  0002b208    0000000c     PID.obj (.text:_ZNSt7_LockitD1Ev)
                  0002b214    0000000c     EigenTest.obj (.text:_ZNSt8ios_baseC2Ev)
                  0002b220    0000000c     EigenTest.obj (.text:_ZNSt9basic_iosIcSt11char_traitsIcEEC2Ev)
                  0002b22c    0000000c     EigenTest.obj (.text:_ZNSt9basic_iosIcSt11char_traitsIcEED2Ev)
                  0002b238    0000000c     tm4c123ah6pm_startup_ccs.obj (.text)
                  0002b244    0000000a     ExtendedKalman.obj (.text:_ZNK5Eigen14CwiseNullaryOpINS_8internal18scalar_constant_opIfEENS_6MatrixIfLi3ELi1ELi0ELi3ELi1EEEE4colsEv)
                  0002b24e    0000000a     ExtendedKalman.obj (.text:_ZNK5Eigen14CwiseNullaryOpINS_8internal18scalar_constant_opIfEENS_6MatrixIfLi3ELi1ELi0ELi3ELi1EEEE4rowsEv)
                  0002b258    0000000a     ExtendedKalman.obj (.text:_ZNK5Eigen14CwiseNullaryOpINS_8internal18scalar_constant_opIfEENS_6MatrixIfLi3ELi3ELi0ELi3ELi3EEEE4colsEv)
                  0002b262    0000000a     ExtendedKalman.obj (.text:_ZNK5Eigen14CwiseNullaryOpINS_8internal18scalar_constant_opIfEENS_6MatrixIfLi3ELi3ELi0ELi3ELi3EEEE4rowsEv)
                  0002b26c    0000000a     ExtendedKalman.obj (.text:_ZNK5Eigen14CwiseNullaryOpINS_8internal18scalar_constant_opIfEENS_6MatrixIfLi3ELi7ELi0ELi3ELi7EEEE4colsEv)
                  0002b276    0000000a     ExtendedKalman.obj (.text:_ZNK5Eigen14CwiseNullaryOpINS_8internal18scalar_constant_opIfEENS_6MatrixIfLi3ELi7ELi0ELi3ELi7EEEE4rowsEv)
                  0002b280    0000000a     ExtendedKalman.obj (.text:_ZNK5Eigen14CwiseNullaryOpINS_8internal18scalar_constant_opIfEENS_6MatrixIfLi7ELi1ELi0ELi7ELi1EEEE4colsEv)
                  0002b28a    0000000a     ExtendedKalman.obj (.text:_ZNK5Eigen14CwiseNullaryOpINS_8internal18scalar_constant_opIfEENS_6MatrixIfLi7ELi1ELi0ELi7ELi1EEEE4rowsEv)
                  0002b294    0000000a     ExtendedKalman.obj (.text:_ZNK5Eigen14CwiseNullaryOpINS_8internal18scalar_constant_opIfEENS_6MatrixIfLi7ELi3ELi0ELi7ELi3EEEE4colsEv)
                  0002b29e    0000000a     ExtendedKalman.obj (.text:_ZNK5Eigen14CwiseNullaryOpINS_8internal18scalar_constant_opIfEENS_6MatrixIfLi7ELi3ELi0ELi7ELi3EEEE4rowsEv)
                  0002b2a8    0000000a     ExtendedKalman.obj (.text:_ZNK5Eigen14CwiseNullaryOpINS_8internal18scalar_constant_opIfEENS_6MatrixIfLi7ELi7ELi0ELi7ELi7EEEE4colsEv)
                  0002b2b2    0000000a     ExtendedKalman.obj (.text:_ZNK5Eigen14CwiseNullaryOpINS_8internal18scalar_constant_opIfEENS_6MatrixIfLi7ELi7ELi0ELi7ELi7EEEE4rowsEv)
                  0002b2bc    0000000a     ExtendedKalman.obj (.text:_ZNK5Eigen14CwiseNullaryOpINS_8internal18scalar_identity_opIfEENS_6MatrixIfLi7ELi7ELi0ELi7ELi7EEEE4colsEv)
                  0002b2c6    0000000a     ExtendedKalman.obj (.text:_ZNK5Eigen14CwiseNullaryOpINS_8internal18scalar_identity_opIfEENS_6MatrixIfLi7ELi7ELi0ELi7ELi7EEEE4rowsEv)
                  0002b2d0    0000000a     ExtendedKalman.obj (.text:_ZNK5Eigen15PlainObjectBaseINS_6MatrixIfLi3ELi1ELi0ELi3ELi1EEEE4colsEv)
                  0002b2da    0000000a     ExtendedKalman.obj (.text:_ZNK5Eigen15PlainObjectBaseINS_6MatrixIfLi3ELi1ELi0ELi3ELi1EEEE4rowsEv)
                  0002b2e4    0000000a     ExtendedKalman.obj (.text:_ZNK5Eigen15PlainObjectBaseINS_6MatrixIfLi3ELi3ELi0ELi3ELi3EEEE4colsEv)
                  0002b2ee    0000000a     ExtendedKalman.obj (.text:_ZNK5Eigen15PlainObjectBaseINS_6MatrixIfLi3ELi3ELi0ELi3ELi3EEEE4rowsEv)
                  0002b2f8    0000000a     ExtendedKalman.obj (.text:_ZNK5Eigen15PlainObjectBaseINS_6MatrixIfLi3ELi3ELi1ELi3ELi3EEEE4colsEv)
                  0002b302    0000000a     ExtendedKalman.obj (.text:_ZNK5Eigen15PlainObjectBaseINS_6MatrixIfLi3ELi3ELi1ELi3ELi3EEEE4rowsEv)
                  0002b30c    0000000a     ExtendedKalman.obj (.text:_ZNK5Eigen15PlainObjectBaseINS_6MatrixIfLi3ELi7ELi0ELi3ELi7EEEE4colsEv)
                  0002b316    0000000a     ExtendedKalman.obj (.text:_ZNK5Eigen15PlainObjectBaseINS_6MatrixIfLi3ELi7ELi0ELi3ELi7EEEE4rowsEv)
                  0002b320    0000000a     ExtendedKalman.obj (.text:_ZNK5Eigen15PlainObjectBaseINS_6MatrixIfLi7ELi1ELi0ELi7ELi1EEEE4colsEv)
                  0002b32a    0000000a     ExtendedKalman.obj (.text:_ZNK5Eigen15PlainObjectBaseINS_6MatrixIfLi7ELi1ELi0ELi7ELi1EEEE4rowsEv)
                  0002b334    0000000a     ExtendedKalman.obj (.text:_ZNK5Eigen15PlainObjectBaseINS_6MatrixIfLi7ELi3ELi0ELi7ELi3EEEE4colsEv)
                  0002b33e    0000000a     ExtendedKalman.obj (.text:_ZNK5Eigen15PlainObjectBaseINS_6MatrixIfLi7ELi3ELi0ELi7ELi3EEEE4rowsEv)
                  0002b348    0000000a     ExtendedKalman.obj (.text:_ZNK5Eigen15PlainObjectBaseINS_6MatrixIfLi7ELi3ELi1ELi7ELi3EEEE4rowsEv)
                  0002b352    0000000a     ExtendedKalman.obj (.text:_ZNK5Eigen15PlainObjectBaseINS_6MatrixIfLi7ELi7ELi0ELi7ELi7EEEE4colsEv)
                  0002b35c    0000000a     ExtendedKalman.obj (.text:_ZNK5Eigen15PlainObjectBaseINS_6MatrixIfLi7ELi7ELi0ELi7ELi7EEEE4rowsEv)
                  0002b366    0000000a     ExtendedKalman.obj (.text:_ZNK5Eigen15PlainObjectBaseINS_6MatrixIfLi7ELi7ELi1ELi7ELi7EEEE4colsEv)
                  0002b370    0000000a     ExtendedKalman.obj (.text:_ZNK5Eigen15PlainObjectBaseINS_6MatrixIfLi7ELi7ELi1ELi7ELi7EEEE4rowsEv)
                  0002b37a    0000000a     ExtendedKalman.obj (.text:_ZNK5Eigen7MapBaseINS_5BlockIKNS_6MatrixIfLi3ELi3ELi0ELi3ELi3EEELi3ELi1ELb1EEELi0EE11checkSanityEv)
                  0002b384    0000000a     ExtendedKalman.obj (.text:_ZNK5Eigen7MapBaseINS_5BlockINS_6MatrixIfLi3ELi3ELi0ELi3ELi3EEELi1ELi3ELb0EEELi0EE11checkSanityEv)
                  0002b38e    0000000a     rtsv7M4_T_le_v4SPD16_eabi.lib : wiostrea.obj (.text:_ZNKSt5ctypeIwE2isEsw)
                  0002b398    0000000a                                   : wiostrea.obj (.text:_ZNKSt5ctypeIwE5widenEc)
                  0002b3a2    0000000a                                   : wiostrea.obj (.text:_ZNKSt5ctypeIwE6narrowEwc)
                  0002b3ac    0000000a     PID.obj (.text:_ZNKSt8_Locinfo9_GetlconvEv)
                  0002b3b6    0000000a     rtsv7M4_T_le_v4SPD16_eabi.lib : wlocale.obj (.text:_ZNKSt8numpunctIwE13thousands_sepEv)
                  0002b3c0    0000000a                                   : wlocale.obj (.text:_ZNKSt8numpunctIwE8groupingEv)
                  0002b3ca    0000000a                                   : wlocale.obj (.text:_ZNKSt8numpunctIwE9falsenameEv)
                  0002b3d4    0000000a     EigenTest.obj (.text:_ZNSt15basic_streambufIcSt11char_traitsIcEE9underflowEv)
                  0002b3de    0000000a     EigenTest.obj (.text:_ZNSt6_Mutex5_LockEv)
                  0002b3e8    0000000a     EigenTest.obj (.text:_ZNSt6_Mutex7_UnlockEv)
                  0002b3f2    00000008     EigenTest.obj (.text:_ZN5Eigen16GenericNumTraitsIfE7epsilonEv)
                  0002b3fa    00000008     rtsv7M4_T_le_v4SPD16_eabi.lib : iostream.obj (.text:_ZNKSt7codecvtIcciE10do_unshiftERiPcS2_RS2_)
                  0002b402    00000008                                   : iostream.obj (.text:_ZNSt7codecvtIcciED0Ev)
                  0002b40a    00000008                                   : wiostrea.obj (.text:_ZNSt7codecvtIwciED0Ev)
                  0002b412    00000008                                   : xlocale.obj (.text:_ZNSt7collateIcED0Ev)
                  0002b41a    00000008                                   : wlocale.obj (.text:_ZNSt7collateIwED0Ev)
                  0002b422    00000008                                   : locale.obj (.text:_ZNSt7num_getIcSt19istreambuf_iteratorIcSt11char_traitsIcEEED0Ev)
                  0002b42a    00000008                                   : wlocale.obj (.text:_ZNSt7num_getIwSt19istreambuf_iteratorIwSt11char_traitsIwEEED0Ev)
                  0002b432    00000008                                   : wlocale.obj (.text:_ZNSt7num_putIwSt19ostreambuf_iteratorIwSt11char_traitsIwEEED0Ev)
                  0002b43a    00000008                                   : xlocale.obj (.text:_ZNSt8messagesIcED0Ev)
                  0002b442    00000008                                   : wlocale.obj (.text:_ZNSt8messagesIwED0Ev)
                  0002b44a    00000008                                   : xlocale.obj (.text:_ZNSt8time_putIcSt19ostreambuf_iteratorIcSt11char_traitsIcEEED0Ev)
                  0002b452    00000008                                   : wlocale.obj (.text:_ZNSt8time_putIwSt19ostreambuf_iteratorIwSt11char_traitsIwEEED0Ev)
                  0002b45a    00000008                                   : locale.obj (.text:_ZNSt9bad_allocD0Ev)
                  0002b462    00000008                                   : ios.obj (.text:_ZNSt9exceptionD0Ev)
                  0002b46a    00000008                                   : xlocale.obj (.text:_ZNSt9money_getIcSt19istreambuf_iteratorIcSt11char_traitsIcEEED0Ev)
                  0002b472    00000008                                   : wlocale.obj (.text:_ZNSt9money_getIwSt19istreambuf_iteratorIwSt11char_traitsIwEEED0Ev)
                  0002b47a    00000008                                   : xlocale.obj (.text:_ZNSt9money_putIcSt19ostreambuf_iteratorIcSt11char_traitsIcEEED0Ev)
                  0002b482    00000008                                   : wlocale.obj (.text:_ZNSt9money_putIwSt19ostreambuf_iteratorIwSt11char_traitsIwEEED0Ev)
                  0002b48a    00000008                                   : delete.obj (.text)
                  0002b492    00000008                                   : fsetpos.obj (.text)
                  0002b49a    00000006     driverlib.lib : sysctl.obj (.text:SysCtlDelay)
                  0002b4a0    00000006     PID.obj (.text:_ZNSt11char_traitsIcE3eofEv)
                  0002b4a6    00000006     rtsv7M4_T_le_v4SPD16_eabi.lib : wiostrea.obj (.text:_ZNSt15basic_streambufIwSt11char_traitsIwEE8overflowEi)
                  0002b4ac    00000006                                   : wiostrea.obj (.text:_ZNSt15basic_streambufIwSt11char_traitsIwEE9pbackfailEi)
                  0002b4b2    00000006                                   : wiostrea.obj (.text:_ZNSt15basic_streambufIwSt11char_traitsIwEE9underflowEv)
                  0002b4b8    00000006                                   : copy_decompress_rle.obj (.text:decompress:rle24)
                  0002b4be    00000004     ExtendedKalman.obj (.text:_ZN5Eigen12DenseStorageIfLi21ELi3ELi7ELi0EE4colsEv)
                  0002b4c2    00000004     ExtendedKalman.obj (.text:_ZN5Eigen12DenseStorageIfLi21ELi3ELi7ELi0EE4rowsEv)
                  0002b4c6    00000004     ExtendedKalman.obj (.text:_ZN5Eigen12DenseStorageIfLi21ELi7ELi3ELi0EE4colsEv)
                  0002b4ca    00000004     ExtendedKalman.obj (.text:_ZN5Eigen12DenseStorageIfLi21ELi7ELi3ELi0EE4rowsEv)
                  0002b4ce    00000004     ExtendedKalman.obj (.text:_ZN5Eigen12DenseStorageIfLi21ELi7ELi3ELi1EE4colsEv)
                  0002b4d2    00000004     ExtendedKalman.obj (.text:_ZN5Eigen12DenseStorageIfLi21ELi7ELi3ELi1EE4rowsEv)
                  0002b4d6    00000004     ExtendedKalman.obj (.text:_ZN5Eigen12DenseStorageIfLi3ELi3ELi1ELi0EE4colsEv)
                  0002b4da    00000004     ExtendedKalman.obj (.text:_ZN5Eigen12DenseStorageIfLi3ELi3ELi1ELi0EE4rowsEv)
                  0002b4de    00000004     ExtendedKalman.obj (.text:_ZN5Eigen12DenseStorageIfLi49ELi7ELi7ELi0EE4colsEv)
                  0002b4e2    00000004     ExtendedKalman.obj (.text:_ZN5Eigen12DenseStorageIfLi49ELi7ELi7ELi0EE4rowsEv)
                  0002b4e6    00000004     ExtendedKalman.obj (.text:_ZN5Eigen12DenseStorageIfLi49ELi7ELi7ELi1EE4colsEv)
                  0002b4ea    00000004     ExtendedKalman.obj (.text:_ZN5Eigen12DenseStorageIfLi49ELi7ELi7ELi1EE4rowsEv)
                  0002b4ee    00000004     ExtendedKalman.obj (.text:_ZN5Eigen12DenseStorageIfLi7ELi7ELi1ELi0EE4colsEv)
                  0002b4f2    00000004     ExtendedKalman.obj (.text:_ZN5Eigen12DenseStorageIfLi7ELi7ELi1ELi0EE4rowsEv)
                  0002b4f6    00000004     ExtendedKalman.obj (.text:_ZN5Eigen12DenseStorageIfLi9ELi3ELi3ELi0EE4colsEv)
                  0002b4fa    00000004     ExtendedKalman.obj (.text:_ZN5Eigen12DenseStorageIfLi9ELi3ELi3ELi0EE4rowsEv)
                  0002b4fe    00000004     ExtendedKalman.obj (.text:_ZN5Eigen12DenseStorageIfLi9ELi3ELi3ELi1EE4colsEv)
                  0002b502    00000004     ExtendedKalman.obj (.text:_ZN5Eigen12DenseStorageIfLi9ELi3ELi3ELi1EE4rowsEv)
                  0002b506    00000004     ExtendedKalman.obj (.text:_ZN5Eigen8internal19variable_if_dynamicIiLi1EE5valueEv)
                  0002b50a    00000004     ExtendedKalman.obj (.text:_ZN5Eigen8internal19variable_if_dynamicIiLi3EE5valueEv)
                  0002b50e    00000004     ExtendedKalman.obj (.text:_ZN5Eigen8internal19variable_if_dynamicIiLi7EE5valueEv)
                  0002b512    00000004     rtsv7M4_T_le_v4SPD16_eabi.lib : string.obj (.text:_ZNKSt11logic_error8_DoraiseEv)
                  0002b516    00000004                                   : iostream.obj (.text:_ZNKSt12codecvt_base11do_encodingEv)
                  0002b51a    00000004                                   : iostream.obj (.text:_ZNKSt12codecvt_base13do_max_lengthEv)
                  0002b51e    00000004                                   : iostream.obj (.text:_ZNKSt12codecvt_base16do_always_noconvEv)
                  0002b522    00000004                                   : string.obj (.text:_ZNKSt12length_error8_DoraiseEv)
                  0002b526    00000004                                   : string.obj (.text:_ZNKSt12out_of_range8_DoraiseEv)
                  0002b52a    00000004                                   : ios.obj (.text:_ZNKSt13runtime_error8_DoraiseEv)
                  0002b52e    00000004                                   : xlocale.obj (.text:_ZNKSt7_MpunctIcE13do_neg_formatEv)
                  0002b532    00000004                                   : xlocale.obj (.text:_ZNKSt7_MpunctIcE13do_pos_formatEv)
                  0002b536    00000004                                   : xlocale.obj (.text:_ZNKSt7_MpunctIcE14do_frac_digitsEv)
                  0002b53a    00000004                                   : xlocale.obj (.text:_ZNKSt7_MpunctIcE16do_decimal_pointEv)
                  0002b53e    00000004                                   : xlocale.obj (.text:_ZNKSt7_MpunctIcE16do_thousands_sepEv)
                  0002b542    00000004                                   : wlocale.obj (.text:_ZNKSt7_MpunctIwE13do_neg_formatEv)
                  0002b546    00000004                                   : wlocale.obj (.text:_ZNKSt7_MpunctIwE13do_pos_formatEv)
                  0002b54a    00000004                                   : wlocale.obj (.text:_ZNKSt7_MpunctIwE14do_frac_digitsEv)
                  0002b54e    00000004                                   : wlocale.obj (.text:_ZNKSt7_MpunctIwE16do_decimal_pointEv)
                  0002b552    00000004                                   : wlocale.obj (.text:_ZNKSt7_MpunctIwE16do_thousands_sepEv)
                  0002b556    00000004                                   : wiostrea.obj (.text:_ZNKSt7codecvtIwciE11do_encodingEv)
                  0002b55a    00000004                                   : wiostrea.obj (.text:_ZNKSt7codecvtIwciE13do_max_lengthEv)
                  0002b55e    00000004                                   : wiostrea.obj (.text:_ZNKSt7codecvtIwciE16do_always_noconvEv)
                  0002b562    00000004                                   : ios.obj (.text:_ZNKSt8ios_base7failure8_DoraiseEv)
                  0002b566    00000004                                   : xlocale.obj (.text:_ZNKSt8messagesIcE7do_openERKSsRKSt6locale)
                  0002b56a    00000004                                   : wlocale.obj (.text:_ZNKSt8messagesIwE7do_openERKSsRKSt6locale)
                  0002b56e    00000004                                   : wlocale.obj (.text:_ZNKSt8numpunctIwE16do_decimal_pointEv)
                  0002b572    00000004                                   : wlocale.obj (.text:_ZNKSt8numpunctIwE16do_thousands_sepEv)
                  0002b576    00000004                                   : xlocale.obj (.text:_ZNKSt8time_getIcSt19istreambuf_iteratorIcSt11char_traitsIcEEE13do_date_orderEv)
                  0002b57a    00000004                                   : wlocale.obj (.text:_ZNKSt8time_getIwSt19istreambuf_iteratorIwSt11char_traitsIwEEE13do_date_orderEv)
                  0002b57e    00000004                                   : locale.obj (.text:_ZNKSt9bad_alloc8_DoraiseEv)
                  0002b582    00000004                                   : ios.obj (.text:_ZNKSt9exception4whatEv)
                  0002b586    00000004                                   : wiostrea.obj (.text:_ZNSt15basic_streambufIwSt11char_traitsIwEE4syncEv)
                  0002b58a    00000004                                   : wiostrea.obj (.text:_ZNSt15basic_streambufIwSt11char_traitsIwEE9showmanycEv)
                  0002b58e    00000004                                   : wiostrea.obj (.text:_ZNSt9basic_iosIwSt11char_traitsIwEED1Ev)
                  0002b592    00000004                                   : placenew.obj (.text)
                  0002b596    00000004                                   : xatexit.obj (.text)

.const     0    0002b5a0    00002a15     
                  0002b5a0    000005dc     MessageParser.obj (.const)
                  0002bb7c    00000202     rtsv7M4_T_le_v4SPD16_eabi.lib : xlocinfo.obj (.const:_ZSt8_Ctyptab)
                  0002bd7e    00000102                                   : ctype.obj (.const:.string:_ctypes_)
                  0002be80    000000f0     EigenTest.obj (.const:_ZTVSt18basic_stringstreamIcSt11char_traitsIcESaIcEE)
                  0002bf70    000000ae     rtsv7M4_T_le_v4SPD16_eabi.lib : strftime.obj (.const:.string)
                  0002c01e    00000002     PID.obj (.const:.string:_ZZNKSt7num_putIcSt19ostreambuf_iteratorIcSt11char_traitsIcEEE5_FputES3_RSt8ios_basecPKcjjjjEs)
                  0002c020    000000a8     EigenTest.obj (.const:_ZTVSd)
                  0002c0c8    0000009c     driverlib.lib : interrupt.obj (.const:g_pui32Regs)
                  0002c164    00000004     rtsv7M4_T_le_v4SPD16_eabi.lib : typeinfo_.obj (.const:.typeinfo:_ZTSPKe)
                  0002c168    00000098                                   : strtod.obj (.const)
                  0002c200    00000098                                   : strtold.obj (.const)
                  0002c298    00000090     driverlib.lib : gpio.obj (.const:g_pui32GPIOBaseAddrs)
                  0002c328    00000087     rtsv7M4_T_le_v4SPD16_eabi.lib : wlocale.obj (.const:.string:_ZZNKSt8_Locinfo10_GetmonthsEvEs)
                  0002c3af    00000079                                   : xlocale.obj (.const:.string:_ZZNSt7_MpunctIcE7_MakpatERNSt10money_base7patternEjjjEs_0)
                  0002c428    00000079                                   : wlocale.obj (.const:.string:_ZZNSt7_MpunctIwE7_MakpatERNSt10money_base7patternEjjjEs_0)
                  0002c4a1    00000003     PID.obj (.const:.string:_ZZNKSt7num_putIcSt19ostreambuf_iteratorIcSt11char_traitsIcEEE6do_putES3_RSt8ios_basecPKvEs)
                  0002c4a4    00000070     driverlib.lib : interrupt.obj (.const)
                  0002c514    0000006c                   : sysctl.obj (.const:g_pui32Xtals)
                  0002c580    00000060                   : timer.obj (.const:g_ppui32TimerIntMap)
                  0002c5e0    00000056     rtsv7M4_T_le_v4SPD16_eabi.lib : wlocale.obj (.const:.string:_ZZNKSt8_Locinfo8_GetdaysEvEs)
                  0002c636    00000002     PID.obj (.const:.string:_ZZNKSt7num_putIcSt19ostreambuf_iteratorIcSt11char_traitsIcEEE5_FputES3_RSt8ios_basecPKcjjjjEs_0)
                  0002c638    0000004c     rtsv7M4_T_le_v4SPD16_eabi.lib : strftime.obj (.const)
                  0002c684    00000048                                   : iostream.obj (.const:_ZTVSt13basic_filebufIcSt11char_traitsIcEE)
                  0002c6cc    00000048                                   : wiostrea.obj (.const:_ZTVSt13basic_filebufIwSt11char_traitsIwEE)
                  0002c714    00000048     EigenTest.obj (.const:_ZTVSt15basic_streambufIcSt11char_traitsIcEE)
                  0002c75c    00000048     rtsv7M4_T_le_v4SPD16_eabi.lib : wiostrea.obj (.const:_ZTVSt15basic_streambufIwSt11char_traitsIwEE)
                  0002c7a4    00000048     EigenTest.obj (.const:_ZTVSt15basic_stringbufIcSt11char_traitsIcESaIcEE)
                  0002c7ec    00000048     driverlib.lib : ssi.obj (.const)
                  0002c834    00000040     rtsv7M4_T_le_v4SPD16_eabi.lib : wiostrea.obj (.const:_ZTVSt5ctypeIwE)
                  0002c874    00000040     driverlib.lib : timer.obj (.const:g_ppui32TimerIntMapSnowflake)
                  0002c8b4    0000003c     rtsv7M4_T_le_v4SPD16_eabi.lib : xlocale.obj (.const:.typeinfo:_ZTSSt9money_getIcSt19istreambuf_iteratorIcSt11char_traitsIcEEE)
                  0002c8f0    0000003c                                   : wlocale.obj (.const:.typeinfo:_ZTSSt9money_getIwSt19istreambuf_iteratorIwSt11char_traitsIwEEE)
                  0002c92c    0000003c                                   : xlocale.obj (.const:.typeinfo:_ZTSSt9money_putIcSt19ostreambuf_iteratorIcSt11char_traitsIcEEE)
                  0002c968    0000003c                                   : wlocale.obj (.const:.typeinfo:_ZTSSt9money_putIwSt19ostreambuf_iteratorIwSt11char_traitsIwEEE)
                  0002c9a4    0000003c                                   : locale.obj (.const:_ZTVSt7num_getIcSt19istreambuf_iteratorIcSt11char_traitsIcEEE)
                  0002c9e0    0000003c                                   : wlocale.obj (.const:_ZTVSt7num_getIwSt19istreambuf_iteratorIwSt11char_traitsIwEEE)
                  0002ca1c    0000003b                                   : xlocale.obj (.const:.typeinfo:_ZTSSt8time_getIcSt19istreambuf_iteratorIcSt11char_traitsIcEEE)
                  0002ca57    0000003b                                   : wlocale.obj (.const:.typeinfo:_ZTSSt8time_getIwSt19istreambuf_iteratorIwSt11char_traitsIwEEE)
                  0002ca92    0000003b                                   : xlocale.obj (.const:.typeinfo:_ZTSSt8time_putIcSt19ostreambuf_iteratorIcSt11char_traitsIcEEE)
                  0002cacd    0000003b                                   : wlocale.obj (.const:.typeinfo:_ZTSSt8time_putIwSt19ostreambuf_iteratorIwSt11char_traitsIwEEE)
                  0002cb08    0000003a                                   : locale.obj (.const:.typeinfo:_ZTSSt7num_getIcSt19istreambuf_iteratorIcSt11char_traitsIcEEE)
                  0002cb42    0000003a                                   : wlocale.obj (.const:.typeinfo:_ZTSSt7num_getIwSt19istreambuf_iteratorIwSt11char_traitsIwEEE)
                  0002cb7c    0000003a     PID.obj (.const:.typeinfo:_ZTSSt7num_putIcSt19ostreambuf_iteratorIcSt11char_traitsIcEEE)
                  0002cbb6    0000003a     rtsv7M4_T_le_v4SPD16_eabi.lib : wlocale.obj (.const:.typeinfo:_ZTSSt7num_putIwSt19ostreambuf_iteratorIwSt11char_traitsIwEEE)
                  0002cbf0    00000038                                   : xlog.obj (.const:p)
                  0002cc28    00000038                                   : xflog.obj (.const)
                  0002cc60    00000034                                   : xlocale.obj (.const:_ZTVSt10moneypunctIcLb0EE)
                  0002cc94    00000034                                   : xlocale.obj (.const:_ZTVSt10moneypunctIcLb1EE)
                  0002ccc8    00000034                                   : wlocale.obj (.const:_ZTVSt10moneypunctIwLb0EE)
                  0002ccfc    00000034                                   : wlocale.obj (.const:_ZTVSt10moneypunctIwLb1EE)
                  0002cd30    00000034                                   : xlocale.obj (.const:_ZTVSt7_MpunctIcE)
                  0002cd64    00000034                                   : wlocale.obj (.const:_ZTVSt7_MpunctIwE)
                  0002cd98    00000034                                   : xfatan.obj (.const)
                  0002cdcc    00000031     EigenTest.obj (.const:.typeinfo:_ZTSSt18basic_stringstreamIcSt11char_traitsIcESaIcEE)
                  0002cdfd    00000003     PID.obj (.const:.string:_ZZNKSt7num_putIcSt19ostreambuf_iteratorIcSt11char_traitsIcEEE6do_putES3_RSt8ios_baseclEs)
                  0002ce00    00000030     EigenTest.obj (.const:_ZTVSi)
                  0002ce30    00000030     EigenTest.obj (.const:_ZTVSo)
                  0002ce60    00000030     rtsv7M4_T_le_v4SPD16_eabi.lib : wiostrea.obj (.const:_ZTVSt13basic_istreamIwSt11char_traitsIwEE)
                  0002ce90    00000030                                   : wiostrea.obj (.const:_ZTVSt13basic_ostreamIwSt11char_traitsIwEE)
                  0002cec0    00000030     PID.obj (.const:_ZTVSt5ctypeIcE)
                  0002cef0    00000030     PID.obj (.const:_ZTVSt7num_putIcSt19ostreambuf_iteratorIcSt11char_traitsIcEEE)
                  0002cf20    00000030     rtsv7M4_T_le_v4SPD16_eabi.lib : wlocale.obj (.const:_ZTVSt7num_putIwSt19ostreambuf_iteratorIwSt11char_traitsIwEEE)
                  0002cf50    0000002e     EigenTest.obj (.const:.typeinfo:_ZTSSt15basic_stringbufIcSt11char_traitsIcESaIcEE)
                  0002cf7e    00000002     rtsv7M4_T_le_v4SPD16_eabi.lib : wlocale.obj (.const:.string:_ZZNKSt7num_putIwSt19ostreambuf_iteratorIwSt11char_traitsIwEEE5_FputES3_RSt8ios_basewPKcjjjjEs)
                  0002cf80    0000002c                                   : iostream.obj (.const:_ZTVSt7codecvtIcciE)
                  0002cfac    0000002c                                   : wiostrea.obj (.const:_ZTVSt7codecvtIwciE)
                  0002cfd8    00000029     EigenTest.obj (.const:.typeinfo:_ZTSSt15basic_streambufIcSt11char_traitsIcEE)
                  0002d001    00000029     rtsv7M4_T_le_v4SPD16_eabi.lib : wiostrea.obj (.const:.typeinfo:_ZTSSt15basic_streambufIwSt11char_traitsIwEE)
                  0002d02a    00000028                                   : typeinfo_.obj (.const:.typeinfo:_ZTSN10__cxxabiv123__fundamental_type_infoE)
                  0002d052    00000002                                   : wlocale.obj (.const:.string:_ZZNKSt7num_putIwSt19ostreambuf_iteratorIwSt11char_traitsIwEEE5_FputES3_RSt8ios_basewPKcjjjjEs_0)
                  0002d054    00000028                                   : xlocale.obj (.const:_ZTVSt8time_getIcSt19istreambuf_iteratorIcSt11char_traitsIcEEE)
                  0002d07c    00000028                                   : wlocale.obj (.const:_ZTVSt8time_getIwSt19istreambuf_iteratorIwSt11char_traitsIwEEE)
                  0002d0a4    00000027                                   : iostream.obj (.const:.typeinfo:_ZTSSt13basic_filebufIcSt11char_traitsIcEE)
                  0002d0cb    00000027                                   : wiostrea.obj (.const:.typeinfo:_ZTSSt13basic_filebufIwSt11char_traitsIwEE)
                  0002d0f2    00000027                                   : wiostrea.obj (.const:.typeinfo:_ZTSSt13basic_istreamIwSt11char_traitsIwEE)
                  0002d119    00000027                                   : wiostrea.obj (.const:.typeinfo:_ZTSSt13basic_ostreamIwSt11char_traitsIwEE)
                  0002d140    00000026                                   : typeinfo_.obj (.const:.typeinfo:_ZTSN10__cxxabiv121__vmi_class_type_infoE)
                  0002d166    00000025                                   : typeinfo_.obj (.const:.typeinfo:_ZTSN10__cxxabiv120__si_class_type_infoE)
                  0002d18b    00000024                                   : typeinfo_.obj (.const:.typeinfo:_ZTSN10__cxxabiv119__pointer_type_infoE)
                  0002d1af    00000001     EigenTest.obj (.const:.string:_ZZN5Eigen8IOFormatC1EiiRKSsS2_S2_S2_S2_S2_Es)
                  0002d1b0    00000024     PID.obj (.const:_ZTVSt8numpunctIcE)
                  0002d1d4    00000024     rtsv7M4_T_le_v4SPD16_eabi.lib : wlocale.obj (.const:_ZTVSt8numpunctIwE)
                  0002d1f8    00000022                                   : typeinfo_.obj (.const:.typeinfo:_ZTSN10__cxxabiv117__class_type_infoE)
                  0002d21a    00000022                                   : typeinfo_.obj (.const:.typeinfo:_ZTSN10__cxxabiv117__pbase_type_infoE)
                  0002d23c    00000022     EigenTest.obj (.const:.typeinfo:_ZTSSt9basic_iosIcSt11char_traitsIcEE)
                  0002d25e    00000022     rtsv7M4_T_le_v4SPD16_eabi.lib : wiostrea.obj (.const:.typeinfo:_ZTSSt9basic_iosIwSt11char_traitsIwEE)
                  0002d280    00000020     EigenTest.obj (.const:.typeinfo:_ZTISd)
                  0002d2a0    0000001e     SPISlave.obj (.const:.typeinfo:_ZTS15RingBufferClassI9message_sE)
                  0002d2be    00000002     rtsv7M4_T_le_v4SPD16_eabi.lib : xlocale.obj (.const:.string:_ZZNSt7_MpunctIcE5_InitERKSt8_LocinfoEs_0)
                  0002d2c0    0000001c                                   : xlocale.obj (.const:_ZTVSt7collateIcE)
                  0002d2dc    0000001c                                   : wlocale.obj (.const:_ZTVSt7collateIwE)
                  0002d2f8    0000001c                                   : xlocale.obj (.const:_ZTVSt8messagesIcE)
                  0002d314    0000001c                                   : wlocale.obj (.const:_ZTVSt8messagesIwE)
                  0002d330    0000001c                                   : locale.obj (.const)
                  0002d34c    0000001b     RPiControlledCopter.obj (.const:.typeinfo:_ZTS24RPiControlledCopterClass)
                  0002d367    0000001a     OptimusPiInterface.obj (.const:.typeinfo:_ZTS23OptimusPiInterfaceClass)
                  0002d381    00000003     PID.obj (.const:.string:_ZZNKSt7num_putIcSt19ostreambuf_iteratorIcSt11char_traitsIcEEE6do_putES3_RSt8ios_basecmEs)
                  0002d384    00000018     EigenTest.obj (.const:.typeinfo:_ZTISi)
                  0002d39c    00000018     EigenTest.obj (.const:.typeinfo:_ZTISo)
                  0002d3b4    00000018     rtsv7M4_T_le_v4SPD16_eabi.lib : wiostrea.obj (.const:.typeinfo:_ZTISt13basic_istreamIwSt11char_traitsIwEE)
                  0002d3cc    00000018                                   : wiostrea.obj (.const:.typeinfo:_ZTISt13basic_ostreamIwSt11char_traitsIwEE)
                  0002d3e4    00000018     StandaloneCopter.obj (.const:.typeinfo:_ZTS21StandaloneCopterClass)
                  0002d3fc    00000018     rtsv7M4_T_le_v4SPD16_eabi.lib : ios.obj (.const:_ZTVNSt8ios_base7failureE)
                  0002d414    00000018                                   : string.obj (.const:_ZTVSt11logic_error)
                  0002d42c    00000018                                   : string.obj (.const:_ZTVSt12length_error)
                  0002d444    00000018                                   : string.obj (.const:_ZTVSt12out_of_range)
                  0002d45c    00000018                                   : ios.obj (.const:_ZTVSt13runtime_error)
                  0002d474    00000018                                   : locale.obj (.const:_ZTVSt9bad_alloc)
                  0002d48c    00000018                                   : ios.obj (.const:_ZTVSt9exception)
                  0002d4a4    00000018                                   : xlocale.obj (.const:_ZTVSt9money_getIcSt19istreambuf_iteratorIcSt11char_traitsIcEEE)
                  0002d4bc    00000018                                   : wlocale.obj (.const:_ZTVSt9money_getIwSt19istreambuf_iteratorIwSt11char_traitsIwEEE)
                  0002d4d4    00000018                                   : xlocale.obj (.const:_ZTVSt9money_putIcSt19ostreambuf_iteratorIcSt11char_traitsIcEEE)
                  0002d4ec    00000018                                   : wlocale.obj (.const:_ZTVSt9money_putIwSt19ostreambuf_iteratorIwSt11char_traitsIwEEE)
                  0002d504    00000017                                   : locale.obj (.const:.string:_ZZNKSt7num_getIcSt19istreambuf_iteratorIcSt11char_traitsIcEEE8_GetifldEPcRS3_S6_NSt5_IosbIiE9_FmtflagsERKSt6localeEs)
                  0002d51b    00000017                                   : wlocale.obj (.const:.string:_ZZNKSt7num_getIwSt19istreambuf_iteratorIwSt11char_traitsIwEEE8_GetifldEPcRS3_S6_NSt5_IosbIiE9_FmtflagsERKSt6localeEs)
                  0002d532    00000017     MotorController.obj (.const:.typeinfo:_ZTS20MotorControllerClass)
                  0002d549    00000016     ExtendedKalman.obj (.const:.typeinfo:_ZTS19ExtendedKalmanClass)
                  0002d55f    00000016     MotorInterface.obj (.const:.typeinfo:_ZTS19MotorInterfaceClass)
                  0002d575    00000016     rtsv7M4_T_le_v4SPD16_eabi.lib : ios.obj (.const:.typeinfo:_ZTSNSt8ios_base7failureE)
                  0002d58b    00000016                                   : xlocale.obj (.const:.typeinfo:_ZTSSt10moneypunctIcLb0EE)
                  0002d5a1    00000016                                   : xlocale.obj (.const:.typeinfo:_ZTSSt10moneypunctIcLb1EE)
                  0002d5b7    00000016                                   : wlocale.obj (.const:.typeinfo:_ZTSSt10moneypunctIwLb0EE)
                  0002d5cd    00000016                                   : wlocale.obj (.const:.typeinfo:_ZTSSt10moneypunctIwLb1EE)
                  0002d5e3    00000015     SPISlave.obj (.const:.typeinfo:_ZTS15RingBufferClassIhE)
                  0002d5f8    00000015     MessageParser.obj (.const:.typeinfo:_ZTS18MessageParserClass)
                  0002d60d    00000015     PinController.obj (.const:.typeinfo:_ZTS18PinControllerClass)
                  0002d622    00000014     InputCapture.obj (.const:.typeinfo:_ZTS17InputCaptureClass)
                  0002d636    00000014     rtsv7M4_T_le_v4SPD16_eabi.lib : locale0.obj (.const:.typeinfo:_ZTSNSt6locale7_LocimpE)
                  0002d64a    00000002                                   : wlocale.obj (.const:.string:_ZZNSt7_MpunctIwE5_InitERKSt8_LocinfoEs_0)
                  0002d64c    00000014                                   : xlocale.obj (.const:_ZTVSt8time_putIcSt19ostreambuf_iteratorIcSt11char_traitsIcEEE)
                  0002d660    00000014                                   : wlocale.obj (.const:_ZTVSt8time_putIwSt19ostreambuf_iteratorIwSt11char_traitsIwEEE)
                  0002d674    00000014                                   : wlocale.obj (.const)
                  0002d688    00000014                                   : xlocale.obj (.const)
                  0002d69c    00000013     MPU9150Test.obj (.const:.typeinfo:_ZTS16MPU9150TestClass)
                  0002d6af    00000013     MerayoCalib.obj (.const:.typeinfo:_ZTS16MerayoCalibClass)
                  0002d6c2    00000013     RXInterface.obj (.const:.typeinfo:_ZTS16RXInterfaceClass)
                  0002d6d5    00000012     ArbitratorClass.obj (.const:.typeinfo:_ZTS15ArbitratorClass)
                  0002d6e7    00000012     GPIOOutput.obj (.const:.typeinfo:_ZTS15GPIOOutputClass)
                  0002d6f9    00000012     PrintfTest.obj (.const:.typeinfo:_ZTS15PrintfTestClass)
                  0002d70b    00000012     Quaternion.obj (.const:.typeinfo:_ZTS15QuaternionClass)
                  0002d71d    00000012     PID.obj (.const:.typeinfo:_ZTSNSt6locale5facetE)
                  0002d72f    00000012     rtsv7M4_T_le_v4SPD16_eabi.lib : wlocale.obj (.const:.typeinfo:_ZTSSt13messages_base)
                  0002d741    00000012                                   : ios.obj (.const:.typeinfo:_ZTSSt13runtime_error)
                  0002d753    00000011     EigenTest.obj (.const:.typeinfo:_ZTS14EigenTestClass)
                  0002d764    00000011     GPIOInput.obj (.const:.typeinfo:_ZTS14GPIOInputClass)
                  0002d775    00000011     SPIMaster.obj (.const:.typeinfo:_ZTS14SPIMasterClass)
                  0002d786    00000011     rtsv7M4_T_le_v4SPD16_eabi.lib : iostream.obj (.const:.typeinfo:_ZTSSt12codecvt_base)
                  0002d797    00000011                                   : string.obj (.const:.typeinfo:_ZTSSt12length_error)
                  0002d7a8    00000011                                   : string.obj (.const:.typeinfo:_ZTSSt12out_of_range)
                  0002d7b9    00000003     PID.obj (.const:.string:_ZZNKSt7num_putIcSt19ostreambuf_iteratorIcSt11char_traitsIcEEE6do_putES3_RSt8ios_basecxEs)
                  0002d7bc    00000010     rtsv7M4_T_le_v4SPD16_eabi.lib : typeinfo_.obj (.const:.typeinfo:_ZTIPKe)
                  0002d7cc    00000010     SPISlave.obj (.const:.typeinfo:_ZTS13SPISlaveClass)
                  0002d7dc    00000010     rtsv7M4_T_le_v4SPD16_eabi.lib : string.obj (.const:.typeinfo:_ZTSSt11logic_error)
                  0002d7ec    00000010                                   : iostream.obj (.const:.typeinfo:_ZTSSt7codecvtIcciE)
                  0002d7fc    00000010                                   : wiostrea.obj (.const:.typeinfo:_ZTSSt7codecvtIwciE)
                  0002d80c    00000010     Control.obj (.const:_ZTV12ControlClass)
                  0002d81c    00000010     GPTimer.obj (.const:_ZTV12GPTimerClass)
                  0002d82c    00000010     MPU9150.obj (.const:_ZTV12MPU9150Class)
                  0002d83c    00000010     SPISlave.obj (.const:_ZTV13SPISlaveClass)
                  0002d84c    00000010     EigenTest.obj (.const:_ZTV14EigenTestClass)
                  0002d85c    00000010     GPIOInput.obj (.const:_ZTV14GPIOInputClass)
                  0002d86c    00000010     SPIMaster.obj (.const:_ZTV14SPIMasterClass)
                  0002d87c    00000010     ArbitratorClass.obj (.const:_ZTV15ArbitratorClass)
                  0002d88c    00000010     GPIOOutput.obj (.const:_ZTV15GPIOOutputClass)
                  0002d89c    00000010     PrintfTest.obj (.const:_ZTV15PrintfTestClass)
                  0002d8ac    00000010     Quaternion.obj (.const:_ZTV15QuaternionClass)
                  0002d8bc    00000010     SPISlave.obj (.const:_ZTV15RingBufferClassI9message_sE)
                  0002d8cc    00000010     SPISlave.obj (.const:_ZTV15RingBufferClassIhE)
                  0002d8dc    00000010     MPU9150Test.obj (.const:_ZTV16MPU9150TestClass)
                  0002d8ec    00000010     MerayoCalib.obj (.const:_ZTV16MerayoCalibClass)
                  0002d8fc    00000010     RXInterface.obj (.const:_ZTV16RXInterfaceClass)
                  0002d90c    00000010     InputCapture.obj (.const:_ZTV17InputCaptureClass)
                  0002d91c    00000010     MessageParser.obj (.const:_ZTV18MessageParserClass)
                  0002d92c    00000010     PinController.obj (.const:_ZTV18PinControllerClass)
                  0002d93c    00000010     ExtendedKalman.obj (.const:_ZTV19ExtendedKalmanClass)
                  0002d94c    00000010     MotorInterface.obj (.const:_ZTV19MotorInterfaceClass)
                  0002d95c    00000010     MotorController.obj (.const:_ZTV20MotorControllerClass)
                  0002d96c    00000010     StandaloneCopter.obj (.const:_ZTV21StandaloneCopterClass)
                  0002d97c    00000010     OptimusPiInterface.obj (.const:_ZTV23OptimusPiInterfaceClass)
                  0002d98c    00000010     RPiControlledCopter.obj (.const:_ZTV24RPiControlledCopterClass)
                  0002d99c    00000010     I2C.obj (.const:_ZTV8I2CClass)
                  0002d9ac    00000010     PID.obj (.const:_ZTV8PIDClass)
                  0002d9bc    00000010     AHRS.obj (.const:_ZTV9AHRSClass)
                  0002d9cc    00000010     rtsv7M4_T_le_v4SPD16_eabi.lib : typeinfo_.obj (.const:_ZTVN10__cxxabiv117__class_type_infoE)
                  0002d9dc    00000010                                   : typeinfo_.obj (.const:_ZTVN10__cxxabiv119__pointer_type_infoE)
                  0002d9ec    00000010                                   : typeinfo_.obj (.const:_ZTVN10__cxxabiv120__si_class_type_infoE)
                  0002d9fc    00000010                                   : typeinfo_.obj (.const:_ZTVN10__cxxabiv121__vmi_class_type_infoE)
                  0002da0c    00000010                                   : typeinfo_.obj (.const:_ZTVN10__cxxabiv123__fundamental_type_infoE)
                  0002da1c    00000010     PID.obj (.const:_ZTVNSt6locale5facetE)
                  0002da2c    00000010     rtsv7M4_T_le_v4SPD16_eabi.lib : locale0.obj (.const:_ZTVNSt6locale7_LocimpE)
                  0002da3c    00000010     PID.obj (.const:_ZTVSt10ctype_base)
                  0002da4c    00000010     rtsv7M4_T_le_v4SPD16_eabi.lib : ios.obj (.const:_ZTVSt8ios_base)
                  0002da5c    00000010     EigenTest.obj (.const:_ZTVSt9basic_iosIcSt11char_traitsIcEE)
                  0002da6c    00000010     rtsv7M4_T_le_v4SPD16_eabi.lib : wiostrea.obj (.const:_ZTVSt9basic_iosIwSt11char_traitsIwEE)
                  0002da7c    0000000f     Control.obj (.const:.typeinfo:_ZTS12ControlClass)
                  0002da8b    0000000f     GPTimer.obj (.const:.typeinfo:_ZTS12GPTimerClass)
                  0002da9a    0000000f     MPU9150.obj (.const:.typeinfo:_ZTS12MPU9150Class)
                  0002daa9    0000000f     PID.obj (.const:.typeinfo:_ZTSSt10ctype_base)
                  0002dab8    0000000f     rtsv7M4_T_le_v4SPD16_eabi.lib : wlocale.obj (.const:.typeinfo:_ZTSSt10money_base)
                  0002dac7    0000000f                                   : xlocale.obj (.const:.typeinfo:_ZTSSt8messagesIcE)
                  0002dad6    0000000f                                   : wlocale.obj (.const:.typeinfo:_ZTSSt8messagesIwE)
                  0002dae5    0000000f     PID.obj (.const:.typeinfo:_ZTSSt8numpunctIcE)
                  0002daf4    0000000f     rtsv7M4_T_le_v4SPD16_eabi.lib : wlocale.obj (.const:.typeinfo:_ZTSSt8numpunctIwE)
                  0002db03    0000000e                                   : xlocale.obj (.const:.typeinfo:_ZTSSt7_MpunctIcE)
                  0002db11    0000000e                                   : wlocale.obj (.const:.typeinfo:_ZTSSt7_MpunctIwE)
                  0002db1f    0000000e                                   : xlocale.obj (.const:.typeinfo:_ZTSSt7collateIcE)
                  0002db2d    0000000e                                   : wlocale.obj (.const:.typeinfo:_ZTSSt7collateIwE)
                  0002db3b    0000000d                                   : locale.obj (.const:.typeinfo:_ZTSSt9bad_alloc)
                  0002db48    0000000d                                   : ios.obj (.const:.typeinfo:_ZTSSt9exception)
                  0002db55    0000000d                                   : wlocale.obj (.const:.typeinfo:_ZTSSt9time_base)
                  0002db62    0000000d                                   : typeinfo_.obj (.const:.typeinfo:_ZTSSt9type_info)
                  0002db6f    00000001                                   : xlocale.obj (.const:.string:_ZZNSt7_MpunctIcE5_InitERKSt8_LocinfoEs)
                  0002db70    0000000c     AHRS.obj (.const:.typeinfo:_ZTI9AHRSClass)
                  0002db7c    0000000c     rtsv7M4_T_le_v4SPD16_eabi.lib : typeinfo_.obj (.const:.typeinfo:_ZTIN10__cxxabiv117__class_type_infoE)
                  0002db88    0000000c                                   : typeinfo_.obj (.const:.typeinfo:_ZTIN10__cxxabiv117__pbase_type_infoE)
                  0002db94    0000000c                                   : typeinfo_.obj (.const:.typeinfo:_ZTIN10__cxxabiv119__pointer_type_infoE)
                  0002dba0    0000000c                                   : typeinfo_.obj (.const:.typeinfo:_ZTIN10__cxxabiv120__si_class_type_infoE)
                  0002dbac    0000000c                                   : typeinfo_.obj (.const:.typeinfo:_ZTIN10__cxxabiv121__vmi_class_type_infoE)
                  0002dbb8    0000000c                                   : typeinfo_.obj (.const:.typeinfo:_ZTIN10__cxxabiv123__fundamental_type_infoE)
                  0002dbc4    0000000c                                   : locale0.obj (.const:.typeinfo:_ZTINSt6locale7_LocimpE)
                  0002dbd0    0000000c                                   : ios.obj (.const:.typeinfo:_ZTINSt8ios_base7failureE)
                  0002dbdc    0000000c     PID.obj (.const:.typeinfo:_ZTISt10ctype_base)
                  0002dbe8    0000000c     rtsv7M4_T_le_v4SPD16_eabi.lib : wlocale.obj (.const:.typeinfo:_ZTISt10money_base)
                  0002dbf4    0000000c                                   : xlocale.obj (.const:.typeinfo:_ZTISt10moneypunctIcLb0EE)
                  0002dc00    0000000c                                   : xlocale.obj (.const:.typeinfo:_ZTISt10moneypunctIcLb1EE)
                  0002dc0c    0000000c                                   : wlocale.obj (.const:.typeinfo:_ZTISt10moneypunctIwLb0EE)
                  0002dc18    0000000c                                   : wlocale.obj (.const:.typeinfo:_ZTISt10moneypunctIwLb1EE)
                  0002dc24    0000000c                                   : string.obj (.const:.typeinfo:_ZTISt11logic_error)
                  0002dc30    0000000c                                   : iostream.obj (.const:.typeinfo:_ZTISt12codecvt_base)
                  0002dc3c    0000000c                                   : string.obj (.const:.typeinfo:_ZTISt12length_error)
                  0002dc48    0000000c                                   : string.obj (.const:.typeinfo:_ZTISt12out_of_range)
                  0002dc54    0000000c                                   : iostream.obj (.const:.typeinfo:_ZTISt13basic_filebufIcSt11char_traitsIcEE)
                  0002dc60    0000000c                                   : wiostrea.obj (.const:.typeinfo:_ZTISt13basic_filebufIwSt11char_traitsIwEE)
                  0002dc6c    0000000c                                   : wlocale.obj (.const:.typeinfo:_ZTISt13messages_base)
                  0002dc78    0000000c                                   : ios.obj (.const:.typeinfo:_ZTISt13runtime_error)
                  0002dc84    0000000c     EigenTest.obj (.const:.typeinfo:_ZTISt15basic_stringbufIcSt11char_traitsIcESaIcEE)
                  0002dc90    0000000c     EigenTest.obj (.const:.typeinfo:_ZTISt18basic_stringstreamIcSt11char_traitsIcESaIcEE)
                  0002dc9c    0000000c     PID.obj (.const:.typeinfo:_ZTISt5ctypeIcE)
                  0002dca8    0000000c     rtsv7M4_T_le_v4SPD16_eabi.lib : wiostrea.obj (.const:.typeinfo:_ZTISt5ctypeIwE)
                  0002dcb4    0000000c                                   : xlocale.obj (.const:.typeinfo:_ZTISt7_MpunctIcE)
                  0002dcc0    0000000c                                   : wlocale.obj (.const:.typeinfo:_ZTISt7_MpunctIwE)
                  0002dccc    0000000c                                   : iostream.obj (.const:.typeinfo:_ZTISt7codecvtIcciE)
                  0002dcd8    0000000c                                   : wiostrea.obj (.const:.typeinfo:_ZTISt7codecvtIwciE)
                  0002dce4    0000000c                                   : xlocale.obj (.const:.typeinfo:_ZTISt7collateIcE)
                  0002dcf0    0000000c                                   : wlocale.obj (.const:.typeinfo:_ZTISt7collateIwE)
                  0002dcfc    0000000c                                   : locale.obj (.const:.typeinfo:_ZTISt7num_getIcSt19istreambuf_iteratorIcSt11char_traitsIcEEE)
                  0002dd08    0000000c                                   : wlocale.obj (.const:.typeinfo:_ZTISt7num_getIwSt19istreambuf_iteratorIwSt11char_traitsIwEEE)
                  0002dd14    0000000c     PID.obj (.const:.typeinfo:_ZTISt7num_putIcSt19ostreambuf_iteratorIcSt11char_traitsIcEEE)
                  0002dd20    0000000c     rtsv7M4_T_le_v4SPD16_eabi.lib : wlocale.obj (.const:.typeinfo:_ZTISt7num_putIwSt19ostreambuf_iteratorIwSt11char_traitsIwEEE)
                  0002dd2c    0000000c                                   : ios.obj (.const:.typeinfo:_ZTISt8ios_base)
                  0002dd38    0000000c                                   : xlocale.obj (.const:.typeinfo:_ZTISt8messagesIcE)
                  0002dd44    0000000c                                   : wlocale.obj (.const:.typeinfo:_ZTISt8messagesIwE)
                  0002dd50    0000000c     PID.obj (.const:.typeinfo:_ZTISt8numpunctIcE)
                  0002dd5c    0000000c     rtsv7M4_T_le_v4SPD16_eabi.lib : wlocale.obj (.const:.typeinfo:_ZTISt8numpunctIwE)
                  0002dd68    0000000c                                   : xlocale.obj (.const:.typeinfo:_ZTISt8time_getIcSt19istreambuf_iteratorIcSt11char_traitsIcEEE)
                  0002dd74    0000000c                                   : wlocale.obj (.const:.typeinfo:_ZTISt8time_getIwSt19istreambuf_iteratorIwSt11char_traitsIwEEE)
                  0002dd80    0000000c                                   : xlocale.obj (.const:.typeinfo:_ZTISt8time_putIcSt19ostreambuf_iteratorIcSt11char_traitsIcEEE)
                  0002dd8c    0000000c                                   : wlocale.obj (.const:.typeinfo:_ZTISt8time_putIwSt19ostreambuf_iteratorIwSt11char_traitsIwEEE)
                  0002dd98    0000000c                                   : locale.obj (.const:.typeinfo:_ZTISt9bad_alloc)
                  0002dda4    0000000c     EigenTest.obj (.const:.typeinfo:_ZTISt9basic_iosIcSt11char_traitsIcEE)
                  0002ddb0    0000000c     rtsv7M4_T_le_v4SPD16_eabi.lib : wiostrea.obj (.const:.typeinfo:_ZTISt9basic_iosIwSt11char_traitsIwEE)
                  0002ddbc    0000000c                                   : xlocale.obj (.const:.typeinfo:_ZTISt9money_getIcSt19istreambuf_iteratorIcSt11char_traitsIcEEE)
                  0002ddc8    0000000c                                   : wlocale.obj (.const:.typeinfo:_ZTISt9money_getIwSt19istreambuf_iteratorIwSt11char_traitsIwEEE)
                  0002ddd4    0000000c                                   : xlocale.obj (.const:.typeinfo:_ZTISt9money_putIcSt19ostreambuf_iteratorIcSt11char_traitsIcEEE)
                  0002dde0    0000000c                                   : wlocale.obj (.const:.typeinfo:_ZTISt9money_putIwSt19ostreambuf_iteratorIwSt11char_traitsIwEEE)
                  0002ddec    0000000c                                   : wlocale.obj (.const:.typeinfo:_ZTISt9time_base)
                  0002ddf8    0000000c     EigenTest.obj (.const:.typeinfo:_ZTSSt5_IosbIiE)
                  0002de04    0000000c     PID.obj (.const:.typeinfo:_ZTSSt5ctypeIcE)
                  0002de10    0000000c     rtsv7M4_T_le_v4SPD16_eabi.lib : wiostrea.obj (.const:.typeinfo:_ZTSSt5ctypeIwE)
                  0002de1c    0000000c                                   : ios.obj (.const:.typeinfo:_ZTSSt8ios_base)
                  0002de28    0000000b     AHRS.obj (.const:.typeinfo:_ZTS9AHRSClass)
                  0002de33    0000000a     I2C.obj (.const:.typeinfo:_ZTS8I2CClass)
                  0002de3d    0000000a     PID.obj (.const:.typeinfo:_ZTS8PIDClass)
                  0002de47    00000001     rtsv7M4_T_le_v4SPD16_eabi.lib : wlocale.obj (.const:.string:_ZZNSt7_MpunctIwE5_InitERKSt8_LocinfoEs)
                  0002de48    00000009     PID.obj (.const)
                  0002de51    00000003     PID.obj (.const:.string:_ZZNKSt7num_putIcSt19ostreambuf_iteratorIcSt11char_traitsIcEEE6do_putES3_RSt8ios_basecyEs)
                  0002de54    00000008     Control.obj (.const:.typeinfo:_ZTI12ControlClass)
                  0002de5c    00000008     GPTimer.obj (.const:.typeinfo:_ZTI12GPTimerClass)
                  0002de64    00000008     MPU9150.obj (.const:.typeinfo:_ZTI12MPU9150Class)
                  0002de6c    00000008     SPISlave.obj (.const:.typeinfo:_ZTI13SPISlaveClass)
                  0002de74    00000008     EigenTest.obj (.const:.typeinfo:_ZTI14EigenTestClass)
                  0002de7c    00000008     GPIOInput.obj (.const:.typeinfo:_ZTI14GPIOInputClass)
                  0002de84    00000008     SPIMaster.obj (.const:.typeinfo:_ZTI14SPIMasterClass)
                  0002de8c    00000008     ArbitratorClass.obj (.const:.typeinfo:_ZTI15ArbitratorClass)
                  0002de94    00000008     GPIOOutput.obj (.const:.typeinfo:_ZTI15GPIOOutputClass)
                  0002de9c    00000008     PrintfTest.obj (.const:.typeinfo:_ZTI15PrintfTestClass)
                  0002dea4    00000008     Quaternion.obj (.const:.typeinfo:_ZTI15QuaternionClass)
                  0002deac    00000008     SPISlave.obj (.const:.typeinfo:_ZTI15RingBufferClassI9message_sE)
                  0002deb4    00000008     SPISlave.obj (.const:.typeinfo:_ZTI15RingBufferClassIhE)
                  0002debc    00000008     MPU9150Test.obj (.const:.typeinfo:_ZTI16MPU9150TestClass)
                  0002dec4    00000008     MerayoCalib.obj (.const:.typeinfo:_ZTI16MerayoCalibClass)
                  0002decc    00000008     RXInterface.obj (.const:.typeinfo:_ZTI16RXInterfaceClass)
                  0002ded4    00000008     InputCapture.obj (.const:.typeinfo:_ZTI17InputCaptureClass)
                  0002dedc    00000008     MessageParser.obj (.const:.typeinfo:_ZTI18MessageParserClass)
                  0002dee4    00000008     PinController.obj (.const:.typeinfo:_ZTI18PinControllerClass)
                  0002deec    00000008     ExtendedKalman.obj (.const:.typeinfo:_ZTI19ExtendedKalmanClass)
                  0002def4    00000008     MotorInterface.obj (.const:.typeinfo:_ZTI19MotorInterfaceClass)
                  0002defc    00000008     MotorController.obj (.const:.typeinfo:_ZTI20MotorControllerClass)
                  0002df04    00000008     StandaloneCopter.obj (.const:.typeinfo:_ZTI21StandaloneCopterClass)
                  0002df0c    00000008     OptimusPiInterface.obj (.const:.typeinfo:_ZTI23OptimusPiInterfaceClass)
                  0002df14    00000008     RPiControlledCopter.obj (.const:.typeinfo:_ZTI24RPiControlledCopterClass)
                  0002df1c    00000008     I2C.obj (.const:.typeinfo:_ZTI8I2CClass)
                  0002df24    00000008     PID.obj (.const:.typeinfo:_ZTI8PIDClass)
                  0002df2c    00000008     PID.obj (.const:.typeinfo:_ZTINSt6locale5facetE)
                  0002df34    00000008     EigenTest.obj (.const:.typeinfo:_ZTISt15basic_streambufIcSt11char_traitsIcEE)
                  0002df3c    00000008     rtsv7M4_T_le_v4SPD16_eabi.lib : wiostrea.obj (.const:.typeinfo:_ZTISt15basic_streambufIwSt11char_traitsIwEE)
                  0002df44    00000008     EigenTest.obj (.const:.typeinfo:_ZTISt5_IosbIiE)
                  0002df4c    00000008     rtsv7M4_T_le_v4SPD16_eabi.lib : ios.obj (.const:.typeinfo:_ZTISt9exception)
                  0002df54    00000008                                   : typeinfo_.obj (.const:.typeinfo:_ZTISt9type_info)
                  0002df5c    00000008                                   : typeinfo_.obj (.const:.typeinfo:_ZTIe)
                  0002df64    00000008     driverlib.lib : timer.obj (.const)
                  0002df6c    00000006     PID.obj (.const:.string:_ZZNKSt8_Locinfo9_GetfalseEvEs)
                  0002df72    00000006     rtsv7M4_T_le_v4SPD16_eabi.lib : xlocale.obj (.const:.string:_ZZNKSt9money_putIcSt19ostreambuf_iteratorIcSt11char_traitsIcEEE6do_putES3_bRSt8ios_baseceEs)
                  0002df78    00000006                                   : wlocale.obj (.const:.string:_ZZNKSt9money_putIwSt19ostreambuf_iteratorIwSt11char_traitsIwEEE6do_putES3_bRSt8ios_baseweEs)
                  0002df7e    00000002                                   : typeinfo_.obj (.const:.typeinfo:_ZTSe)
                  0002df80    00000006                                   : setlocale.obj (.const:.string)
                  0002df86    00000005     PID.obj (.const:.string:_ZZNKSt8_Locinfo8_GettrueEvEs)
                  0002df8b    00000005     rtsv7M4_T_le_v4SPD16_eabi.lib : xlocale.obj (.const:.string:_ZZNSt7_MpunctIcE7_MakpatERNSt10money_base7patternEjjjEs)
                  0002df90    00000005                                   : wlocale.obj (.const:.string:_ZZNSt7_MpunctIwE7_MakpatERNSt10money_base7patternEjjjEs)
                  0002df95    00000003                                   : wlocale.obj (.const:.string:_ZZNKSt7num_putIwSt19ostreambuf_iteratorIwSt11char_traitsIwEEE6do_putES3_RSt8ios_basewPKvEs)
                  0002df98    00000004     PID.obj (.const:_ZNSs4nposE)
                  0002df9c    00000004     rtsv7M4_T_le_v4SPD16_eabi.lib : ios.obj (.const)
                  0002dfa0    00000003                                   : wlocale.obj (.const:.string:_ZZNKSt7num_putIwSt19ostreambuf_iteratorIwSt11char_traitsIwEEE6do_putES3_RSt8ios_basewlEs)
                  0002dfa3    00000003                                   : wlocale.obj (.const:.string:_ZZNKSt7num_putIwSt19ostreambuf_iteratorIwSt11char_traitsIwEEE6do_putES3_RSt8ios_basewmEs)
                  0002dfa6    00000003                                   : wlocale.obj (.const:.string:_ZZNKSt7num_putIwSt19ostreambuf_iteratorIwSt11char_traitsIwEEE6do_putES3_RSt8ios_basewxEs)
                  0002dfa9    00000003                                   : wlocale.obj (.const:.string:_ZZNKSt7num_putIwSt19ostreambuf_iteratorIwSt11char_traitsIwEEE6do_putES3_RSt8ios_basewyEs)
                  0002dfac    00000003     EigenTest.obj (.const:.typeinfo:_ZTSSd)
                  0002dfaf    00000003     EigenTest.obj (.const:.typeinfo:_ZTSSi)
                  0002dfb2    00000003     EigenTest.obj (.const:.typeinfo:_ZTSSo)

.init_array 
*          0    0002dfb8    00000044     
                  0002dfb8    00000004     AHRS.obj (.init_array)
                  0002dfbc    00000004     ArbitratorClass.obj (.init_array)
                  0002dfc0    00000004     Control.obj (.init_array)
                  0002dfc4    00000004     EigenTest.obj (.init_array)
                  0002dfc8    00000004     ExtendedKalman.obj (.init_array)
                  0002dfcc    00000004     GPTimer.obj (.init_array)
                  0002dfd0    00000004     MPU9150Test.obj (.init_array)
                  0002dfd4    00000004     Overseer.obj (.init_array)
                  0002dfd8    00000004     PID.obj (.init_array)
                  0002dfdc    00000004     PrintfTest.obj (.init_array)
                  0002dfe0    00000004     StandaloneCopter.obj (.init_array)
                  0002dfe4    00000004     rtsv7M4_T_le_v4SPD16_eabi.lib : iostream.obj (.init_array)
                  0002dfe8    00000004                                   : locale.obj (.init_array)
                  0002dfec    00000004                                   : locale0.obj (.init_array)
                  0002dff0    00000004                                   : wiostrea.obj (.init_array)
                  0002dff4    00000004                                   : wlocale.obj (.init_array)
                  0002dff8    00000004                                   : xlocale.obj (.init_array)

.cinit     0    0002e000    00000158     
                  0002e000    00000121     (.cinit..data.load) [load image, compression = rle]
                  0002e121    00000003     --HOLE-- [fill = 0]
                  0002e124    0000000c     (__TI_handler_table)
                  0002e130    00000008     (.cinit..bss.load) [load image, compression = zero_init]
                  0002e138    00000008     (.cinit..vtable.load) [load image, compression = zero_init]
                  0002e140    00000018     (__TI_cinit_table)

.vtable    0    20000000    0000026c     UNINITIALIZED
                  20000000    0000026c     driverlib.lib : interrupt.obj (.vtable)

.sysmem    0    20000270    00004000     UNINITIALIZED
                  20000270    00000008     rtsv7M4_T_le_v4SPD16_eabi.lib : memory.obj (.sysmem)
                  20000278    00003ff8     --HOLE--

.stack     0    20004270    00002000     UNINITIALIZED
                  20004270    00002000     --HOLE--

.data      0    20006270    00000834     UNINITIALIZED
                  20006270    000001b8     rtsv7M4_T_le_v4SPD16_eabi.lib : iostream.obj (.data)
                  20006428    000001b8                                   : wiostrea.obj (.data)
                  200065e0    000000f0                                   : defs.obj (.data:_ftable)
                  200066d0    000000d0                                   : lowlev.obj (.data)
                  200067a0    000000b0                                   : signal.obj (.data:sigtable)
                  20006850    00000080                                   : xvalues.obj (.data)
                  200068d0    00000068                                   : xfvalues.obj (.data)
                  20006938    00000054                                   : ios.obj (.data)
                  2000698c    00000034                                   : setlocale.obj (.data:C_locale)
                  200069c0    00000020                                   : locale0.obj (.data)
                  200069e0    00000010                                   : defs.obj (.data)
                  200069f0    00000010                                   : tmzone.obj (.data)
                  20006a00    0000000c                                   : memory.obj (.data)
                  20006a0c    00000008                                   : _lock.obj (.data)
                  20006a14    00000008                                   : exit.obj (.data)
                  20006a1c    00000008                                   : feraiseexcept.obj (.data)
                  20006a24    00000004                                   : xlocale.obj (.data:_ZNSt9_FacetptrISt10moneypunctIcLb0EEE6_PsaveE)
                  20006a28    00000004                                   : xlocale.obj (.data:_ZNSt9_FacetptrISt10moneypunctIcLb1EEE6_PsaveE)
                  20006a2c    00000004                                   : wlocale.obj (.data:_ZNSt9_FacetptrISt10moneypunctIwLb0EEE6_PsaveE)
                  20006a30    00000004                                   : wlocale.obj (.data:_ZNSt9_FacetptrISt10moneypunctIwLb1EEE6_PsaveE)
                  20006a34    00000004     PID.obj (.data:_ZNSt9_FacetptrISt5ctypeIcEE6_PsaveE)
                  20006a38    00000004     rtsv7M4_T_le_v4SPD16_eabi.lib : wiostrea.obj (.data:_ZNSt9_FacetptrISt5ctypeIwEE6_PsaveE)
                  20006a3c    00000004                                   : iostream.obj (.data:_ZNSt9_FacetptrISt7codecvtIcciEE6_PsaveE)
                  20006a40    00000004                                   : wiostrea.obj (.data:_ZNSt9_FacetptrISt7codecvtIwciEE6_PsaveE)
                  20006a44    00000004                                   : xlocale.obj (.data:_ZNSt9_FacetptrISt7collateIcEE6_PsaveE)
                  20006a48    00000004                                   : wlocale.obj (.data:_ZNSt9_FacetptrISt7collateIwEE6_PsaveE)
                  20006a4c    00000004                                   : locale.obj (.data:_ZNSt9_FacetptrISt7num_getIcSt19istreambuf_iteratorIcSt11char_traitsIcEEEE6_PsaveE)
                  20006a50    00000004                                   : wlocale.obj (.data:_ZNSt9_FacetptrISt7num_getIwSt19istreambuf_iteratorIwSt11char_traitsIwEEEE6_PsaveE)
                  20006a54    00000004     PID.obj (.data:_ZNSt9_FacetptrISt7num_putIcSt19ostreambuf_iteratorIcSt11char_traitsIcEEEE6_PsaveE)
                  20006a58    00000004     rtsv7M4_T_le_v4SPD16_eabi.lib : wlocale.obj (.data:_ZNSt9_FacetptrISt7num_putIwSt19ostreambuf_iteratorIwSt11char_traitsIwEEEE6_PsaveE)
                  20006a5c    00000004                                   : xlocale.obj (.data:_ZNSt9_FacetptrISt8messagesIcEE6_PsaveE)
                  20006a60    00000004                                   : wlocale.obj (.data:_ZNSt9_FacetptrISt8messagesIwEE6_PsaveE)
                  20006a64    00000004     PID.obj (.data:_ZNSt9_FacetptrISt8numpunctIcEE6_PsaveE)
                  20006a68    00000004     rtsv7M4_T_le_v4SPD16_eabi.lib : wlocale.obj (.data:_ZNSt9_FacetptrISt8numpunctIwEE6_PsaveE)
                  20006a6c    00000004                                   : xlocale.obj (.data:_ZNSt9_FacetptrISt8time_getIcSt19istreambuf_iteratorIcSt11char_traitsIcEEEE6_PsaveE)
                  20006a70    00000004                                   : wlocale.obj (.data:_ZNSt9_FacetptrISt8time_getIwSt19istreambuf_iteratorIwSt11char_traitsIwEEEE6_PsaveE)
                  20006a74    00000004                                   : xlocale.obj (.data:_ZNSt9_FacetptrISt8time_putIcSt19ostreambuf_iteratorIcSt11char_traitsIcEEEE6_PsaveE)
                  20006a78    00000004                                   : wlocale.obj (.data:_ZNSt9_FacetptrISt8time_putIwSt19ostreambuf_iteratorIwSt11char_traitsIwEEEE6_PsaveE)
                  20006a7c    00000004                                   : xlocale.obj (.data:_ZNSt9_FacetptrISt9money_getIcSt19istreambuf_iteratorIcSt11char_traitsIcEEEE6_PsaveE)
                  20006a80    00000004                                   : wlocale.obj (.data:_ZNSt9_FacetptrISt9money_getIwSt19istreambuf_iteratorIwSt11char_traitsIwEEEE6_PsaveE)
                  20006a84    00000004                                   : xlocale.obj (.data:_ZNSt9_FacetptrISt9money_putIcSt19ostreambuf_iteratorIcSt11char_traitsIcEEEE6_PsaveE)
                  20006a88    00000004                                   : wlocale.obj (.data:_ZNSt9_FacetptrISt9money_putIwSt19ostreambuf_iteratorIwSt11char_traitsIwEEEE6_PsaveE)
                  20006a8c    00000004                                   : dtor_list.obj (.data)
                  20006a90    00000004                                   : errno.obj (.data)
                  20006a94    00000004                                   : fopen.obj (.data)
                  20006a98    00000004                                   : raisehan.obj (.data)
                  20006a9c    00000004                                   : stkdepth_vars.obj (.data)
                  20006aa0    00000004                                   : vars.obj (.data)

.bss       0    20006aa4    00000390     UNINITIALIZED
                  20006aa4    00000120     rtsv7M4_T_le_v4SPD16_eabi.lib : trgmsg.obj (.bss:__CIOBUF_)
                  20006bc4    000000a0                                   : defs.obj (.bss:__TI_tmpnams)
                  20006c64    00000054     Overseer.obj (.bss:OverseerSPIMaster1)
                  20006cb8    00000054     Overseer.obj (.bss:OverseerSPIMaster2)
                  20006d0c    0000000c     (.common:tstr_out)
                  20006d18    00000008     rtsv7M4_T_le_v4SPD16_eabi.lib : locale.obj (.bss)
                  20006d20    00000008     (.common:parmbuf)
                  20006d28    00000004                                   : xlocale.obj (.bss:_ZGVNSt10moneypunctIcLb0EE2idE)
                  20006d2c    00000004                                   : xlocale.obj (.bss:_ZGVNSt10moneypunctIcLb1EE2idE)
                  20006d30    00000004                                   : wlocale.obj (.bss:_ZGVNSt10moneypunctIwLb0EE2idE)
                  20006d34    00000004                                   : wlocale.obj (.bss:_ZGVNSt10moneypunctIwLb1EE2idE)
                  20006d38    00000004                                   : iostream.obj (.bss:_ZGVNSt7codecvtIcciE2idE)
                  20006d3c    00000004                                   : xlocale.obj (.bss:_ZGVNSt7collateIcE2idE)
                  20006d40    00000004                                   : wlocale.obj (.bss:_ZGVNSt7collateIwE2idE)
                  20006d44    00000004                                   : locale.obj (.bss:_ZGVNSt7num_getIcSt19istreambuf_iteratorIcSt11char_traitsIcEEE2idE)
                  20006d48    00000004                                   : wlocale.obj (.bss:_ZGVNSt7num_getIwSt19istreambuf_iteratorIwSt11char_traitsIwEEE2idE)
                  20006d4c    00000004     PID.obj (.bss:_ZGVNSt7num_putIcSt19ostreambuf_iteratorIcSt11char_traitsIcEEE2idE)
                  20006d50    00000004     rtsv7M4_T_le_v4SPD16_eabi.lib : wlocale.obj (.bss:_ZGVNSt7num_putIwSt19ostreambuf_iteratorIwSt11char_traitsIwEEE2idE)
                  20006d54    00000004                                   : xlocale.obj (.bss:_ZGVNSt8messagesIcE2idE)
                  20006d58    00000004                                   : wlocale.obj (.bss:_ZGVNSt8messagesIwE2idE)
                  20006d5c    00000004     PID.obj (.bss:_ZGVNSt8numpunctIcE2idE)
                  20006d60    00000004     rtsv7M4_T_le_v4SPD16_eabi.lib : wlocale.obj (.bss:_ZGVNSt8numpunctIwE2idE)
                  20006d64    00000004                                   : xlocale.obj (.bss:_ZGVNSt8time_getIcSt19istreambuf_iteratorIcSt11char_traitsIcEEE2idE)
                  20006d68    00000004                                   : wlocale.obj (.bss:_ZGVNSt8time_getIwSt19istreambuf_iteratorIwSt11char_traitsIwEEE2idE)
                  20006d6c    00000004                                   : xlocale.obj (.bss:_ZGVNSt8time_putIcSt19ostreambuf_iteratorIcSt11char_traitsIcEEE2idE)
                  20006d70    00000004                                   : xlocale.obj (.bss:_ZGVNSt9money_getIcSt19istreambuf_iteratorIcSt11char_traitsIcEEE2idE)
                  20006d74    00000004                                   : wlocale.obj (.bss:_ZGVNSt9money_getIwSt19istreambuf_iteratorIwSt11char_traitsIwEEE2idE)
                  20006d78    00000004                                   : xlocale.obj (.bss:_ZGVNSt9money_putIcSt19ostreambuf_iteratorIcSt11char_traitsIcEEE2idE)
                  20006d7c    00000004                                   : wlocale.obj (.bss:_ZGVNSt9money_putIwSt19ostreambuf_iteratorIwSt11char_traitsIwEEE2idE)
                  20006d80    00000004                                   : xlocale.obj (.bss:_ZNSt10moneypunctIcLb0EE2idE)
                  20006d84    00000004                                   : xlocale.obj (.bss:_ZNSt10moneypunctIcLb1EE2idE)
                  20006d88    00000004                                   : wlocale.obj (.bss:_ZNSt10moneypunctIwLb0EE2idE)
                  20006d8c    00000004                                   : wlocale.obj (.bss:_ZNSt10moneypunctIwLb1EE2idE)
                  20006d90    00000004                                   : iostream.obj (.bss:_ZNSt13basic_filebufIcSt11char_traitsIcEE7_StinitE)
                  20006d94    00000004                                   : wiostrea.obj (.bss:_ZNSt13basic_filebufIwSt11char_traitsIwEE7_StinitE)
                  20006d98    00000004     EigenTest.obj (.bss:_ZNSt4fposIiE4_StzE)
                  20006d9c    00000004     rtsv7M4_T_le_v4SPD16_eabi.lib : iostream.obj (.bss:_ZNSt7codecvtIcciE2idE)
                  20006da0    00000004                                   : xlocale.obj (.bss:_ZNSt7collateIcE2idE)
                  20006da4    00000004                                   : wlocale.obj (.bss:_ZNSt7collateIwE2idE)
                  20006da8    00000004                                   : locale.obj (.bss:_ZNSt7num_getIcSt19istreambuf_iteratorIcSt11char_traitsIcEEE2idE)
                  20006dac    00000004                                   : wlocale.obj (.bss:_ZNSt7num_getIwSt19istreambuf_iteratorIwSt11char_traitsIwEEE2idE)
                  20006db0    00000004     PID.obj (.bss:_ZNSt7num_putIcSt19ostreambuf_iteratorIcSt11char_traitsIcEEE2idE)
                  20006db4    00000004     rtsv7M4_T_le_v4SPD16_eabi.lib : wlocale.obj (.bss:_ZNSt7num_putIwSt19ostreambuf_iteratorIwSt11char_traitsIwEEE2idE)
                  20006db8    00000004                                   : xlocale.obj (.bss:_ZNSt8messagesIcE2idE)
                  20006dbc    00000004                                   : wlocale.obj (.bss:_ZNSt8messagesIwE2idE)
                  20006dc0    00000004     PID.obj (.bss:_ZNSt8numpunctIcE2idE)
                  20006dc4    00000004     rtsv7M4_T_le_v4SPD16_eabi.lib : wlocale.obj (.bss:_ZNSt8numpunctIwE2idE)
                  20006dc8    00000004                                   : xlocale.obj (.bss:_ZNSt8time_getIcSt19istreambuf_iteratorIcSt11char_traitsIcEEE2idE)
                  20006dcc    00000004                                   : wlocale.obj (.bss:_ZNSt8time_getIwSt19istreambuf_iteratorIwSt11char_traitsIwEEE2idE)
                  20006dd0    00000004                                   : xlocale.obj (.bss:_ZNSt8time_putIcSt19ostreambuf_iteratorIcSt11char_traitsIcEEE2idE)
                  20006dd4    00000004                                   : wlocale.obj (.bss:_ZNSt8time_putIwSt19ostreambuf_iteratorIwSt11char_traitsIwEEE2idE)
                  20006dd8    00000004                                   : xlocale.obj (.bss:_ZNSt9money_getIcSt19istreambuf_iteratorIcSt11char_traitsIcEEE2idE)
                  20006ddc    00000004                                   : wlocale.obj (.bss:_ZNSt9money_getIwSt19istreambuf_iteratorIwSt11char_traitsIwEEE2idE)
                  20006de0    00000004                                   : xlocale.obj (.bss:_ZNSt9money_putIcSt19ostreambuf_iteratorIcSt11char_traitsIcEEE2idE)
                  20006de4    00000004                                   : wlocale.obj (.bss:_ZNSt9money_putIwSt19ostreambuf_iteratorIwSt11char_traitsIwEEE2idE)
                  20006de8    00000004                                   : wlocale.obj (.bss)
                  20006dec    00000004     (.common:IC0)
                  20006df0    00000004     (.common:IC1)
                  20006df4    00000004     (.common:IC2)
                  20006df8    00000004     (.common:IC3)
                  20006dfc    00000004     (.common:IC4)
                  20006e00    00000004     (.common:IC5)
                  20006e04    00000004     (.common:IC6)
                  20006e08    00000004     (.common:IC7)
                  20006e0c    00000004     (.common:SPISlave0)
                  20006e10    00000004     (.common:Timer)
                  20006e14    00000004     (.common:_ZSt16__dummy_typeinfo)
                  20006e18    00000004     (.common:__dso_handle)
                  20006e1c    00000002     AHRS.obj (.bss)
                  20006e1e    00000002     ArbitratorClass.obj (.bss)
                  20006e20    00000002     Control.obj (.bss)
                  20006e22    00000002     EigenTest.obj (.bss)
                  20006e24    00000002     ExtendedKalman.obj (.bss)
                  20006e26    00000002     GPTimer.obj (.bss)
                  20006e28    00000002     MPU9150Test.obj (.bss)
                  20006e2a    00000002     Overseer.obj (.bss)
                  20006e2c    00000002     PID.obj (.bss)
                  20006e2e    00000002     PrintfTest.obj (.bss)
                  20006e30    00000002     StandaloneCopter.obj (.bss)
                  20006e32    00000002     rtsv7M4_T_le_v4SPD16_eabi.lib : wiostrea.obj (.bss)


LINKER GENERATED COPY TABLES

__TI_cinit_table @ 0002e140 records: 3, size/record: 8, table size: 24
	.data: load addr=0002e000, load size=00000121 bytes, run addr=20006270, run size=00000834 bytes, compression=rle
	.bss: load addr=0002e130, load size=00000008 bytes, run addr=20006aa4, run size=00000390 bytes, compression=zero_init
	.vtable: load addr=0002e138, load size=00000008 bytes, run addr=20000000, run size=0000026c bytes, compression=zero_init


LINKER GENERATED HANDLER TABLE

__TI_handler_table @ 0002e124 records: 3, size/record: 4, table size: 12
	index: 0, handler: __TI_zero_init
	index: 1, handler: __TI_decompress_rle24
	index: 2, handler: __TI_decompress_none


GLOBAL SYMBOLS: SORTED ALPHABETICALLY BY Name 

address    name
--------   ----
00020cb9   C$$EXIT
0001e4a7   C$$IO$$
2000698c   C_locale
0001e655   GPIODirModeSet
0001294d   GPIOPadConfigSet
0001dd25   GPIOPinConfigure
00028167   GPIOPinRead
0002429b   GPIOPinTypeGPIOInput
000242bf   GPIOPinTypeGPIOOutput
000242e3   GPIOPinTypeI2C
00024307   GPIOPinTypeI2CSCL
0002432b   GPIOPinTypeSSI
0002434f   GPIOPinTypeTimer
00024b81   GPIOPinWrite
00010ef1   HOSTclock
00010eb9   HOSTclose
00010e7b   HOSTgetenv
00010e1f   HOSTlseek
00010dcd   HOSTopen
00010d81   HOSTread
00010d23   HOSTrename
00010ce9   HOSTtime
00010cb1   HOSTunlink
00010c65   HOSTwrite
0002817f   I2CMasterBusy
00028f9d   I2CMasterControl
00029bf1   I2CMasterDataGet
000284e1   I2CMasterDataPut
000284f7   I2CMasterEnable
0001ce0d   I2CMasterInitExpClk
000249a5   I2CMasterSlaveAddrSet
20006dec   IC0
20006df0   IC1
20006df4   IC2
20006df8   IC3
20006dfc   IC4
20006e00   IC5
20006e04   IC6
20006e08   IC7
0001d0a1   IntEnable
0001ebf9   IntPrioritySet
0001e6b1   IntRegister
20006c64   OverseerSPIMaster1
20006cb8   OverseerSPIMaster2
0002b239   ResetISR
0002dfb8   SHT$$INIT_ARRAY$$Base
0002dffc   SHT$$INIT_ARRAY$$Limit
20006e0c   SPISlave0
0001c9bf   SSIConfigSetExpClk
00025c07   SSIDataGet
000249c7   SSIDataGetNonBlocking
000265e1   SSIDataPut
00024ba1   SSIDataPutNonBlocking
0002850d   SSIEnable
00028faf   SSIIntClear
00028197   SSIIntDisable
000281af   SSIIntEnable
00025121   SSIIntRegister
0002513f   SSIIntStatus
00014521   SysCtlClockGet
000148ed   SysCtlClockSet
0002b49b   SysCtlDelay
00021121   SysCtlPeripheralEnable
0001ca4d   SysCtlPeripheralReset
20006e10   Timer
0001cad9   TimerConfigure
00023349   TimerControlEvent
0002515d   TimerDisable
0002517b   TimerEnable
00028fc1   TimerIntClear
000281c7   TimerIntDisable
000281df   TimerIntEnable
000236bb   TimerIntRegister
00025199   TimerIntStatus
00023373   TimerLoadSet
0002339d   TimerMatchSet
000233c7   TimerPrescaleMatchSet
000233f1   TimerPrescaleSet
00025c23   TimerValueGet
0002b597   _Atexit
000292fd   _Dclass
0000a471   _Deletegloballocale
20006850   _Denorm
000197ff   _Dnorm
0001848d   _Dscale
00020cfd   _Dtest
0001e0b5   _Dunscale
20006860   _Eps
20006a90   _Errno
0001abcd   _FAtan
200068d0   _FDenorm
0001d589   _FDnorm
000228ed   _FDtest
0002029d   _FDunscale
200068e0   _FEps
200068f0   _FInf
00016669   _FLog
20006900   _FNan
20006920   _FRteps
20006910   _FSnan
20006930   _FXbig
20006934   _FZero
0000a443   _Fac_tidy
20006a1c   _Fenv
00022ddd   _Feraise
0001a5a9   _Getctyptab
0000a61f   _Getgloballocale
20006870   _Hugeval
20006880   _Inf
0001069d   _Log
20006890   _Nan
200068b0   _Rteps
0000a6b5   _Setgloballocale
200068a0   _Snan
0001bde7   _Stodx
0001be1d   _Stofx
0001bdb1   _Stoldx
0001bdad   _Stollx
0001bda9   _Stolx
0001bda5   _Stoullx
0001bda1   _Stoulx
20006a20   _Tls_setup__Fenv
200068c0   _Xbig
00022a1b   _Z21__default_new_handlerv
20006d28   _ZGVNSt10moneypunctIcLb0EE2idE
20006d2c   _ZGVNSt10moneypunctIcLb1EE2idE
20006d30   _ZGVNSt10moneypunctIwLb0EE2idE
20006d34   _ZGVNSt10moneypunctIwLb1EE2idE
20006d38   _ZGVNSt7codecvtIcciE2idE
20006d3c   _ZGVNSt7collateIcE2idE
20006d40   _ZGVNSt7collateIwE2idE
20006d44   _ZGVNSt7num_getIcSt19istreambuf_iteratorIcSt11char_traitsIcEEE2idE
20006d48   _ZGVNSt7num_getIwSt19istreambuf_iteratorIwSt11char_traitsIwEEE2idE
20006d4c   _ZGVNSt7num_putIcSt19ostreambuf_iteratorIcSt11char_traitsIcEEE2idE
20006d50   _ZGVNSt7num_putIwSt19ostreambuf_iteratorIwSt11char_traitsIwEEE2idE
20006d54   _ZGVNSt8messagesIcE2idE
20006d58   _ZGVNSt8messagesIwE2idE
20006d5c   _ZGVNSt8numpunctIcE2idE
20006d60   _ZGVNSt8numpunctIwE2idE
20006d64   _ZGVNSt8time_getIcSt19istreambuf_iteratorIcSt11char_traitsIcEEE2idE
20006d68   _ZGVNSt8time_getIwSt19istreambuf_iteratorIwSt11char_traitsIwEEE2idE
20006d6c   _ZGVNSt8time_putIcSt19ostreambuf_iteratorIcSt11char_traitsIcEEE2idE
20006d70   _ZGVNSt9money_getIcSt19istreambuf_iteratorIcSt11char_traitsIcEEE2idE
20006d74   _ZGVNSt9money_getIwSt19istreambuf_iteratorIwSt11char_traitsIwEEE2idE
20006d78   _ZGVNSt9money_putIcSt19ostreambuf_iteratorIcSt11char_traitsIcEEE2idE
20006d7c   _ZGVNSt9money_putIwSt19ostreambuf_iteratorIwSt11char_traitsIwEEE2idE
00019bb1   _ZN10__cxxabiv116__enum_type_infoD0Ev
00019baf   _ZN10__cxxabiv116__enum_type_infoD1Ev
00019baf   _ZN10__cxxabiv116__enum_type_infoD2Ev
00019ba7   _ZN10__cxxabiv117__array_type_infoD0Ev
00019ba5   _ZN10__cxxabiv117__array_type_infoD1Ev
00019ba5   _ZN10__cxxabiv117__array_type_infoD2Ev
00019b9d   _ZN10__cxxabiv117__class_type_infoD0Ev
00019b9b   _ZN10__cxxabiv117__class_type_infoD1Ev
00019b9b   _ZN10__cxxabiv117__class_type_infoD2Ev
00019b93   _ZN10__cxxabiv117__pbase_type_infoD0Ev
00019b91   _ZN10__cxxabiv117__pbase_type_infoD1Ev
00019b91   _ZN10__cxxabiv117__pbase_type_infoD2Ev
00019b89   _ZN10__cxxabiv119__pointer_type_infoD0Ev
00019b87   _ZN10__cxxabiv119__pointer_type_infoD1Ev
00019b87   _ZN10__cxxabiv119__pointer_type_infoD2Ev
00019b7f   _ZN10__cxxabiv120__function_type_infoD0Ev
00019b7d   _ZN10__cxxabiv120__function_type_infoD1Ev
00019b7d   _ZN10__cxxabiv120__function_type_infoD2Ev
00019b75   _ZN10__cxxabiv120__si_class_type_infoD0Ev
00019b73   _ZN10__cxxabiv120__si_class_type_infoD1Ev
00019b73   _ZN10__cxxabiv120__si_class_type_infoD2Ev
00019b6b   _ZN10__cxxabiv121__vmi_class_type_infoD0Ev
00019b69   _ZN10__cxxabiv121__vmi_class_type_infoD1Ev
00019b69   _ZN10__cxxabiv121__vmi_class_type_infoD2Ev
00019b61   _ZN10__cxxabiv123__fundamental_type_infoD0Ev
00019b5f   _ZN10__cxxabiv123__fundamental_type_infoD1Ev
00019b5f   _ZN10__cxxabiv123__fundamental_type_infoD2Ev
00019b57   _ZN10__cxxabiv129__pointer_to_member_type_infoD0Ev
00019b55   _ZN10__cxxabiv129__pointer_to_member_type_infoD1Ev
00019b55   _ZN10__cxxabiv129__pointer_to_member_type_infoD2Ev
00008b6f   _ZN12ControlClass10getRatePIDEv
00008b2b   _ZN12ControlClass10setRatePIDEfff
00008dd9   _ZN12ControlClass11rateControlEfffff
00008c15   _ZN12ControlClass13getYawRatePIDEv
00008be7   _ZN12ControlClass13setYawRatePIDEfff
00008c65   _ZN12ControlClass13updateControlEf
00008bcd   _ZN12ControlClass14getAttitudePIDEv
00008b89   _ZN12ControlClass14setAttitudePIDEfff
00008e6f   _ZN12ControlClass15attitudeControlEfffff
00008c25   _ZN12ControlClass21getSystemUpdateRateDtEv
00008c39   _ZN12ControlClass21setSystemUpdateRateDtEf
00008aa7   _ZN12ControlClass6enableEv
00008aff   _ZN12ControlClass6updateEf
00008aef   _ZN12ControlClass7disableEv
00008ee9   _ZN12ControlClass9updatePWMEffff
00008921   _ZN12ControlClassC1EP21StandaloneCopterClass
00008921   _ZN12ControlClassC2EP21StandaloneCopterClass
00008a91   _ZN12ControlClassD0Ev
00008a27   _ZN12ControlClassD1Ev
00008a27   _ZN12ControlClassD2Ev
000141a9   _ZN12GPTimerClass21getSystemUpdateRateDtEv
000141b9   _ZN12GPTimerClass21setSystemUpdateRateDtEf
000142ad   _ZN12GPTimerClass3ISREv
00014287   _ZN12GPTimerClass4stopEv
000141cf   _ZN12GPTimerClass5startEv
00028469   _ZN12GPTimerClass9ISRStaticEv
0001412d   _ZN12GPTimerClassC1EP12ControlClassP21StandaloneCopterClass
0001412d   _ZN12GPTimerClassC2EP12ControlClassP21StandaloneCopterClass
00014193   _ZN12GPTimerClassD0Ev
0001417d   _ZN12GPTimerClassD1Ev
0001417d   _ZN12GPTimerClassD2Ev
0000b761   _ZN12MPU9150Class12setGyroRangeEh
0000b7d5   _ZN12MPU9150Class13setAccelRangeEh
0000b8ef   _ZN12MPU9150Class14setClockSourceEh
0000b87d   _ZN12MPU9150Class14setSleepStatusEb
0000b55f   _ZN12MPU9150Class14testConnectionEv
0000b585   _ZN12MPU9150Class16getRawSensorDataEP12sensorData_sIsE
0000b843   _ZN12MPU9150Class17setI2CPassthroughEb
0000b62d   _ZN12MPU9150Class19getScaledSensorDataEP12sensorData_sIfE
0000b715   _ZN12MPU9150Class20setSampleRateDividerEh
0000b733   _ZN12MPU9150Class22setDLPFCornerFrequencyEh
0000b9c9   _ZN12MPU9150Class32getRawSensorDataDumpedOutToRPi_pEv
0000b9d9   _ZN12MPU9150Class32getRawSensorDataDumpedOutToRPi_qEv
0000b9e9   _ZN12MPU9150Class32getRawSensorDataDumpedOutToRPi_rEv
0000b989   _ZN12MPU9150Class32getRawSensorDataDumpedOutToRPi_xEv
0000b999   _ZN12MPU9150Class32getRawSensorDataDumpedOutToRPi_yEv
0000b9a9   _ZN12MPU9150Class32getRawSensorDataDumpedOutToRPi_zEv
0000b96d   _ZN12MPU9150Class33updateRawSensorDataDumpedOutToRPiEv
0000b9f9   _ZN12MPU9150Class35getRawSensorDataDumpedOutToRPi_magxEv
0000ba09   _ZN12MPU9150Class35getRawSensorDataDumpedOutToRPi_magyEv
0000ba19   _ZN12MPU9150Class35getRawSensorDataDumpedOutToRPi_magzEv
0000b9b9   _ZN12MPU9150Class35getRawSensorDataDumpedOutToRPi_tempEv
0000b919   _ZN12MPU9150Class5resetEv
0000b4b5   _ZN12MPU9150ClassC1Eb
0000b4b5   _ZN12MPU9150ClassC2Eb
0000b549   _ZN12MPU9150ClassD0Ev
0000b539   _ZN12MPU9150ClassD1Ev
0000b539   _ZN12MPU9150ClassD2Ev
00028481   _ZN13SPISlaveClass10ISR0StaticEv
0001150b   _ZN13SPISlaveClass10getMessageEP9message_s
00011627   _ZN13SPISlaveClass10initAsSSI0Ev
0001151d   _ZN13SPISlaveClass18updateReadResponseEhj
0000f099   _ZN13SPISlaveClass3ISREv
00011539   _ZN13SPISlaveClass4initEj
0001147d   _ZN13SPISlaveClassC1Ej
0001147d   _ZN13SPISlaveClassC2Ej
000114f5   _ZN13SPISlaveClassD0Ev
000114cb   _ZN13SPISlaveClassD1Ev
000114cb   _ZN13SPISlaveClassD2Ev
0000dc9d   _ZN14EigenTestClass13runEigenTestsEv
0000dc65   _ZN14EigenTestClassC1Ev
0000dc65   _ZN14EigenTestClassC2Ev
0000dc83   _ZN14EigenTestClassD0Ev
0000dc77   _ZN14EigenTestClassD1Ev
0000dc77   _ZN14EigenTestClassD2Ev
000109c7   _ZN14GPIOInputClass14getInputStatusEv
000109e3   _ZN14GPIOInputClass17configPeripheralsE9pinName_t
00010b9f   _ZN14GPIOInputClass9initAsAN0Ev
00010bbb   _ZN14GPIOInputClass9initAsAN1Ev
00010bd7   _ZN14GPIOInputClass9initAsAN2Ev
00010bf3   _ZN14GPIOInputClass9initAsAN3Ev
00010c0f   _ZN14GPIOInputClass9initAsAN4Ev
00010c2b   _ZN14GPIOInputClass9initAsAN5Ev
00010abf   _ZN14GPIOInputClass9initAsIC0Ev
00010adb   _ZN14GPIOInputClass9initAsIC1Ev
00010af7   _ZN14GPIOInputClass9initAsIC2Ev
00010b13   _ZN14GPIOInputClass9initAsIC3Ev
00010b2f   _ZN14GPIOInputClass9initAsIC4Ev
00010b4b   _ZN14GPIOInputClass9initAsIC5Ev
00010b67   _ZN14GPIOInputClass9initAsIC6Ev
00010b83   _ZN14GPIOInputClass9initAsIC7Ev
00010989   _ZN14GPIOInputClassC1E9pinName_t
00010989   _ZN14GPIOInputClassC2E9pinName_t
000109b1   _ZN14GPIOInputClassD0Ev
000109a5   _ZN14GPIOInputClassD1Ev
000109a5   _ZN14GPIOInputClassD2Ev
0000f653   _ZN14SPIMasterClass10initAsSPI1Ev
0000f6a9   _ZN14SPIMasterClass10initAsSPI2Ev
0000f4fd   _ZN14SPIMasterClass11sendMessageEhPjj
0000f443   _ZN14SPIMasterClass17configPeripheralsEj
0000f587   _ZN14SPIMasterClass7getDataEhPjj
0000f61b   _ZN14SPIMasterClass9sendBytesEPhj
0000f409   _ZN14SPIMasterClassC1Ej
0000f409   _ZN14SPIMasterClassC2Ej
0000f42d   _ZN14SPIMasterClassD0Ev
0000f421   _ZN14SPIMasterClassD1Ev
0000f421   _ZN14SPIMasterClassD2Ev
0001594f   _ZN15ArbitratorClass13setCopterModeE12copterMode_t
00015a31   _ZN15ArbitratorClass35getUpdateRateInStandaloneCopterModeEv
00015a5b   _ZN15ArbitratorClass35setUpdateRateInStandaloneCopterModeEf
00015965   _ZN15ArbitratorClass5startEv
00015905   _ZN15ArbitratorClassC1Ev
00015905   _ZN15ArbitratorClassC2Ev
00015939   _ZN15ArbitratorClassD0Ev
0001592d   _ZN15ArbitratorClassD1Ev
0001592d   _ZN15ArbitratorClassD2Ev
000103fd   _ZN15GPIOOutputClass14setOutputStateEb
0001041d   _ZN15GPIOOutputClass17configPeripheralsE9pinName_t
000105d7   _ZN15GPIOOutputClass9initAsAN0Ev
000105f3   _ZN15GPIOOutputClass9initAsAN1Ev
0001060f   _ZN15GPIOOutputClass9initAsAN2Ev
0001062b   _ZN15GPIOOutputClass9initAsAN3Ev
00010647   _ZN15GPIOOutputClass9initAsAN4Ev
00010663   _ZN15GPIOOutputClass9initAsAN5Ev
000104f7   _ZN15GPIOOutputClass9initAsIC0Ev
00010513   _ZN15GPIOOutputClass9initAsIC1Ev
0001052f   _ZN15GPIOOutputClass9initAsIC2Ev
0001054b   _ZN15GPIOOutputClass9initAsIC3Ev
00010567   _ZN15GPIOOutputClass9initAsIC4Ev
00010583   _ZN15GPIOOutputClass9initAsIC5Ev
0001059f   _ZN15GPIOOutputClass9initAsIC6Ev
000105bb   _ZN15GPIOOutputClass9initAsIC7Ev
000103ad   _ZN15GPIOOutputClassC1E9pinName_t
000103ad   _ZN15GPIOOutputClassC2E9pinName_t
000103e7   _ZN15GPIOOutputClassD0Ev
000103d1   _ZN15GPIOOutputClassD1Ev
000103d1   _ZN15GPIOOutputClassD2Ev
0000bfed   _ZN15PrintfTestClass18VariableStringTestEv
0000c121   _ZN15PrintfTestClass32ConstStringTest_LastMethodIsCoutEv
0000c0cb   _ZN15PrintfTestClass35ConstStringTest_LastMethodIsNotCoutEv
0000bfb9   _ZN15PrintfTestClassC1Ev
0000bfb9   _ZN15PrintfTestClassC2Ev
0000bfd7   _ZN15PrintfTestClassD0Ev
0000bfcb   _ZN15PrintfTestClassD1Ev
0000bfcb   _ZN15PrintfTestClassD2Ev
000189f5   _ZN15QuaternionClass9normaliseEv
000189bf   _ZN15QuaternionClassC1ERKS_
000189ad   _ZN15QuaternionClassC1Ev
000189bf   _ZN15QuaternionClassC2ERKS_
000189ad   _ZN15QuaternionClassC2Ev
000189df   _ZN15QuaternionClassD0Ev
000189d3   _ZN15QuaternionClassD1Ev
000189d3   _ZN15QuaternionClassD2Ev
0001e119   _ZN15RingBufferClassI9message_sE3popEPS0_
0001d7e1   _ZN15RingBufferClassI9message_sE4pushES0_
00022a1d   _ZN15RingBufferClassI9message_sEC1Ev
00028523   _ZN15RingBufferClassI9message_sED0Ev
0002a487   _ZN15RingBufferClassI9message_sED1Ev
0002077b   _ZN15RingBufferClassIhE13returnToQueueEh
00020b63   _ZN15RingBufferClassIhE3popEPh
000207c3   _ZN15RingBufferClassIhE4pushEh
000236e5   _ZN15RingBufferClassIhEC1Ev
00028539   _ZN15RingBufferClassIhED0Ev
0002a493   _ZN15RingBufferClassIhED1Ev
00007399   _ZN16MPU9150TestClass12printRawDataEv
00007729   _ZN16MPU9150TestClass21printScaledSensorDataEv
000071ed   _ZN16MPU9150TestClassC1Ev
000071ed   _ZN16MPU9150TestClassC2Ev
00007351   _ZN16MPU9150TestClassD0Ev
00007341   _ZN16MPU9150TestClassD1Ev
00007341   _ZN16MPU9150TestClassD2Ev
00018fb9   _ZN16MerayoCalibClass5applyEPfS0_S0_P17calibrationData_s
00018f85   _ZN16MerayoCalibClassC1Ev
00018f85   _ZN16MerayoCalibClassC2Ev
00018fa3   _ZN16MerayoCalibClassD0Ev
00018f97   _ZN16MerayoCalibClassD1Ev
00018f97   _ZN16MerayoCalibClassD2Ev
0001340f   _ZN16RXInterfaceClass11getThrottleEv
0001342f   _ZN16RXInterfaceClass6getSw1Ev
0001343f   _ZN16RXInterfaceClass6getSw2Ev
0001341f   _ZN16RXInterfaceClass6getYawEv
000132b5   _ZN16RXInterfaceClass6updateEv
000133ff   _ZN16RXInterfaceClass7getRollEv
000133ef   _ZN16RXInterfaceClass8getPitchEv
00020435   _ZN16RXInterfaceClass9constrainEPff
00013235   _ZN16RXInterfaceClassC1EP23OptimusPiInterfaceClass
00013235   _ZN16RXInterfaceClassC2EP23OptimusPiInterfaceClass
0001329f   _ZN16RXInterfaceClassD0Ev
00013293   _ZN16RXInterfaceClassD1Ev
00013293   _ZN16RXInterfaceClassD2Ev
00017b99   _ZN17InputCaptureClass10ISR0StaticEv
00017bab   _ZN17InputCaptureClass10ISR1StaticEv
00017bbd   _ZN17InputCaptureClass10ISR2StaticEv
00017bcf   _ZN17InputCaptureClass10ISR3StaticEv
00017be1   _ZN17InputCaptureClass10ISR4StaticEv
00017bf3   _ZN17InputCaptureClass10ISR5StaticEv
00017c05   _ZN17InputCaptureClass10ISR6StaticEv
00017c17   _ZN17InputCaptureClass10ISR7StaticEv
000070a1   _ZN17InputCaptureClass10timeoutISREv
00007039   _ZN17InputCaptureClass12resetTimeoutEv
00006a51   _ZN17InputCaptureClass17configPeripheralsE9pinName_t
00017b09   _ZN17InputCaptureClass17timeoutISR0StaticEv
00017b1b   _ZN17InputCaptureClass17timeoutISR1StaticEv
00017b2d   _ZN17InputCaptureClass17timeoutISR2StaticEv
00017b3f   _ZN17InputCaptureClass17timeoutISR3StaticEv
00017b51   _ZN17InputCaptureClass17timeoutISR4StaticEv
00017b63   _ZN17InputCaptureClass17timeoutISR5StaticEv
00017b75   _ZN17InputCaptureClass17timeoutISR6StaticEv
00017b87   _ZN17InputCaptureClass17timeoutISR7StaticEv
00007119   _ZN17InputCaptureClass3ISREv
000069d7   _ZN17InputCaptureClass9getPeriodEv
00006ce9   _ZN17InputCaptureClass9initAsIC0Ev
00006d41   _ZN17InputCaptureClass9initAsIC1Ev
00006d9f   _ZN17InputCaptureClass9initAsIC2Ev
00006e05   _ZN17InputCaptureClass9initAsIC3Ev
00006e79   _ZN17InputCaptureClass9initAsIC4Ev
00006eed   _ZN17InputCaptureClass9initAsIC5Ev
00006f5d   _ZN17InputCaptureClass9initAsIC6Ev
00006fd1   _ZN17InputCaptureClass9initAsIC7Ev
00006925   _ZN17InputCaptureClassC1E9pinName_t
00006925   _ZN17InputCaptureClassC2E9pinName_t
000069c1   _ZN17InputCaptureClassD0Ev
0000696b   _ZN17InputCaptureClassD1Ev
0000696b   _ZN17InputCaptureClassD2Ev
00002345   _ZN18MessageParserClass12getDirectionEh
00002369   _ZN18MessageParserClass15getReadResponseEh
0000231f   _ZN18MessageParserClass17getNumberOfParamsEh
0000238d   _ZN18MessageParserClass18updateReadResponseEhj
00001509   _ZN18MessageParserClassC1Ev
00001509   _ZN18MessageParserClassC2Ev
00002309   _ZN18MessageParserClassD0Ev
000022f3   _ZN18MessageParserClassD1Ev
000022f3   _ZN18MessageParserClassD2Ev
0000fd8f   _ZN18PinControllerClass17getGPIOInputStateEv
0000fd6f   _ZN18PinControllerClass18setGPIOOutputStateEb
0000fd55   _ZN18PinControllerClass20getInputCaptureWidthEv
0000fb75   _ZN18PinControllerClass6configE9pinType_t
0000fa89   _ZN18PinControllerClassC1E9pinName_t
0000fabf   _ZN18PinControllerClassC1E9pinName_t9pinType_t
0000fa89   _ZN18PinControllerClassC2E9pinName_t
0000fabf   _ZN18PinControllerClassC2E9pinName_t9pinType_t
0000fb5b   _ZN18PinControllerClassD0Ev
0000faff   _ZN18PinControllerClassD1Ev
0000faff   _ZN18PinControllerClassD2Ev
00000e29   _ZN19ExtendedKalmanClass6updateEffffP15QuaternionClass
00000541   _ZN19ExtendedKalmanClass7predictEffffP15QuaternionClass
0000026d   _ZN19ExtendedKalmanClassC1Ev
0000026d   _ZN19ExtendedKalmanClassC2Ev
00000517   _ZN19ExtendedKalmanClassD0Ev
0000050b   _ZN19ExtendedKalmanClassD1Ev
0000050b   _ZN19ExtendedKalmanClassD2Ev
0001606f   _ZN19MotorInterfaceClass10startMotorE7motor_t
00016113   _ZN19MotorInterfaceClass13setMotorPowerE7motor_tj
000160c1   _ZN19MotorInterfaceClass9stopMotorE7motor_t
00015fdd   _ZN19MotorInterfaceClassC1EP23OptimusPiInterfaceClass
00015fdd   _ZN19MotorInterfaceClassC2EP23OptimusPiInterfaceClass
00016059   _ZN19MotorInterfaceClassD0Ev
00016023   _ZN19MotorInterfaceClassD1Ev
00016023   _ZN19MotorInterfaceClassD2Ev
00016e65   _ZN20MotorControllerClass4stopEv
00016e39   _ZN20MotorControllerClass5startEv
00016df3   _ZN20MotorControllerClass6configE19motorChannelState_t
00016ebf   _ZN20MotorControllerClass7runningEv
00016e91   _ZN20MotorControllerClass8setPowerEj
00016d99   _ZN20MotorControllerClassC1Ej
00016d99   _ZN20MotorControllerClassC2Ej
00016ddd   _ZN20MotorControllerClassD0Ev
00016dc9   _ZN20MotorControllerClassD1Ev
00016dc9   _ZN20MotorControllerClassD2Ev
00016f81   _ZN21StandaloneCopterClass15checkModeStatusEv
00017001   _ZN21StandaloneCopterClass21getSystemUpdateRateDtEv
00017013   _ZN21StandaloneCopterClass21setSystemUpdateRateDtEf
00016fb1   _ZN21StandaloneCopterClass26setRPiControlledCopterModeEv
00016fe3   _ZN21StandaloneCopterClass28clearRPiControlledCopterModeEv
00016fc5   _ZN21StandaloneCopterClass35isSwitchedToRPiControlledCopterModeEv
00016ff7   _ZN21StandaloneCopterClass7runningEv
00016f01   _ZN21StandaloneCopterClassC1Ev
00016f01   _ZN21StandaloneCopterClassC2Ev
00016f6b   _ZN21StandaloneCopterClassD0Ev
00016f3d   _ZN21StandaloneCopterClassD1Ev
00016f3d   _ZN21StandaloneCopterClassD2Ev
00016339   _ZN23OptimusPiInterfaceClassC1Ev
00016339   _ZN23OptimusPiInterfaceClassC2Ev
000164b9   _ZN23OptimusPiInterfaceClassD0Ev
0001640f   _ZN23OptimusPiInterfaceClassD1Ev
0001640f   _ZN23OptimusPiInterfaceClassD2Ev
00004583   _ZN24RPiControlledCopterClass17emptyMessageQueueEv
00004275   _ZN24RPiControlledCopterClass17updateReadBuffersEv
00004229   _ZN24RPiControlledCopterClass32isSwitchedToStandaloneCopterModeEv
00004247   _ZN24RPiControlledCopterClass33setSwitchedToStandaloneCopterModeEv
0000425b   _ZN24RPiControlledCopterClass35clearSwitchedToStandaloneCopterModeEv
00004cad   _ZN24RPiControlledCopterClass7runningEv
000041c9   _ZN24RPiControlledCopterClassC1Ev
000041c9   _ZN24RPiControlledCopterClassC2Ev
00004213   _ZN24RPiControlledCopterClassD0Ev
000041f7   _ZN24RPiControlledCopterClassD1Ev
000041f7   _ZN24RPiControlledCopterClassD2Ev
00029bff   _ZN5Eigen10MatrixBaseINS_12CwiseUnaryOpINS_8internal18scalar_multiple_opIfEEKNS_6MatrixIfLi3ELi1ELi0ELi3ELi1EEEEEEC1Ev
0002a49f   _ZN5Eigen10MatrixBaseINS_12CwiseUnaryOpINS_8internal18scalar_multiple_opIfEEKNS_6MatrixIfLi3ELi1ELi0ELi3ELi1EEEEEEC2Ev
00029c0d   _ZN5Eigen10MatrixBaseINS_13CwiseBinaryOpINS_8internal13scalar_sum_opIfEEKNS_17CoeffBasedProductIRKNS_6MatrixIfLi3ELi7ELi0ELi3ELi7EEEKNS_9TransposeIS7_EELi6EEEKNS6_IfLi3ELi3ELi0ELi3ELi3EEEEEEC1Ev
0002a4ab   _ZN5Eigen10MatrixBaseINS_13CwiseBinaryOpINS_8internal13scalar_sum_opIfEEKNS_17CoeffBasedProductIRKNS_6MatrixIfLi3ELi7ELi0ELi3ELi7EEEKNS_9TransposeIS7_EELi6EEEKNS6_IfLi3ELi3ELi0ELi3ELi3EEEEEEC2Ev
00029c1b   _ZN5Eigen10MatrixBaseINS_13CwiseBinaryOpINS_8internal13scalar_sum_opIfEEKNS_17CoeffBasedProductIRKNS_6MatrixIfLi7ELi7ELi0ELi7ELi7EEEKNS_9TransposeIS7_EELi6EEES8_EEEC1Ev
0002a4b7   _ZN5Eigen10MatrixBaseINS_13CwiseBinaryOpINS_8internal13scalar_sum_opIfEEKNS_17CoeffBasedProductIRKNS_6MatrixIfLi7ELi7ELi0ELi7ELi7EEEKNS_9TransposeIS7_EELi6EEES8_EEEC2Ev
00029c29   _ZN5Eigen10MatrixBaseINS_13CwiseBinaryOpINS_8internal13scalar_sum_opIfEEKNS_6MatrixIfLi7ELi1ELi0ELi7ELi1EEEKNS_17CoeffBasedProductIRKNS5_IfLi7ELi3ELi0ELi7ELi3EEERKNS5_IfLi3ELi1ELi0ELi3ELi1EEELi6EEEEEEC1Ev
0002a4c3   _ZN5Eigen10MatrixBaseINS_13CwiseBinaryOpINS_8internal13scalar_sum_opIfEEKNS_6MatrixIfLi7ELi1ELi0ELi7ELi1EEEKNS_17CoeffBasedProductIRKNS5_IfLi7ELi3ELi0ELi7ELi3EEERKNS5_IfLi3ELi1ELi0ELi3ELi1EEELi6EEEEEEC2Ev
00029c37   _ZN5Eigen10MatrixBaseINS_13CwiseBinaryOpINS_8internal17scalar_product_opIffEEKNS_6MatrixIfLi3ELi1ELi0ELi3ELi1EEEKNS_5BlockIKNS5_IfLi3ELi3ELi0ELi3ELi3EEELi3ELi1ELb1EEEEEEC1Ev
0002a4cf   _ZN5Eigen10MatrixBaseINS_13CwiseBinaryOpINS_8internal17scalar_product_opIffEEKNS_6MatrixIfLi3ELi1ELi0ELi3ELi1EEEKNS_5BlockIKNS5_IfLi3ELi3ELi0ELi3ELi3EEELi3ELi1ELb1EEEEEEC2Ev
00029c45   _ZN5Eigen10MatrixBaseINS_13CwiseBinaryOpINS_8internal20scalar_difference_opIfEEKNS_6MatrixIfLi3ELi1ELi0ELi3ELi1EEES7_EEEC1Ev
0002a4db   _ZN5Eigen10MatrixBaseINS_13CwiseBinaryOpINS_8internal20scalar_difference_opIfEEKNS_6MatrixIfLi3ELi1ELi0ELi3ELi1EEES7_EEEC2Ev
00029c53   _ZN5Eigen10MatrixBaseINS_13CwiseBinaryOpINS_8internal20scalar_difference_opIfEEKNS_6MatrixIfLi7ELi7ELi0ELi7ELi7EEEKNS_17CoeffBasedProductIRKNS5_IfLi7ELi3ELi0ELi7ELi3EEERKNS5_IfLi3ELi7ELi0ELi3ELi7EEELi6EEEEEEC1Ev
0002a4e7   _ZN5Eigen10MatrixBaseINS_13CwiseBinaryOpINS_8internal20scalar_difference_opIfEEKNS_6MatrixIfLi7ELi7ELi0ELi7ELi7EEEKNS_17CoeffBasedProductIRKNS5_IfLi7ELi3ELi0ELi7ELi3EEERKNS5_IfLi3ELi7ELi0ELi3ELi7EEELi6EEEEEEC2Ev
00029c61   _ZN5Eigen10MatrixBaseINS_13ReturnByValueINS_8internal12inverse_implINS_6MatrixIfLi3ELi3ELi0ELi3ELi3EEEEEEEEC1Ev
0002a4f3   _ZN5Eigen10MatrixBaseINS_13ReturnByValueINS_8internal12inverse_implINS_6MatrixIfLi3ELi3ELi0ELi3ELi3EEEEEEEEC2Ev
00029c6f   _ZN5Eigen10MatrixBaseINS_14CwiseNullaryOpINS_8internal18scalar_constant_opIfEENS_6MatrixIfLi3ELi1ELi0ELi3ELi1EEEEEEC1Ev
0002a4ff   _ZN5Eigen10MatrixBaseINS_14CwiseNullaryOpINS_8internal18scalar_constant_opIfEENS_6MatrixIfLi3ELi1ELi0ELi3ELi1EEEEEEC2Ev
00029c7d   _ZN5Eigen10MatrixBaseINS_14CwiseNullaryOpINS_8internal18scalar_constant_opIfEENS_6MatrixIfLi3ELi3ELi0ELi3ELi3EEEEEEC1Ev
0002a50b   _ZN5Eigen10MatrixBaseINS_14CwiseNullaryOpINS_8internal18scalar_constant_opIfEENS_6MatrixIfLi3ELi3ELi0ELi3ELi3EEEEEEC2Ev
00029c8b   _ZN5Eigen10MatrixBaseINS_14CwiseNullaryOpINS_8internal18scalar_constant_opIfEENS_6MatrixIfLi3ELi7ELi0ELi3ELi7EEEEEEC1Ev
0002a517   _ZN5Eigen10MatrixBaseINS_14CwiseNullaryOpINS_8internal18scalar_constant_opIfEENS_6MatrixIfLi3ELi7ELi0ELi3ELi7EEEEEEC2Ev
00029c99   _ZN5Eigen10MatrixBaseINS_14CwiseNullaryOpINS_8internal18scalar_constant_opIfEENS_6MatrixIfLi7ELi1ELi0ELi7ELi1EEEEEEC1Ev
0002a523   _ZN5Eigen10MatrixBaseINS_14CwiseNullaryOpINS_8internal18scalar_constant_opIfEENS_6MatrixIfLi7ELi1ELi0ELi7ELi1EEEEEEC2Ev
00029ca7   _ZN5Eigen10MatrixBaseINS_14CwiseNullaryOpINS_8internal18scalar_constant_opIfEENS_6MatrixIfLi7ELi3ELi0ELi7ELi3EEEEEEC1Ev
0002a52f   _ZN5Eigen10MatrixBaseINS_14CwiseNullaryOpINS_8internal18scalar_constant_opIfEENS_6MatrixIfLi7ELi3ELi0ELi7ELi3EEEEEEC2Ev
00029cb5   _ZN5Eigen10MatrixBaseINS_14CwiseNullaryOpINS_8internal18scalar_constant_opIfEENS_6MatrixIfLi7ELi7ELi0ELi7ELi7EEEEEEC1Ev
0002a53b   _ZN5Eigen10MatrixBaseINS_14CwiseNullaryOpINS_8internal18scalar_constant_opIfEENS_6MatrixIfLi7ELi7ELi0ELi7ELi7EEEEEEC2Ev
00029cc3   _ZN5Eigen10MatrixBaseINS_14CwiseNullaryOpINS_8internal18scalar_identity_opIfEENS_6MatrixIfLi7ELi7ELi0ELi7ELi7EEEEEEC1Ev
0002a547   _ZN5Eigen10MatrixBaseINS_14CwiseNullaryOpINS_8internal18scalar_identity_opIfEENS_6MatrixIfLi7ELi7ELi0ELi7ELi7EEEEEEC2Ev
00029cd1   _ZN5Eigen10MatrixBaseINS_17CoeffBasedProductINS_6MatrixIfLi7ELi7ELi0ELi7ELi7EEERKS3_Li6EEEEC1Ev
0002a553   _ZN5Eigen10MatrixBaseINS_17CoeffBasedProductINS_6MatrixIfLi7ELi7ELi0ELi7ELi7EEERKS3_Li6EEEEC2Ev
00029cdf   _ZN5Eigen10MatrixBaseINS_17CoeffBasedProductIRKNS_6MatrixIfLi3ELi7ELi0ELi3ELi7EEEKNS_9TransposeIS3_EELi6EEEEC1Ev
0002a55f   _ZN5Eigen10MatrixBaseINS_17CoeffBasedProductIRKNS_6MatrixIfLi3ELi7ELi0ELi3ELi7EEEKNS_9TransposeIS3_EELi6EEEEC2Ev
00029ced   _ZN5Eigen10MatrixBaseINS_17CoeffBasedProductIRKNS_6MatrixIfLi3ELi7ELi0ELi3ELi7EEERKNS2_IfLi7ELi7ELi0ELi7ELi7EEELi6EEEEC1Ev
0002a56b   _ZN5Eigen10MatrixBaseINS_17CoeffBasedProductIRKNS_6MatrixIfLi3ELi7ELi0ELi3ELi7EEERKNS2_IfLi7ELi7ELi0ELi7ELi7EEELi6EEEEC2Ev
00029cfb   _ZN5Eigen10MatrixBaseINS_17CoeffBasedProductIRKNS_6MatrixIfLi7ELi3ELi0ELi7ELi3EEERKNS2_IfLi3ELi1ELi0ELi3ELi1EEELi6EEEEC1Ev
0002a577   _ZN5Eigen10MatrixBaseINS_17CoeffBasedProductIRKNS_6MatrixIfLi7ELi3ELi0ELi7ELi3EEERKNS2_IfLi3ELi1ELi0ELi3ELi1EEELi6EEEEC2Ev
00029d09   _ZN5Eigen10MatrixBaseINS_17CoeffBasedProductIRKNS_6MatrixIfLi7ELi3ELi0ELi7ELi3EEERKNS2_IfLi3ELi7ELi0ELi3ELi7EEELi6EEEEC1Ev
0002a583   _ZN5Eigen10MatrixBaseINS_17CoeffBasedProductIRKNS_6MatrixIfLi7ELi3ELi0ELi7ELi3EEERKNS2_IfLi3ELi7ELi0ELi3ELi7EEELi6EEEEC2Ev
00029d17   _ZN5Eigen10MatrixBaseINS_17CoeffBasedProductIRKNS_6MatrixIfLi7ELi3ELi1ELi7ELi3EEENS2_IfLi3ELi3ELi0ELi3ELi3EEELi6EEEEC1Ev
0002a58f   _ZN5Eigen10MatrixBaseINS_17CoeffBasedProductIRKNS_6MatrixIfLi7ELi3ELi1ELi7ELi3EEENS2_IfLi3ELi3ELi0ELi3ELi3EEELi6EEEEC2Ev
00029d25   _ZN5Eigen10MatrixBaseINS_17CoeffBasedProductIRKNS_6MatrixIfLi7ELi7ELi0ELi7ELi7EEEKNS_9TransposeINS2_IfLi3ELi7ELi0ELi3ELi7EEEEELi6EEEEC1Ev
0002a59b   _ZN5Eigen10MatrixBaseINS_17CoeffBasedProductIRKNS_6MatrixIfLi7ELi7ELi0ELi7ELi7EEEKNS_9TransposeINS2_IfLi3ELi7ELi0ELi3ELi7EEEEELi6EEEEC2Ev
00029d33   _ZN5Eigen10MatrixBaseINS_17CoeffBasedProductIRKNS_6MatrixIfLi7ELi7ELi0ELi7ELi7EEEKNS_9TransposeIS3_EELi6EEEEC1Ev
0002a5a7   _ZN5Eigen10MatrixBaseINS_17CoeffBasedProductIRKNS_6MatrixIfLi7ELi7ELi0ELi7ELi7EEEKNS_9TransposeIS3_EELi6EEEEC2Ev
00029d41   _ZN5Eigen10MatrixBaseINS_17CoeffBasedProductIRKNS_6MatrixIfLi7ELi7ELi0ELi7ELi7EEES5_Li6EEEEC1Ev
0002a5b3   _ZN5Eigen10MatrixBaseINS_17CoeffBasedProductIRKNS_6MatrixIfLi7ELi7ELi0ELi7ELi7EEES5_Li6EEEEC2Ev
00029d4f   _ZN5Eigen10MatrixBaseINS_17SelfCwiseBinaryOpINS_8internal17scalar_product_opIffEENS_6MatrixIfLi7ELi7ELi0ELi7ELi7EEENS_14CwiseNullaryOpINS2_18scalar_constant_opIfEES6_EEEEEC1Ev
0002a5bf   _ZN5Eigen10MatrixBaseINS_17SelfCwiseBinaryOpINS_8internal17scalar_product_opIffEENS_6MatrixIfLi7ELi7ELi0ELi7ELi7EEENS_14CwiseNullaryOpINS2_18scalar_constant_opIfEES6_EEEEEC2Ev
000251b7   _ZN5Eigen10MatrixBaseINS_17SelfCwiseBinaryOpINS_8internal17scalar_product_opIffEENS_6MatrixIfLi7ELi7ELi0ELi7ELi7EEENS_14CwiseNullaryOpINS2_18scalar_constant_opIfEES6_EEEEEaSISA_EERSB_RKNS_9DenseBaseIT_EE
00029d5d   _ZN5Eigen10MatrixBaseINS_5BlockIKNS_6MatrixIfLi3ELi3ELi0ELi3ELi3EEELi3ELi1ELb1EEEEC1Ev
0002a5cb   _ZN5Eigen10MatrixBaseINS_5BlockIKNS_6MatrixIfLi3ELi3ELi0ELi3ELi3EEELi3ELi1ELb1EEEEC2Ev
00029d6b   _ZN5Eigen10MatrixBaseINS_5BlockINS_6MatrixIfLi3ELi3ELi0ELi3ELi3EEELi1ELi3ELb0EEEEC1Ev
0002a5d7   _ZN5Eigen10MatrixBaseINS_5BlockINS_6MatrixIfLi3ELi3ELi0ELi3ELi3EEELi1ELi3ELb0EEEEC2Ev
000251d5   _ZN5Eigen10MatrixBaseINS_5BlockINS_6MatrixIfLi3ELi3ELi0ELi3ELi3EEELi1ELi3ELb0EEEEaSINS_12CwiseUnaryOpINS_8internal18scalar_multiple_opIfEEKNS2_IfLi3ELi1ELi0ELi3ELi1EEEEEEERS4_RKNS_9DenseBaseIT_EE
00029d79   _ZN5Eigen10MatrixBaseINS_6MatrixIdLin1ELin1ELi0ELin1ELin1EEEEC1Ev
0002a5e3   _ZN5Eigen10MatrixBaseINS_6MatrixIdLin1ELin1ELi0ELin1ELin1EEEEC2Ev
00029d87   _ZN5Eigen10MatrixBaseINS_6MatrixIfLi3ELi1ELi0ELi3ELi1EEEEC1Ev
0002a5ef   _ZN5Eigen10MatrixBaseINS_6MatrixIfLi3ELi1ELi0ELi3ELi1EEEEC2Ev
00029d95   _ZN5Eigen10MatrixBaseINS_6MatrixIfLi3ELi3ELi0ELi3ELi3EEEEC1Ev
0002a5fb   _ZN5Eigen10MatrixBaseINS_6MatrixIfLi3ELi3ELi0ELi3ELi3EEEEC2Ev
00029da3   _ZN5Eigen10MatrixBaseINS_6MatrixIfLi3ELi3ELi1ELi3ELi3EEEEC1Ev
0002a607   _ZN5Eigen10MatrixBaseINS_6MatrixIfLi3ELi3ELi1ELi3ELi3EEEEC2Ev
00029db1   _ZN5Eigen10MatrixBaseINS_6MatrixIfLi3ELi7ELi0ELi3ELi7EEEEC1Ev
0002a613   _ZN5Eigen10MatrixBaseINS_6MatrixIfLi3ELi7ELi0ELi3ELi7EEEEC2Ev
00029dbf   _ZN5Eigen10MatrixBaseINS_6MatrixIfLi7ELi1ELi0ELi7ELi1EEEEC1Ev
0002a61f   _ZN5Eigen10MatrixBaseINS_6MatrixIfLi7ELi1ELi0ELi7ELi1EEEEC2Ev
00029dcd   _ZN5Eigen10MatrixBaseINS_6MatrixIfLi7ELi3ELi0ELi7ELi3EEEEC1Ev
0002a62b   _ZN5Eigen10MatrixBaseINS_6MatrixIfLi7ELi3ELi0ELi7ELi3EEEEC2Ev
00029ddb   _ZN5Eigen10MatrixBaseINS_6MatrixIfLi7ELi3ELi1ELi7ELi3EEEEC1Ev
0002a637   _ZN5Eigen10MatrixBaseINS_6MatrixIfLi7ELi3ELi1ELi7ELi3EEEEC2Ev
000251f3   _ZN5Eigen10MatrixBaseINS_6MatrixIfLi7ELi7ELi0ELi7ELi7EEEE8IdentityEv
00029de9   _ZN5Eigen10MatrixBaseINS_6MatrixIfLi7ELi7ELi0ELi7ELi7EEEEC1Ev
0002a643   _ZN5Eigen10MatrixBaseINS_6MatrixIfLi7ELi7ELi0ELi7ELi7EEEEC2Ev
00029df7   _ZN5Eigen10MatrixBaseINS_6MatrixIfLi7ELi7ELi1ELi7ELi7EEEEC1Ev
0002a64f   _ZN5Eigen10MatrixBaseINS_6MatrixIfLi7ELi7ELi1ELi7ELi7EEEEC2Ev
00029e05   _ZN5Eigen10MatrixBaseINS_9TransposeIKNS_12CwiseUnaryOpINS_8internal18scalar_multiple_opIfEEKNS_6MatrixIfLi3ELi1ELi0ELi3ELi1EEEEEEEEC1Ev
0002a65b   _ZN5Eigen10MatrixBaseINS_9TransposeIKNS_12CwiseUnaryOpINS_8internal18scalar_multiple_opIfEEKNS_6MatrixIfLi3ELi1ELi0ELi3ELi1EEEEEEEEC2Ev
00029e13   _ZN5Eigen10MatrixBaseINS_9TransposeINS_6MatrixIfLi3ELi7ELi0ELi3ELi7EEEEEEC1Ev
0002a667   _ZN5Eigen10MatrixBaseINS_9TransposeINS_6MatrixIfLi3ELi7ELi0ELi3ELi7EEEEEEC2Ev
00029e21   _ZN5Eigen10MatrixBaseINS_9TransposeINS_6MatrixIfLi7ELi7ELi0ELi7ELi7EEEEEEC1Ev
0002a673   _ZN5Eigen10MatrixBaseINS_9TransposeINS_6MatrixIfLi7ELi7ELi0ELi7ELi7EEEEEEC2Ev
00025211   _ZN5Eigen12CwiseUnaryOpINS_8internal18scalar_multiple_opIfEEKNS_6MatrixIfLi3ELi1ELi0ELi3ELi1EEEEC1ERKS7_
000249e9   _ZN5Eigen12CwiseUnaryOpINS_8internal18scalar_multiple_opIfEEKNS_6MatrixIfLi3ELi1ELi0ELi3ELi1EEEEC1ERS6_RKS3_
00029e2f   _ZN5Eigen12DenseStorageIdLin1ELin1ELin1ELi0EE4dataEv
0001eba1   _ZN5Eigen12DenseStorageIdLin1ELin1ELin1ELi0EE6resizeEiii
0002522f   _ZN5Eigen12DenseStorageIdLin1ELin1ELin1ELi0EEC1Ev
000265fb   _ZN5Eigen12DenseStorageIdLin1ELin1ELin1ELi0EED1Ev
0002b4bf   _ZN5Eigen12DenseStorageIfLi21ELi3ELi7ELi0EE4colsEv
0002a67f   _ZN5Eigen12DenseStorageIfLi21ELi3ELi7ELi0EE4dataEv
0002b4c3   _ZN5Eigen12DenseStorageIfLi21ELi3ELi7ELi0EE4rowsEv
0002930f   _ZN5Eigen12DenseStorageIfLi21ELi3ELi7ELi0EE6resizeEiii
00029e3d   _ZN5Eigen12DenseStorageIfLi21ELi3ELi7ELi0EEC1Ev
0002b4c7   _ZN5Eigen12DenseStorageIfLi21ELi7ELi3ELi0EE4colsEv
0002a68b   _ZN5Eigen12DenseStorageIfLi21ELi7ELi3ELi0EE4dataEv
0002b4cb   _ZN5Eigen12DenseStorageIfLi21ELi7ELi3ELi0EE4rowsEv
0002931f   _ZN5Eigen12DenseStorageIfLi21ELi7ELi3ELi0EE6resizeEiii
00026615   _ZN5Eigen12DenseStorageIfLi21ELi7ELi3ELi0EEC1Eiii
00029e4b   _ZN5Eigen12DenseStorageIfLi21ELi7ELi3ELi0EEC1Ev
0002b4cf   _ZN5Eigen12DenseStorageIfLi21ELi7ELi3ELi1EE4colsEv
0002a697   _ZN5Eigen12DenseStorageIfLi21ELi7ELi3ELi1EE4dataEv
0002b4d3   _ZN5Eigen12DenseStorageIfLi21ELi7ELi3ELi1EE4rowsEv
0002932f   _ZN5Eigen12DenseStorageIfLi21ELi7ELi3ELi1EE6resizeEiii
00029e59   _ZN5Eigen12DenseStorageIfLi21ELi7ELi3ELi1EEC1Ev
0002b4d7   _ZN5Eigen12DenseStorageIfLi3ELi3ELi1ELi0EE4colsEv
0002a6a3   _ZN5Eigen12DenseStorageIfLi3ELi3ELi1ELi0EE4dataEv
0002b4db   _ZN5Eigen12DenseStorageIfLi3ELi3ELi1ELi0EE4rowsEv
0002933f   _ZN5Eigen12DenseStorageIfLi3ELi3ELi1ELi0EE6resizeEiii
00029e67   _ZN5Eigen12DenseStorageIfLi3ELi3ELi1ELi0EEC1Ev
0002b4df   _ZN5Eigen12DenseStorageIfLi49ELi7ELi7ELi0EE4colsEv
0002a6af   _ZN5Eigen12DenseStorageIfLi49ELi7ELi7ELi0EE4dataEv
0002b4e3   _ZN5Eigen12DenseStorageIfLi49ELi7ELi7ELi0EE4rowsEv
0002934f   _ZN5Eigen12DenseStorageIfLi49ELi7ELi7ELi0EE6resizeEiii
0002662f   _ZN5Eigen12DenseStorageIfLi49ELi7ELi7ELi0EEC1Eiii
00029e75   _ZN5Eigen12DenseStorageIfLi49ELi7ELi7ELi0EEC1Ev
0002b4e7   _ZN5Eigen12DenseStorageIfLi49ELi7ELi7ELi1EE4colsEv
0002a6bb   _ZN5Eigen12DenseStorageIfLi49ELi7ELi7ELi1EE4dataEv
0002b4eb   _ZN5Eigen12DenseStorageIfLi49ELi7ELi7ELi1EE4rowsEv
0002935f   _ZN5Eigen12DenseStorageIfLi49ELi7ELi7ELi1EE6resizeEiii
00026649   _ZN5Eigen12DenseStorageIfLi49ELi7ELi7ELi1EEC1Eiii
00029e83   _ZN5Eigen12DenseStorageIfLi49ELi7ELi7ELi1EEC1Ev
0002b4ef   _ZN5Eigen12DenseStorageIfLi7ELi7ELi1ELi0EE4colsEv
0002a6c7   _ZN5Eigen12DenseStorageIfLi7ELi7ELi1ELi0EE4dataEv
0002b4f3   _ZN5Eigen12DenseStorageIfLi7ELi7ELi1ELi0EE4rowsEv
0002936f   _ZN5Eigen12DenseStorageIfLi7ELi7ELi1ELi0EE6resizeEiii
00026663   _ZN5Eigen12DenseStorageIfLi7ELi7ELi1ELi0EEC1Eiii
00029e91   _ZN5Eigen12DenseStorageIfLi7ELi7ELi1ELi0EEC1Ev
0002b4f7   _ZN5Eigen12DenseStorageIfLi9ELi3ELi3ELi0EE4colsEv
0002a6d3   _ZN5Eigen12DenseStorageIfLi9ELi3ELi3ELi0EE4dataEv
0002b4fb   _ZN5Eigen12DenseStorageIfLi9ELi3ELi3ELi0EE4rowsEv
0002937f   _ZN5Eigen12DenseStorageIfLi9ELi3ELi3ELi0EE6resizeEiii
00029e9f   _ZN5Eigen12DenseStorageIfLi9ELi3ELi3ELi0EEC1Ev
0002b4ff   _ZN5Eigen12DenseStorageIfLi9ELi3ELi3ELi1EE4colsEv
0002a6df   _ZN5Eigen12DenseStorageIfLi9ELi3ELi3ELi1EE4dataEv
0002b503   _ZN5Eigen12DenseStorageIfLi9ELi3ELi3ELi1EE4rowsEv
0002938f   _ZN5Eigen12DenseStorageIfLi9ELi3ELi3ELi1EE6resizeEiii
0002667d   _ZN5Eigen12DenseStorageIfLi9ELi3ELi3ELi1EEC1Eiii
00029ead   _ZN5Eigen12DenseStorageIfLi9ELi3ELi3ELi1EEC1Ev
00022921   _ZN5Eigen13CwiseBinaryOpINS_8internal13scalar_sum_opIfEEKNS_17CoeffBasedProductIRKNS_6MatrixIfLi3ELi7ELi0ELi3ELi7EEEKNS_9TransposeIS6_EELi6EEEKNS5_IfLi3ELi3ELi0ELi3ELi3EEEEC1ERSD_RSF_RKS3_
0002267b   _ZN5Eigen13CwiseBinaryOpINS_8internal13scalar_sum_opIfEEKNS_17CoeffBasedProductIRKNS_6MatrixIfLi7ELi7ELi0ELi7ELi7EEEKNS_9TransposeIS6_EELi6EEES7_EC1ERSD_S8_RKS3_
000226af   _ZN5Eigen13CwiseBinaryOpINS_8internal13scalar_sum_opIfEEKNS_6MatrixIfLi7ELi1ELi0ELi7ELi1EEEKNS_17CoeffBasedProductIRKNS4_IfLi7ELi3ELi0ELi7ELi3EEERKNS4_IfLi3ELi1ELi0ELi3ELi1EEELi6EEEEC1ERS6_RSF_RKS3_
00022a4d   _ZN5Eigen13CwiseBinaryOpINS_8internal17scalar_product_opIffEEKNS_6MatrixIfLi3ELi1ELi0ELi3ELi1EEEKNS_5BlockIKNS4_IfLi3ELi3ELi0ELi3ELi3EEELi3ELi1ELb1EEEEC1ERS6_RSB_RKS3_
00022e0d   _ZN5Eigen13CwiseBinaryOpINS_8internal20scalar_difference_opIfEEKNS_6MatrixIfLi3ELi1ELi0ELi3ELi1EEES6_EC1ERS6_S8_RKS3_
000226e3   _ZN5Eigen13CwiseBinaryOpINS_8internal20scalar_difference_opIfEEKNS_6MatrixIfLi7ELi7ELi0ELi7ELi7EEEKNS_17CoeffBasedProductIRKNS4_IfLi7ELi3ELi0ELi7ELi3EEERKNS4_IfLi3ELi7ELi0ELi3ELi7EEELi6EEEEC1ERS6_RSF_RKS3_
00029ebb   _ZN5Eigen13ReturnByValueINS_8internal12inverse_implINS_6MatrixIfLi3ELi3ELi0ELi3ELi3EEEEEEC1Ev
0002a6eb   _ZN5Eigen13ReturnByValueINS_8internal12inverse_implINS_6MatrixIfLi3ELi3ELi0ELi3ELi3EEEEEEC2Ev
00029ec9   _ZN5Eigen13TransposeImplIKNS_12CwiseUnaryOpINS_8internal18scalar_multiple_opIfEEKNS_6MatrixIfLi3ELi1ELi0ELi3ELi1EEEEENS_5DenseEEC1Ev
0002a6f7   _ZN5Eigen13TransposeImplIKNS_12CwiseUnaryOpINS_8internal18scalar_multiple_opIfEEKNS_6MatrixIfLi3ELi1ELi0ELi3ELi1EEEEENS_5DenseEEC2Ev
00029ed7   _ZN5Eigen13TransposeImplINS_6MatrixIfLi3ELi7ELi0ELi3ELi7EEENS_5DenseEEC1Ev
0002a703   _ZN5Eigen13TransposeImplINS_6MatrixIfLi3ELi7ELi0ELi3ELi7EEENS_5DenseEEC2Ev
00029ee5   _ZN5Eigen13TransposeImplINS_6MatrixIfLi7ELi7ELi0ELi7ELi7EEENS_5DenseEEC1Ev
0002a70f   _ZN5Eigen13TransposeImplINS_6MatrixIfLi7ELi7ELi0ELi7ELi7EEENS_5DenseEEC2Ev
00022495   _ZN5Eigen14CwiseNullaryOpINS_8internal18scalar_constant_opIfEENS_6MatrixIfLi3ELi1ELi0ELi3ELi1EEEEC1EiiRKS3_
000224cb   _ZN5Eigen14CwiseNullaryOpINS_8internal18scalar_constant_opIfEENS_6MatrixIfLi3ELi3ELi0ELi3ELi3EEEEC1EiiRKS3_
00022501   _ZN5Eigen14CwiseNullaryOpINS_8internal18scalar_constant_opIfEENS_6MatrixIfLi3ELi7ELi0ELi3ELi7EEEEC1EiiRKS3_
00022537   _ZN5Eigen14CwiseNullaryOpINS_8internal18scalar_constant_opIfEENS_6MatrixIfLi7ELi1ELi0ELi7ELi1EEEEC1EiiRKS3_
0002256d   _ZN5Eigen14CwiseNullaryOpINS_8internal18scalar_constant_opIfEENS_6MatrixIfLi7ELi3ELi0ELi7ELi3EEEEC1EiiRKS3_
00023c85   _ZN5Eigen14CwiseNullaryOpINS_8internal18scalar_constant_opIfEENS_6MatrixIfLi7ELi7ELi0ELi7ELi7EEEEC1ERKS6_
000225a3   _ZN5Eigen14CwiseNullaryOpINS_8internal18scalar_constant_opIfEENS_6MatrixIfLi7ELi7ELi0ELi7ELi7EEEEC1EiiRKS3_
00022717   _ZN5Eigen14CwiseNullaryOpINS_8internal18scalar_identity_opIfEENS_6MatrixIfLi7ELi7ELi0ELi7ELi7EEEEC1EiiRKS3_
000221bb   _ZN5Eigen15DenseCoeffsBaseINS_5BlockINS_6MatrixIfLi3ELi3ELi0ELi3ELi3EEELi1ELi3ELb0EEELi1EE9copyCoeffINS_9TransposeIKNS_12CwiseUnaryOpINS_8internal18scalar_multiple_opIfEEKNS2_IfLi3ELi1ELi0ELi3ELi1EEEEEEEEEviRKNS_9DenseBaseIT_EE
000281f7   _ZN5Eigen15DenseCoeffsBaseINS_6MatrixIdLin1ELin1ELi0ELin1ELin1EEELi1EEclEii
000221f3   _ZN5Eigen15DenseCoeffsBaseINS_6MatrixIfLi3ELi1ELi0ELi3ELi1EEELi1EE9copyCoeffINS_13CwiseBinaryOpINS_8internal20scalar_difference_opIfEEKS2_S9_EEEEviRKNS_9DenseBaseIT_EE
0002222b   _ZN5Eigen15DenseCoeffsBaseINS_6MatrixIfLi3ELi1ELi0ELi3ELi1EEELi1EE9copyCoeffINS_14CwiseNullaryOpINS_8internal18scalar_constant_opIfEES2_EEEEviRKNS_9DenseBaseIT_EE
00028b27   _ZN5Eigen15DenseCoeffsBaseINS_6MatrixIfLi3ELi1ELi0ELi3ELi1EEELi1EEclEi
00021c85   _ZN5Eigen15DenseCoeffsBaseINS_6MatrixIfLi3ELi3ELi0ELi3ELi3EEELi1EE21copyCoeffByOuterInnerINS_13CwiseBinaryOpINS_8internal13scalar_sum_opIfEEKNS_17CoeffBasedProductIRKNS1_IfLi3ELi7ELi0ELi3ELi7EEEKNS_9TransposeISA_EELi6EEEKS2_EEEEviiRKNS_9DenseBaseIT_EE
000214e1   _ZN5Eigen15DenseCoeffsBaseINS_6MatrixIfLi3ELi3ELi0ELi3ELi3EEELi1EE9copyCoeffINS_13CwiseBinaryOpINS_8internal13scalar_sum_opIfEEKNS_17CoeffBasedProductIRKNS1_IfLi3ELi7ELi0ELi3ELi7EEEKNS_9TransposeISA_EELi6EEEKS2_EEEEviiRKNS_9DenseBaseIT_EE
00022263   _ZN5Eigen15DenseCoeffsBaseINS_6MatrixIfLi3ELi3ELi0ELi3ELi3EEELi1EE9copyCoeffINS_14CwiseNullaryOpINS_8internal18scalar_constant_opIfEES2_EEEEviRKNS_9DenseBaseIT_EE
0002820f   _ZN5Eigen15DenseCoeffsBaseINS_6MatrixIfLi3ELi3ELi0ELi3ELi3EEELi1EEclEii
00021cbf   _ZN5Eigen15DenseCoeffsBaseINS_6MatrixIfLi3ELi3ELi1ELi3ELi3EEELi1EE21copyCoeffByOuterInnerINS_17CoeffBasedProductIRKNS1_IfLi3ELi7ELi0ELi3ELi7EEEKNS_9TransposeIS6_EELi6EEEEEviiRKNS_9DenseBaseIT_EE
0002151f   _ZN5Eigen15DenseCoeffsBaseINS_6MatrixIfLi3ELi3ELi1ELi3ELi3EEELi1EE9copyCoeffINS_17CoeffBasedProductIRKNS1_IfLi3ELi7ELi0ELi3ELi7EEEKNS_9TransposeIS6_EELi6EEEEEviiRKNS_9DenseBaseIT_EE
00021cf9   _ZN5Eigen15DenseCoeffsBaseINS_6MatrixIfLi3ELi7ELi0ELi3ELi7EEELi1EE21copyCoeffByOuterInnerINS_17CoeffBasedProductIRKS2_RKNS1_IfLi7ELi7ELi0ELi7ELi7EEELi6EEEEEviiRKNS_9DenseBaseIT_EE
0002229b   _ZN5Eigen15DenseCoeffsBaseINS_6MatrixIfLi3ELi7ELi0ELi3ELi7EEELi1EE9copyCoeffINS_14CwiseNullaryOpINS_8internal18scalar_constant_opIfEES2_EEEEviRKNS_9DenseBaseIT_EE
0002155d   _ZN5Eigen15DenseCoeffsBaseINS_6MatrixIfLi3ELi7ELi0ELi3ELi7EEELi1EE9copyCoeffINS_17CoeffBasedProductIRKS2_RKNS1_IfLi7ELi7ELi0ELi7ELi7EEELi6EEEEEviiRKNS_9DenseBaseIT_EE
00028227   _ZN5Eigen15DenseCoeffsBaseINS_6MatrixIfLi3ELi7ELi0ELi3ELi7EEELi1EEclEii
00021d33   _ZN5Eigen15DenseCoeffsBaseINS_6MatrixIfLi7ELi1ELi0ELi7ELi1EEELi1EE21copyCoeffByOuterInnerINS_17CoeffBasedProductIRKNS1_IfLi7ELi3ELi0ELi7ELi3EEERKNS1_IfLi3ELi1ELi0ELi3ELi1EEELi6EEEEEviiRKNS_9DenseBaseIT_EE
000222d3   _ZN5Eigen15DenseCoeffsBaseINS_6MatrixIfLi7ELi1ELi0ELi7ELi1EEELi1EE9copyCoeffINS_13CwiseBinaryOpINS_8internal13scalar_sum_opIfEEKS2_KNS_17CoeffBasedProductIRKNS1_IfLi7ELi3ELi0ELi7ELi3EEERKNS1_IfLi3ELi1ELi0ELi3ELi1EEELi6EEEEEEEviRKNS_9DenseBaseIT_EE
0002230b   _ZN5Eigen15DenseCoeffsBaseINS_6MatrixIfLi7ELi1ELi0ELi7ELi1EEELi1EE9copyCoeffINS_14CwiseNullaryOpINS_8internal18scalar_constant_opIfEES2_EEEEviRKNS_9DenseBaseIT_EE
0002159b   _ZN5Eigen15DenseCoeffsBaseINS_6MatrixIfLi7ELi1ELi0ELi7ELi1EEELi1EE9copyCoeffINS_17CoeffBasedProductIRKNS1_IfLi7ELi3ELi0ELi7ELi3EEERKNS1_IfLi3ELi1ELi0ELi3ELi1EEELi6EEEEEviiRKNS_9DenseBaseIT_EE
00028b3b   _ZN5Eigen15DenseCoeffsBaseINS_6MatrixIfLi7ELi1ELi0ELi7ELi1EEELi1EEclEi
00021d6d   _ZN5Eigen15DenseCoeffsBaseINS_6MatrixIfLi7ELi3ELi0ELi7ELi3EEELi1EE21copyCoeffByOuterInnerINS_17CoeffBasedProductIRKNS1_IfLi7ELi3ELi1ELi7ELi3EEENS1_IfLi3ELi3ELi0ELi3ELi3EEELi6EEEEEviiRKNS_9DenseBaseIT_EE
00022343   _ZN5Eigen15DenseCoeffsBaseINS_6MatrixIfLi7ELi3ELi0ELi7ELi3EEELi1EE9copyCoeffINS_14CwiseNullaryOpINS_8internal18scalar_constant_opIfEES2_EEEEviRKNS_9DenseBaseIT_EE
000215d9   _ZN5Eigen15DenseCoeffsBaseINS_6MatrixIfLi7ELi3ELi0ELi7ELi3EEELi1EE9copyCoeffINS_17CoeffBasedProductIRKNS1_IfLi7ELi3ELi1ELi7ELi3EEENS1_IfLi3ELi3ELi0ELi3ELi3EEELi6EEEEEviiRKNS_9DenseBaseIT_EE
0002370d   _ZN5Eigen15DenseCoeffsBaseINS_6MatrixIfLi7ELi3ELi0ELi7ELi3EEELi1EE9copyCoeffIS2_EEviRKNS_9DenseBaseIT_EE
00021da7   _ZN5Eigen15DenseCoeffsBaseINS_6MatrixIfLi7ELi3ELi1ELi7ELi3EEELi1EE21copyCoeffByOuterInnerINS_17CoeffBasedProductIRKNS1_IfLi7ELi7ELi0ELi7ELi7EEEKNS_9TransposeINS1_IfLi3ELi7ELi0ELi3ELi7EEEEELi6EEEEEviiRKNS_9DenseBaseIT_EE
00021617   _ZN5Eigen15DenseCoeffsBaseINS_6MatrixIfLi7ELi3ELi1ELi7ELi3EEELi1EE9copyCoeffINS_17CoeffBasedProductIRKNS1_IfLi7ELi7ELi0ELi7ELi7EEEKNS_9TransposeINS1_IfLi3ELi7ELi0ELi3ELi7EEEEELi6EEEEEviiRKNS_9DenseBaseIT_EE
00021de1   _ZN5Eigen15DenseCoeffsBaseINS_6MatrixIfLi7ELi7ELi0ELi7ELi7EEELi1EE21copyCoeffByOuterInnerINS_13CwiseBinaryOpINS_8internal13scalar_sum_opIfEEKNS_17CoeffBasedProductIRKS2_KNS_9TransposeIS2_EELi6EEESA_EEEEviiRKNS_9DenseBaseIT_EE
00021e1b   _ZN5Eigen15DenseCoeffsBaseINS_6MatrixIfLi7ELi7ELi0ELi7ELi7EEELi1EE21copyCoeffByOuterInnerINS_14CwiseNullaryOpINS_8internal18scalar_identity_opIfEES2_EEEEviiRKNS_9DenseBaseIT_EE
00021e55   _ZN5Eigen15DenseCoeffsBaseINS_6MatrixIfLi7ELi7ELi0ELi7ELi7EEELi1EE21copyCoeffByOuterInnerINS_17CoeffBasedProductIRKNS1_IfLi7ELi3ELi0ELi7ELi3EEERKNS1_IfLi3ELi7ELi0ELi3ELi7EEELi6EEEEEviiRKNS_9DenseBaseIT_EE
00021e8f   _ZN5Eigen15DenseCoeffsBaseINS_6MatrixIfLi7ELi7ELi0ELi7ELi7EEELi1EE21copyCoeffByOuterInnerINS_17CoeffBasedProductIRKS2_S7_Li6EEEEEviiRKNS_9DenseBaseIT_EE
00021ec9   _ZN5Eigen15DenseCoeffsBaseINS_6MatrixIfLi7ELi7ELi0ELi7ELi7EEELi1EE21copyCoeffByOuterInnerINS_17CoeffBasedProductIS2_RKS2_Li6EEEEEviiRKNS_9DenseBaseIT_EE
00021655   _ZN5Eigen15DenseCoeffsBaseINS_6MatrixIfLi7ELi7ELi0ELi7ELi7EEELi1EE9copyCoeffINS_13CwiseBinaryOpINS_8internal13scalar_sum_opIfEEKNS_17CoeffBasedProductIRKS2_KNS_9TransposeIS2_EELi6EEESA_EEEEviiRKNS_9DenseBaseIT_EE
0002237b   _ZN5Eigen15DenseCoeffsBaseINS_6MatrixIfLi7ELi7ELi0ELi7ELi7EEELi1EE9copyCoeffINS_13CwiseBinaryOpINS_8internal20scalar_difference_opIfEEKS2_KNS_17CoeffBasedProductIRKNS1_IfLi7ELi3ELi0ELi7ELi3EEERKNS1_IfLi3ELi7ELi0ELi3ELi7EEELi6EEEEEEEviRKNS_9DenseBaseIT_EE
000223b3   _ZN5Eigen15DenseCoeffsBaseINS_6MatrixIfLi7ELi7ELi0ELi7ELi7EEELi1EE9copyCoeffINS_14CwiseNullaryOpINS_8internal18scalar_constant_opIfEES2_EEEEviRKNS_9DenseBaseIT_EE
00021693   _ZN5Eigen15DenseCoeffsBaseINS_6MatrixIfLi7ELi7ELi0ELi7ELi7EEELi1EE9copyCoeffINS_14CwiseNullaryOpINS_8internal18scalar_identity_opIfEES2_EEEEviiRKNS_9DenseBaseIT_EE
000216d1   _ZN5Eigen15DenseCoeffsBaseINS_6MatrixIfLi7ELi7ELi0ELi7ELi7EEELi1EE9copyCoeffINS_17CoeffBasedProductIRKNS1_IfLi7ELi3ELi0ELi7ELi3EEERKNS1_IfLi3ELi7ELi0ELi3ELi7EEELi6EEEEEviiRKNS_9DenseBaseIT_EE
0002170f   _ZN5Eigen15DenseCoeffsBaseINS_6MatrixIfLi7ELi7ELi0ELi7ELi7EEELi1EE9copyCoeffINS_17CoeffBasedProductIRKS2_S7_Li6EEEEEviiRKNS_9DenseBaseIT_EE
0002174d   _ZN5Eigen15DenseCoeffsBaseINS_6MatrixIfLi7ELi7ELi0ELi7ELi7EEELi1EE9copyCoeffINS_17CoeffBasedProductIS2_RKS2_Li6EEEEEviiRKNS_9DenseBaseIT_EE
00023735   _ZN5Eigen15DenseCoeffsBaseINS_6MatrixIfLi7ELi7ELi0ELi7ELi7EEELi1EE9copyCoeffIS2_EEviRKNS_9DenseBaseIT_EE
0002823f   _ZN5Eigen15DenseCoeffsBaseINS_6MatrixIfLi7ELi7ELi0ELi7ELi7EEELi1EEclEii
00021f03   _ZN5Eigen15DenseCoeffsBaseINS_6MatrixIfLi7ELi7ELi1ELi7ELi7EEELi1EE21copyCoeffByOuterInnerINS_17CoeffBasedProductIRKNS1_IfLi7ELi7ELi0ELi7ELi7EEEKNS_9TransposeIS6_EELi6EEEEEviiRKNS_9DenseBaseIT_EE
0002178b   _ZN5Eigen15DenseCoeffsBaseINS_6MatrixIfLi7ELi7ELi1ELi7ELi7EEELi1EE9copyCoeffINS_17CoeffBasedProductIRKNS1_IfLi7ELi7ELi0ELi7ELi7EEEKNS_9TransposeIS6_EELi6EEEEEviiRKNS_9DenseBaseIT_EE
00004cbf   _ZN5Eigen15PlainObjectBaseINS_6MatrixIdLin1ELin1ELi0ELin1ELin1EEEE22_check_template_paramsEv
00025c3f   _ZN5Eigen15PlainObjectBaseINS_6MatrixIdLin1ELin1ELi0ELin1ELin1EEEE6_init2IiiEEviiPNS_8internal9enable_ifILb1ET_E4typeE
0002341b   _ZN5Eigen15PlainObjectBaseINS_6MatrixIdLin1ELin1ELi0ELin1ELin1EEEE6resizeEii
0002375d   _ZN5Eigen15PlainObjectBaseINS_6MatrixIdLin1ELin1ELi0ELin1ELin1EEEE8coeffRefEii
00028b4f   _ZN5Eigen15PlainObjectBaseINS_6MatrixIdLin1ELin1ELi0ELin1ELin1EEEEC1Ev
0002a71b   _ZN5Eigen15PlainObjectBaseINS_6MatrixIdLin1ELin1ELi0ELin1ELin1EEEEC2Ev
00029ef3   _ZN5Eigen15PlainObjectBaseINS_6MatrixIdLin1ELin1ELi0ELin1ELin1EEEED1Ev
0002a727   _ZN5Eigen15PlainObjectBaseINS_6MatrixIdLin1ELin1ELi0ELin1ELin1EEEED2Ev
0002524d   _ZN5Eigen15PlainObjectBaseINS_6MatrixIfLi3ELi1ELi0ELi3ELi1EEEE10lazyAssignINS_13CwiseBinaryOpINS_8internal20scalar_difference_opIfEEKS2_S9_EEEERS2_RKNS_9DenseBaseIT_EE
0002526b   _ZN5Eigen15PlainObjectBaseINS_6MatrixIfLi3ELi1ELi0ELi3ELi1EEEE10lazyAssignINS_14CwiseNullaryOpINS_8internal18scalar_constant_opIfEES2_EEEERS2_RKNS_9DenseBaseIT_EE
0002080b   _ZN5Eigen15PlainObjectBaseINS_6MatrixIfLi3ELi1ELi0ELi3ELi1EEEE10resizeLikeINS_13CwiseBinaryOpINS_8internal20scalar_difference_opIfEEKS2_S9_EEEEvRKNS_9EigenBaseIT_EE
00020853   _ZN5Eigen15PlainObjectBaseINS_6MatrixIfLi3ELi1ELi0ELi3ELi1EEEE10resizeLikeINS_14CwiseNullaryOpINS_8internal18scalar_constant_opIfEES2_EEEEvRKNS_9EigenBaseIT_EE
00025289   _ZN5Eigen15PlainObjectBaseINS_6MatrixIfLi3ELi1ELi0ELi3ELi1EEEE12_set_noaliasINS_13CwiseBinaryOpINS_8internal20scalar_difference_opIfEEKS2_S9_EEEERS2_RKNS_9DenseBaseIT_EE
000252a7   _ZN5Eigen15PlainObjectBaseINS_6MatrixIfLi3ELi1ELi0ELi3ELi1EEEE12_set_noaliasINS_14CwiseNullaryOpINS_8internal18scalar_constant_opIfEES2_EEEERS2_RKNS_9DenseBaseIT_EE
00028fd3   _ZN5Eigen15PlainObjectBaseINS_6MatrixIfLi3ELi1ELi0ELi3ELi1EEEE13_set_selectorINS_13CwiseBinaryOpINS_8internal20scalar_difference_opIfEEKS2_S9_EEEEvRKT_RKNS6_10false_typeE
00028fe5   _ZN5Eigen15PlainObjectBaseINS_6MatrixIfLi3ELi1ELi0ELi3ELi1EEEE13_set_selectorINS_14CwiseNullaryOpINS_8internal18scalar_constant_opIfEES2_EEEEvRKT_RKNS6_10false_typeE
0002939f   _ZN5Eigen15PlainObjectBaseINS_6MatrixIfLi3ELi1ELi0ELi3ELi1EEEE16_resize_to_matchINS_13CwiseBinaryOpINS_8internal20scalar_difference_opIfEEKS2_S9_EEEEvRKNS_9EigenBaseIT_EE
000293af   _ZN5Eigen15PlainObjectBaseINS_6MatrixIfLi3ELi1ELi0ELi3ELi1EEEE16_resize_to_matchINS_14CwiseNullaryOpINS_8internal18scalar_constant_opIfEES2_EEEEvRKNS_9EigenBaseIT_EE
00006923   _ZN5Eigen15PlainObjectBaseINS_6MatrixIfLi3ELi1ELi0ELi3ELi1EEEE22_check_template_paramsEv
000252c5   _ZN5Eigen15PlainObjectBaseINS_6MatrixIfLi3ELi1ELi0ELi3ELi1EEEE4_setINS_13CwiseBinaryOpINS_8internal20scalar_difference_opIfEEKS2_S9_EEEERS2_RKNS_9DenseBaseIT_EE
000252e3   _ZN5Eigen15PlainObjectBaseINS_6MatrixIfLi3ELi1ELi0ELi3ELi1EEEE4_setINS_14CwiseNullaryOpINS_8internal18scalar_constant_opIfEES2_EEEERS2_RKNS_9DenseBaseIT_EE
00023445   _ZN5Eigen15PlainObjectBaseINS_6MatrixIfLi3ELi1ELi0ELi3ELi1EEEE6resizeEii
00028b63   _ZN5Eigen15PlainObjectBaseINS_6MatrixIfLi3ELi1ELi0ELi3ELi1EEEE8coeffRefEi
00028b77   _ZN5Eigen15PlainObjectBaseINS_6MatrixIfLi3ELi1ELi0ELi3ELi1EEEEC1Ev
0002a733   _ZN5Eigen15PlainObjectBaseINS_6MatrixIfLi3ELi1ELi0ELi3ELi1EEEEC2Ev
00025301   _ZN5Eigen15PlainObjectBaseINS_6MatrixIfLi3ELi3ELi0ELi3ELi3EEEE10lazyAssignINS_13CwiseBinaryOpINS_8internal13scalar_sum_opIfEEKNS_17CoeffBasedProductIRKNS1_IfLi3ELi7ELi0ELi3ELi7EEEKNS_9TransposeISA_EELi6EEEKS2_EEEERS2_RKNS_9DenseBaseIT_EE
0002531f   _ZN5Eigen15PlainObjectBaseINS_6MatrixIfLi3ELi3ELi0ELi3ELi3EEEE10lazyAssignINS_14CwiseNullaryOpINS_8internal18scalar_constant_opIfEES2_EEEERS2_RKNS_9DenseBaseIT_EE
0001ec4d   _ZN5Eigen15PlainObjectBaseINS_6MatrixIfLi3ELi3ELi0ELi3ELi3EEEE10resizeLikeINS_13CwiseBinaryOpINS_8internal13scalar_sum_opIfEEKNS_17CoeffBasedProductIRKNS1_IfLi3ELi7ELi0ELi3ELi7EEEKNS_9TransposeISA_EELi6EEEKS2_EEEEvRKNS_9EigenBaseIT_EE
0001eca1   _ZN5Eigen15PlainObjectBaseINS_6MatrixIfLi3ELi3ELi0ELi3ELi3EEEE10resizeLikeINS_14CwiseNullaryOpINS_8internal18scalar_constant_opIfEES2_EEEEvRKNS_9EigenBaseIT_EE
0002533d   _ZN5Eigen15PlainObjectBaseINS_6MatrixIfLi3ELi3ELi0ELi3ELi3EEEE12_set_noaliasINS_13CwiseBinaryOpINS_8internal13scalar_sum_opIfEEKNS_17CoeffBasedProductIRKNS1_IfLi3ELi7ELi0ELi3ELi7EEEKNS_9TransposeISA_EELi6EEEKS2_EEEERS2_RKNS_9DenseBaseIT_EE
0002535b   _ZN5Eigen15PlainObjectBaseINS_6MatrixIfLi3ELi3ELi0ELi3ELi3EEEE12_set_noaliasINS_14CwiseNullaryOpINS_8internal18scalar_constant_opIfEES2_EEEERS2_RKNS_9DenseBaseIT_EE
00028ff7   _ZN5Eigen15PlainObjectBaseINS_6MatrixIfLi3ELi3ELi0ELi3ELi3EEEE13_set_selectorINS_13CwiseBinaryOpINS_8internal13scalar_sum_opIfEEKNS_17CoeffBasedProductIRKNS1_IfLi3ELi7ELi0ELi3ELi7EEEKNS_9TransposeISA_EELi6EEEKS2_EEEEvRKT_RKNS6_10false_typeE
00029009   _ZN5Eigen15PlainObjectBaseINS_6MatrixIfLi3ELi3ELi0ELi3ELi3EEEE13_set_selectorINS_14CwiseNullaryOpINS_8internal18scalar_constant_opIfEES2_EEEEvRKT_RKNS6_10false_typeE
000293bf   _ZN5Eigen15PlainObjectBaseINS_6MatrixIfLi3ELi3ELi0ELi3ELi3EEEE16_resize_to_matchINS_13CwiseBinaryOpINS_8internal13scalar_sum_opIfEEKNS_17CoeffBasedProductIRKNS1_IfLi3ELi7ELi0ELi3ELi7EEEKNS_9TransposeISA_EELi6EEEKS2_EEEEvRKNS_9EigenBaseIT_EE
000293cf   _ZN5Eigen15PlainObjectBaseINS_6MatrixIfLi3ELi3ELi0ELi3ELi3EEEE16_resize_to_matchINS_14CwiseNullaryOpINS_8internal18scalar_constant_opIfEES2_EEEEvRKNS_9EigenBaseIT_EE
0000891f   _ZN5Eigen15PlainObjectBaseINS_6MatrixIfLi3ELi3ELi0ELi3ELi3EEEE22_check_template_paramsEv
00025379   _ZN5Eigen15PlainObjectBaseINS_6MatrixIfLi3ELi3ELi0ELi3ELi3EEEE4_setINS_13CwiseBinaryOpINS_8internal13scalar_sum_opIfEEKNS_17CoeffBasedProductIRKNS1_IfLi3ELi7ELi0ELi3ELi7EEEKNS_9TransposeISA_EELi6EEEKS2_EEEERS2_RKNS_9DenseBaseIT_EE
00025397   _ZN5Eigen15PlainObjectBaseINS_6MatrixIfLi3ELi3ELi0ELi3ELi3EEEE4_setINS_14CwiseNullaryOpINS_8internal18scalar_constant_opIfEES2_EEEERS2_RKNS_9DenseBaseIT_EE
0002346f   _ZN5Eigen15PlainObjectBaseINS_6MatrixIfLi3ELi3ELi0ELi3ELi3EEEE6resizeEii
00028b8b   _ZN5Eigen15PlainObjectBaseINS_6MatrixIfLi3ELi3ELi0ELi3ELi3EEEE8coeffRefEi
00023cab   _ZN5Eigen15PlainObjectBaseINS_6MatrixIfLi3ELi3ELi0ELi3ELi3EEEE8coeffRefEii
00028b9f   _ZN5Eigen15PlainObjectBaseINS_6MatrixIfLi3ELi3ELi0ELi3ELi3EEEEC1Ev
0002a73f   _ZN5Eigen15PlainObjectBaseINS_6MatrixIfLi3ELi3ELi0ELi3ELi3EEEEC2Ev
000253b5   _ZN5Eigen15PlainObjectBaseINS_6MatrixIfLi3ELi3ELi1ELi3ELi3EEEE10lazyAssignINS_17CoeffBasedProductIRKNS1_IfLi3ELi7ELi0ELi3ELi7EEEKNS_9TransposeIS6_EELi6EEEEERS2_RKNS_9DenseBaseIT_EE
0001ecf5   _ZN5Eigen15PlainObjectBaseINS_6MatrixIfLi3ELi3ELi1ELi3ELi3EEEE10resizeLikeINS_17CoeffBasedProductIRKNS1_IfLi3ELi7ELi0ELi3ELi7EEEKNS_9TransposeIS6_EELi6EEEEEvRKNS_9EigenBaseIT_EE
000253d3   _ZN5Eigen15PlainObjectBaseINS_6MatrixIfLi3ELi3ELi1ELi3ELi3EEEE12_set_noaliasINS_17CoeffBasedProductIRKNS1_IfLi3ELi7ELi0ELi3ELi7EEEKNS_9TransposeIS6_EELi6EEEEERS2_RKNS_9DenseBaseIT_EE
000293df   _ZN5Eigen15PlainObjectBaseINS_6MatrixIfLi3ELi3ELi1ELi3ELi3EEEE16_resize_to_matchINS_17CoeffBasedProductIRKNS1_IfLi3ELi7ELi0ELi3ELi7EEEKNS_9TransposeIS6_EELi6EEEEEvRKNS_9EigenBaseIT_EE
00009757   _ZN5Eigen15PlainObjectBaseINS_6MatrixIfLi3ELi3ELi1ELi3ELi3EEEE22_check_template_paramsEv
00023499   _ZN5Eigen15PlainObjectBaseINS_6MatrixIfLi3ELi3ELi1ELi3ELi3EEEE6resizeEii
00023cd1   _ZN5Eigen15PlainObjectBaseINS_6MatrixIfLi3ELi3ELi1ELi3ELi3EEEE8coeffRefEii
00023cf7   _ZN5Eigen15PlainObjectBaseINS_6MatrixIfLi3ELi3ELi1ELi3ELi3EEEEC1Eiii
00028bb3   _ZN5Eigen15PlainObjectBaseINS_6MatrixIfLi3ELi3ELi1ELi3ELi3EEEEC1Ev
000253f1   _ZN5Eigen15PlainObjectBaseINS_6MatrixIfLi3ELi3ELi1ELi3ELi3EEEEC2Eiii
0002a74b   _ZN5Eigen15PlainObjectBaseINS_6MatrixIfLi3ELi3ELi1ELi3ELi3EEEEC2Ev
0002540f   _ZN5Eigen15PlainObjectBaseINS_6MatrixIfLi3ELi7ELi0ELi3ELi7EEEE10lazyAssignINS_14CwiseNullaryOpINS_8internal18scalar_constant_opIfEES2_EEEERS2_RKNS_9DenseBaseIT_EE
0002542d   _ZN5Eigen15PlainObjectBaseINS_6MatrixIfLi3ELi7ELi0ELi3ELi7EEEE10lazyAssignINS_17CoeffBasedProductIRKS2_RKNS1_IfLi7ELi7ELi0ELi7ELi7EEELi6EEEEERS2_RKNS_9DenseBaseIT_EE
0001ed49   _ZN5Eigen15PlainObjectBaseINS_6MatrixIfLi3ELi7ELi0ELi3ELi7EEEE10resizeLikeINS_14CwiseNullaryOpINS_8internal18scalar_constant_opIfEES2_EEEEvRKNS_9EigenBaseIT_EE
0001ed9d   _ZN5Eigen15PlainObjectBaseINS_6MatrixIfLi3ELi7ELi0ELi3ELi7EEEE10resizeLikeINS_17CoeffBasedProductIRKS2_RKNS1_IfLi7ELi7ELi0ELi7ELi7EEELi6EEEEEvRKNS_9EigenBaseIT_EE
0002544b   _ZN5Eigen15PlainObjectBaseINS_6MatrixIfLi3ELi7ELi0ELi3ELi7EEEE12_set_noaliasINS_14CwiseNullaryOpINS_8internal18scalar_constant_opIfEES2_EEEERS2_RKNS_9DenseBaseIT_EE
0002901b   _ZN5Eigen15PlainObjectBaseINS_6MatrixIfLi3ELi7ELi0ELi3ELi7EEEE13_set_selectorINS_14CwiseNullaryOpINS_8internal18scalar_constant_opIfEES2_EEEEvRKT_RKNS6_10false_typeE
000293ef   _ZN5Eigen15PlainObjectBaseINS_6MatrixIfLi3ELi7ELi0ELi3ELi7EEEE16_resize_to_matchINS_14CwiseNullaryOpINS_8internal18scalar_constant_opIfEES2_EEEEvRKNS_9EigenBaseIT_EE
000293ff   _ZN5Eigen15PlainObjectBaseINS_6MatrixIfLi3ELi7ELi0ELi3ELi7EEEE16_resize_to_matchINS_17CoeffBasedProductIRKS2_RKNS1_IfLi7ELi7ELi0ELi7ELi7EEELi6EEEEEvRKNS_9EigenBaseIT_EE
0000a3bf   _ZN5Eigen15PlainObjectBaseINS_6MatrixIfLi3ELi7ELi0ELi3ELi7EEEE22_check_template_paramsEv
00025469   _ZN5Eigen15PlainObjectBaseINS_6MatrixIfLi3ELi7ELi0ELi3ELi7EEEE4_setINS_14CwiseNullaryOpINS_8internal18scalar_constant_opIfEES2_EEEERS2_RKNS_9DenseBaseIT_EE
000234c3   _ZN5Eigen15PlainObjectBaseINS_6MatrixIfLi3ELi7ELi0ELi3ELi7EEEE6resizeEii
00028bc7   _ZN5Eigen15PlainObjectBaseINS_6MatrixIfLi3ELi7ELi0ELi3ELi7EEEE8coeffRefEi
00023d1d   _ZN5Eigen15PlainObjectBaseINS_6MatrixIfLi3ELi7ELi0ELi3ELi7EEEE8coeffRefEii
00028bdb   _ZN5Eigen15PlainObjectBaseINS_6MatrixIfLi3ELi7ELi0ELi3ELi7EEEEC1Ev
0002a757   _ZN5Eigen15PlainObjectBaseINS_6MatrixIfLi3ELi7ELi0ELi3ELi7EEEEC2Ev
00025487   _ZN5Eigen15PlainObjectBaseINS_6MatrixIfLi7ELi1ELi0ELi7ELi1EEEE10lazyAssignINS_13CwiseBinaryOpINS_8internal13scalar_sum_opIfEEKS2_KNS_17CoeffBasedProductIRKNS1_IfLi7ELi3ELi0ELi7ELi3EEERKNS1_IfLi3ELi1ELi0ELi3ELi1EEELi6EEEEEEERS2_RKNS_9DenseBaseIT_EE
000254a5   _ZN5Eigen15PlainObjectBaseINS_6MatrixIfLi7ELi1ELi0ELi7ELi1EEEE10lazyAssignINS_14CwiseNullaryOpINS_8internal18scalar_constant_opIfEES2_EEEERS2_RKNS_9DenseBaseIT_EE
000254c3   _ZN5Eigen15PlainObjectBaseINS_6MatrixIfLi7ELi1ELi0ELi7ELi1EEEE10lazyAssignINS_17CoeffBasedProductIRKNS1_IfLi7ELi3ELi0ELi7ELi3EEERKNS1_IfLi3ELi1ELi0ELi3ELi1EEELi6EEEEERS2_RKNS_9DenseBaseIT_EE
0002089b   _ZN5Eigen15PlainObjectBaseINS_6MatrixIfLi7ELi1ELi0ELi7ELi1EEEE10resizeLikeINS_13CwiseBinaryOpINS_8internal13scalar_sum_opIfEEKS2_KNS_17CoeffBasedProductIRKNS1_IfLi7ELi3ELi0ELi7ELi3EEERKNS1_IfLi3ELi1ELi0ELi3ELi1EEELi6EEEEEEEvRKNS_9EigenBaseIT_EE
000208e3   _ZN5Eigen15PlainObjectBaseINS_6MatrixIfLi7ELi1ELi0ELi7ELi1EEEE10resizeLikeINS_14CwiseNullaryOpINS_8internal18scalar_constant_opIfEES2_EEEEvRKNS_9EigenBaseIT_EE
0002092b   _ZN5Eigen15PlainObjectBaseINS_6MatrixIfLi7ELi1ELi0ELi7ELi1EEEE10resizeLikeINS_17CoeffBasedProductIRKNS1_IfLi7ELi3ELi0ELi7ELi3EEERKNS1_IfLi3ELi1ELi0ELi3ELi1EEELi6EEEEEvRKNS_9EigenBaseIT_EE
000254e1   _ZN5Eigen15PlainObjectBaseINS_6MatrixIfLi7ELi1ELi0ELi7ELi1EEEE12_set_noaliasINS_13CwiseBinaryOpINS_8internal13scalar_sum_opIfEEKS2_KNS_17CoeffBasedProductIRKNS1_IfLi7ELi3ELi0ELi7ELi3EEERKNS1_IfLi3ELi1ELi0ELi3ELi1EEELi6EEEEEEERS2_RKNS_9DenseBaseIT_EE
000254ff   _ZN5Eigen15PlainObjectBaseINS_6MatrixIfLi7ELi1ELi0ELi7ELi1EEEE12_set_noaliasINS_14CwiseNullaryOpINS_8internal18scalar_constant_opIfEES2_EEEERS2_RKNS_9DenseBaseIT_EE
0002551d   _ZN5Eigen15PlainObjectBaseINS_6MatrixIfLi7ELi1ELi0ELi7ELi1EEEE12_set_noaliasINS_17CoeffBasedProductIRKNS1_IfLi7ELi3ELi0ELi7ELi3EEERKNS1_IfLi3ELi1ELi0ELi3ELi1EEELi6EEEEERS2_RKNS_9DenseBaseIT_EE
0002902d   _ZN5Eigen15PlainObjectBaseINS_6MatrixIfLi7ELi1ELi0ELi7ELi1EEEE13_set_selectorINS_13CwiseBinaryOpINS_8internal13scalar_sum_opIfEEKS2_KNS_17CoeffBasedProductIRKNS1_IfLi7ELi3ELi0ELi7ELi3EEERKNS1_IfLi3ELi1ELi0ELi3ELi1EEELi6EEEEEEEvRKT_RKNS6_10false_typeE
0002903f   _ZN5Eigen15PlainObjectBaseINS_6MatrixIfLi7ELi1ELi0ELi7ELi1EEEE13_set_selectorINS_14CwiseNullaryOpINS_8internal18scalar_constant_opIfEES2_EEEEvRKT_RKNS6_10false_typeE
0002940f   _ZN5Eigen15PlainObjectBaseINS_6MatrixIfLi7ELi1ELi0ELi7ELi1EEEE16_resize_to_matchINS_13CwiseBinaryOpINS_8internal13scalar_sum_opIfEEKS2_KNS_17CoeffBasedProductIRKNS1_IfLi7ELi3ELi0ELi7ELi3EEERKNS1_IfLi3ELi1ELi0ELi3ELi1EEELi6EEEEEEEvRKNS_9EigenBaseIT_EE
0002941f   _ZN5Eigen15PlainObjectBaseINS_6MatrixIfLi7ELi1ELi0ELi7ELi1EEEE16_resize_to_matchINS_14CwiseNullaryOpINS_8internal18scalar_constant_opIfEES2_EEEEvRKNS_9EigenBaseIT_EE
0002942f   _ZN5Eigen15PlainObjectBaseINS_6MatrixIfLi7ELi1ELi0ELi7ELi1EEEE16_resize_to_matchINS_17CoeffBasedProductIRKNS1_IfLi7ELi3ELi0ELi7ELi3EEERKNS1_IfLi3ELi1ELi0ELi3ELi1EEELi6EEEEEvRKNS_9EigenBaseIT_EE
0000d387   _ZN5Eigen15PlainObjectBaseINS_6MatrixIfLi7ELi1ELi0ELi7ELi1EEEE22_check_template_paramsEv
0002553b   _ZN5Eigen15PlainObjectBaseINS_6MatrixIfLi7ELi1ELi0ELi7ELi1EEEE4_setINS_13CwiseBinaryOpINS_8internal13scalar_sum_opIfEEKS2_KNS_17CoeffBasedProductIRKNS1_IfLi7ELi3ELi0ELi7ELi3EEERKNS1_IfLi3ELi1ELi0ELi3ELi1EEELi6EEEEEEERS2_RKNS_9DenseBaseIT_EE
00025559   _ZN5Eigen15PlainObjectBaseINS_6MatrixIfLi7ELi1ELi0ELi7ELi1EEEE4_setINS_14CwiseNullaryOpINS_8internal18scalar_constant_opIfEES2_EEEERS2_RKNS_9DenseBaseIT_EE
000234ed   _ZN5Eigen15PlainObjectBaseINS_6MatrixIfLi7ELi1ELi0ELi7ELi1EEEE6resizeEii
00028bef   _ZN5Eigen15PlainObjectBaseINS_6MatrixIfLi7ELi1ELi0ELi7ELi1EEEE8coeffRefEi
00023d43   _ZN5Eigen15PlainObjectBaseINS_6MatrixIfLi7ELi1ELi0ELi7ELi1EEEE8coeffRefEii
00023d69   _ZN5Eigen15PlainObjectBaseINS_6MatrixIfLi7ELi1ELi0ELi7ELi1EEEEC1Eiii
00028c03   _ZN5Eigen15PlainObjectBaseINS_6MatrixIfLi7ELi1ELi0ELi7ELi1EEEEC1Ev
00025577   _ZN5Eigen15PlainObjectBaseINS_6MatrixIfLi7ELi1ELi0ELi7ELi1EEEEC2Eiii
0002a763   _ZN5Eigen15PlainObjectBaseINS_6MatrixIfLi7ELi1ELi0ELi7ELi1EEEEC2Ev
00025595   _ZN5Eigen15PlainObjectBaseINS_6MatrixIfLi7ELi3ELi0ELi7ELi3EEEE10lazyAssignINS_14CwiseNullaryOpINS_8internal18scalar_constant_opIfEES2_EEEERS2_RKNS_9DenseBaseIT_EE
000255b3   _ZN5Eigen15PlainObjectBaseINS_6MatrixIfLi7ELi3ELi0ELi7ELi3EEEE10lazyAssignINS_17CoeffBasedProductIRKNS1_IfLi7ELi3ELi1ELi7ELi3EEENS1_IfLi3ELi3ELi0ELi3ELi3EEELi6EEEEERS2_RKNS_9DenseBaseIT_EE
000255d1   _ZN5Eigen15PlainObjectBaseINS_6MatrixIfLi7ELi3ELi0ELi7ELi3EEEE10lazyAssignIS2_EERS2_RKNS_9DenseBaseIT_EE
0001edf1   _ZN5Eigen15PlainObjectBaseINS_6MatrixIfLi7ELi3ELi0ELi7ELi3EEEE10resizeLikeINS_14CwiseNullaryOpINS_8internal18scalar_constant_opIfEES2_EEEEvRKNS_9EigenBaseIT_EE
0001ee45   _ZN5Eigen15PlainObjectBaseINS_6MatrixIfLi7ELi3ELi0ELi7ELi3EEEE10resizeLikeINS_17CoeffBasedProductIRKNS1_IfLi7ELi3ELi1ELi7ELi3EEENS1_IfLi3ELi3ELi0ELi3ELi3EEELi6EEEEEvRKNS_9EigenBaseIT_EE
0001ee99   _ZN5Eigen15PlainObjectBaseINS_6MatrixIfLi7ELi3ELi0ELi7ELi3EEEE10resizeLikeIS2_EEvRKNS_9EigenBaseIT_EE
