******************************************************************************
                  TI ARM Linker PC v5.1.6                      
******************************************************************************
>> Linked Sat Nov 15 12:24:39 2014

OUTPUT FILE NAME:   <BLDC.out>
ENTRY POINT SYMBOL: "_c_int00"  address: 0000505d


MEMORY CONFIGURATION

         name            origin    length      used     unused   attr    fill
----------------------  --------  ---------  --------  --------  ----  --------
  FLASH                 00000000   00040000  00006350  00039cb0  R  X
  SRAM                  20000000   00008000  00004aa0  00003560  RW X


SEGMENT ALLOCATION MAP

run origin  load origin   length   init length attrs members
----------  ----------- ---------- ----------- ----- -------
00000000    00000000    00006350   00006350    r-x
  00000000    00000000    0000026c   0000026c    r-- .intvecs
  0000026c    0000026c    0000583c   0000583c    r-x .text
  00005aa8    00005aa8    000007fc   000007fc    r-- .const
  000062a4    000062a4    00000004   00000004    r-- .init_array
  000062a8    000062a8    000000a8   000000a8    r-- .cinit
20000000    20000000    00004aa4   00000000    rw-
  20000000    20000000    0000026c   00000000    rw- .vtable
  20000270    20000270    00002000   00000000    rw- .sysmem
  20002270    20002270    00001668   00000000    rw- .bss
  200038d8    200038d8    00001000   00000000    rw- .stack
  200048d8    200048d8    000001cc   00000000    rw- .data


SECTION ALLOCATION MAP

 output                                  attributes/
section   page    origin      length       input sections
--------  ----  ----------  ----------   ----------------
.intvecs   0    00000000    0000026c     
                  00000000    0000026c     tm4c123ah6pm_startup_ccs.obj (.intvecs)

.text      0    0000026c    0000583c     
                  0000026c    000007dc     PWM.obj (.text)
                  00000a48    00000530     CommutationController.obj (.text)
                  00000f78    000004ee     ADC.obj (.text)
                  00001466    00000002     driverlib.lib  : interrupt.obj (.text:_IntDefaultHandler)
                  00001468    000004a8     rtsv7M4_T_le_v4SPD16_eabi.lib : pow.obj (.text)
                  00001910    000003cc                                   : memory.obj (.text)
                  00001cdc    0000037a     SPISlave.obj (.text:_ZN13SPISlaveClass3ISREv)
                  00002056    0000035a     Commutator.obj (.text)
                  000023b0    000002ec     rtsv7M4_T_le_v4SPD16_eabi.lib : xlog.obj (.text)
                  0000269c    00000282     SPISlave.obj (.text)
                  0000291e    0000023e     driverlib.lib  : gpio.obj (.text:GPIOPadConfigSet)
                  00002b5c    0000023e     MessageParser.obj (.text)
                  00002d9a    00000002     rtsv7M4_T_le_v4SPD16_eabi.lib : newhandler.obj (.text)
                  00002d9c    00000200     main.obj (.text)
                  00002f9c    000001fc     rtsv7M4_T_le_v4SPD16_eabi.lib : xexp.obj (.text)
                  00003198    000001e8     driverlib.lib  : sysctl.obj (.text:SysCtlClockGet)
                  00003380    000001dc     StartupSequencer.obj (.text)
                  0000355c    000001dc     driverlib.lib  : sysctl.obj (.text:SysCtlClockSet)
                  00003738    000001b6     rtsv7M4_T_le_v4SPD16_eabi.lib : fd_add_t2.obj (.text)
                  000038ee    0000016e     Motor.obj (.text)
                  00003a5c    00000140     ZCDetector.obj (.text)
                  00003b9c    0000013c     BLDC.obj (.text)
                  00003cd8    00000136     rtsv7M4_T_le_v4SPD16_eabi.lib : fd_div_t2.obj (.text)
                  00003e0e    00000002     --HOLE-- [fill = 0]
                  00003e10    00000110                                   : xdscale.obj (.text)
                  00003f20    00000108     LED.obj (.text)
                  00004028    00000104     IIRFilter.obj (.text)
                  0000412c    000000fc     rtsv7M4_T_le_v4SPD16_eabi.lib : fd_mul_t2.obj (.text)
                  00004228    000000f4                                   : dtor_list.obj (.text)
                  0000431c    000000ee     driverlib.lib  : adc.obj (.text:ADCSequenceStepConfigure)
                  0000440a    00000002     --HOLE-- [fill = 0]
                  0000440c    000000c4     rtsv7M4_T_le_v4SPD16_eabi.lib : xdint.obj (.text)
                  000044d0    000000c4                                   : xdnorm.obj (.text)
                  00004594    000000bc                                   : typeinfo_.obj (.text)
                  00004650    0000009c                                   : memcpy_t2.obj (.text)
                  000046ec    00000094     driverlib.lib  : timer.obj (.text:_TimerIntNumberGet)
                  00004780    00000094     rtsv7M4_T_le_v4SPD16_eabi.lib : auto_init.obj (.text)
                  00004814    0000008c     driverlib.lib  : ssi.obj (.text:SSIConfigSetExpClk)
                  000048a0    0000008c                    : timer.obj (.text:TimerConfigure)
                  0000492c    00000086     rtsv7M4_T_le_v4SPD16_eabi.lib : fd_cmp_t2.obj (.text:__aeabi_cdcmple)
                  000049b2    00000080     driverlib.lib  : adc.obj (.text:ADCSequenceConfigure)
                  00004a32    00000002     --HOLE-- [fill = 0]
                  00004a34    00000080                    : interrupt.obj (.text:IntDisable)
                  00004ab4    00000080                    : interrupt.obj (.text:IntEnable)
                  00004b34    00000080                    : ssi.obj (.text:_SSIIntNumberGet)
                  00004bb4    00000074     SPISlave.obj (.text:_ZN15RingBufferClassI9message_sE4pushES0_)
                  00004c28    00000070     driverlib.lib  : adc.obj (.text:_ADCIntNumberGet)
                  00004c98    00000068                    : gpio.obj (.text:GPIOPinConfigure)
                  00004d00    00000068     SPISlave.obj (.text:_ZN15RingBufferClassI9message_sE3popEPS0_)
                  00004d68    00000064     rtsv7M4_T_le_v4SPD16_eabi.lib : xdunscal.obj (.text)
                  00004dcc    0000005e                                   : copy_decompress_rle.obj (.text)
                  00004e2a    0000005c     driverlib.lib  : gpio.obj (.text:GPIODirModeSet)
                  00004e86    00000002     --HOLE-- [fill = 0]
                  00004e88    0000005c                    : interrupt.obj (.text:IntRegister)
                  00004ee4    00000054                    : interrupt.obj (.text:IntPrioritySet)
                  00004f38    0000004a                    : pwm.obj (.text:PWMGenConfigure)
                  00004f82    0000004a                    : pwm.obj (.text:PWMPulseWidthSet)
                  00004fcc    00000048     SPISlave.obj (.text:_ZN15RingBufferClassIhE13returnToQueueEh)
                  00005014    00000048     SPISlave.obj (.text:_ZN15RingBufferClassIhE4pushEh)
                  0000505c    00000048     rtsv7M4_T_le_v4SPD16_eabi.lib : boot.obj (.text)
                  000050a4    00000048                                   : fd_toi_t2.obj (.text)
                  000050ec    00000044     SPISlave.obj (.text:_ZN15RingBufferClassIhE3popEPh)
                  00005130    00000044     rtsv7M4_T_le_v4SPD16_eabi.lib : cpy_tbl.obj (.text)
                  00005174    00000044                                   : exit.obj (.text)
                  000051b8    00000044                                   : fd_tou_t2.obj (.text)
                  000051fc    00000042     driverlib.lib  : adc.obj (.text:ADCSequenceDataGet)
                  0000523e    00000002     --HOLE-- [fill = 0]
                  00005240    00000040                    : sysctl.obj (.text:SysCtlPeripheralDisable)
                  00005280    00000040                    : sysctl.obj (.text:SysCtlPeripheralEnable)
                  000052c0    00000040     rtsv7M4_T_le_v4SPD16_eabi.lib : signal.obj (.text)
                  00005300    00000038                                   : fs_tod_t2.obj (.text)
                  00005338    00000034                                   : feraiseexcept.obj (.text)
                  0000536c    00000032     driverlib.lib  : pwm.obj (.text:PWMOutputInvert)
                  0000539e    00000032                    : pwm.obj (.text:PWMOutputState)
                  000053d0    00000030                    : pwm.obj (.text:PWMGenPeriodSet)
                  00005400    00000030     SPISlave.obj (.text:_ZN15RingBufferClassI9message_sEC1Ev)
                  00005430    00000030     ADC.obj (.text:retain)
                  00005460    00000030     CommutationController.obj (.text:retain)
                  00005490    00000030     rtsv7M4_T_le_v4SPD16_eabi.lib : xferaise.obj (.text)
                  000054c0    0000002e                                   : i_tofd_t2.obj (.text)
                  000054ee    0000002e                                   : raise.obj (.text)
                  0000551c    0000002c                                   : new_.obj (.text)
                  00005548    0000002a     driverlib.lib  : timer.obj (.text:TimerLoadSet)
                  00005572    0000002a     SPISlave.obj (.text:_ZN15RingBufferClassIhEC1Ev)
                  0000559c    00000028     driverlib.lib  : adc.obj (.text:ADCIntRegister)
                  000055c4    00000028                    : timer.obj (.text:TimerIntRegister)
                  000055ec    00000026                    : adc.obj (.text:ADCIntEnable)
                  00005612    00000024                    : gpio.obj (.text:GPIOPinTypeADC)
                  00005636    00000024                    : gpio.obj (.text:GPIOPinTypeGPIOOutput)
                  0000565a    00000024                    : gpio.obj (.text:GPIOPinTypePWM)
                  0000567e    00000024                    : gpio.obj (.text:GPIOPinTypeSSI)
                  000056a2    00000022                    : ssi.obj (.text:SSIDataGetNonBlocking)
                  000056c4    00000020                    : gpio.obj (.text:GPIOPinWrite)
                  000056e4    00000020                    : ssi.obj (.text:SSIDataPutNonBlocking)
                  00005704    00000020                    : sysctl.obj (.text:SysCtlPWMClockSet)
                  00005724    00000020     rtsv7M4_T_le_v4SPD16_eabi.lib : u_tofd_t2.obj (.text)
                  00005744    0000001e     driverlib.lib  : adc.obj (.text:ADCIntUnregister)
                  00005762    0000001e                    : pwm.obj (.text:PWMGenIntTrigEnable)
                  00005780    0000001e                    : ssi.obj (.text:SSIIntRegister)
                  0000579e    0000001e                    : ssi.obj (.text:SSIIntStatus)
                  000057bc    0000001e                    : timer.obj (.text:TimerDisable)
                  000057da    0000001e                    : timer.obj (.text:TimerEnable)
                  000057f8    0000001e                    : timer.obj (.text:TimerIntUnregister)
                  00005816    0000001c                    : adc.obj (.text:ADCIntDisable)
                  00005832    00000002     --HOLE-- [fill = 0]
                  00005834    0000001c                    : interrupt.obj (.text:IntUnregister)
                  00005850    0000001c                    : timer.obj (.text:TimerLoadGet)
                  0000586c    0000001c                    : timer.obj (.text:TimerValueGet)
                  00005888    0000001a                    : adc.obj (.text:ADCSequenceDisable)
                  000058a2    0000001a                    : adc.obj (.text:ADCSequenceEnable)
                  000058bc    0000001a                    : pwm.obj (.text:PWMGenDisable)
                  000058d6    0000001a                    : pwm.obj (.text:PWMGenEnable)
                  000058f0    0000001a     rtsv7M4_T_le_v4SPD16_eabi.lib : log.obj (.text)
                  0000590a    00000018     driverlib.lib  : ssi.obj (.text:SSIIntDisable)
                  00005922    00000018                    : ssi.obj (.text:SSIIntEnable)
                  0000593a    00000018                    : timer.obj (.text:TimerIntDisable)
                  00005952    00000018                    : timer.obj (.text:TimerIntEnable)
                  0000596a    00000018     SPISlave.obj (.text:retain)
                  00005982    00000002     --HOLE-- [fill = 0]
                  00005984    00000018     rtsv7M4_T_le_v4SPD16_eabi.lib : args_main.obj (.text)
                  0000599c    00000016     driverlib.lib  : adc.obj (.text:ADCIntClear)
                  000059b2    00000016                    : ssi.obj (.text:SSIEnable)
                  000059c8    00000016     SPISlave.obj (.text:_ZN15RingBufferClassI9message_sED0Ev)
                  000059de    00000016     SPISlave.obj (.text:_ZN15RingBufferClassIhED0Ev)
                  000059f4    00000014     rtsv7M4_T_le_v4SPD16_eabi.lib : _lock.obj (.text)
                  00005a08    00000012     driverlib.lib  : pwm.obj (.text:PWMSyncTimeBase)
                  00005a1a    00000012                    : pwm.obj (.text:PWMSyncUpdate)
                  00005a2c    00000012                    : ssi.obj (.text:SSIIntClear)
                  00005a3e    00000012                    : timer.obj (.text:TimerIntClear)
                  00005a50    00000012     rtsv7M4_T_le_v4SPD16_eabi.lib : copy_zero_init.obj (.text:decompress:ZI)
                  00005a62    0000000e                                   : copy_decompress_none.obj (.text:decompress:none)
                  00005a70    0000000c     SPISlave.obj (.text:_ZN15RingBufferClassI9message_sED1Ev)
                  00005a7c    0000000c     SPISlave.obj (.text:_ZN15RingBufferClassIhED1Ev)
                  00005a88    0000000c     tm4c123ah6pm_startup_ccs.obj (.text)
                  00005a94    00000008     rtsv7M4_T_le_v4SPD16_eabi.lib : delete.obj (.text)
                  00005a9c    00000006     driverlib.lib  : sysctl.obj (.text:SysCtlDelay)
                  00005aa2    00000006     rtsv7M4_T_le_v4SPD16_eabi.lib : copy_decompress_rle.obj (.text:decompress:rle24)

.const     0    00005aa8    000007fc     
                  00005aa8    000000a8     MessageParser.obj (.const)
                  00005b50    0000009c     driverlib.lib  : interrupt.obj (.const:g_pui32Regs)
                  00005bec    00000090                    : gpio.obj (.const:g_pui32GPIOBaseAddrs)
                  00005c7c    00000070                    : interrupt.obj (.const)
                  00005cec    0000006c                    : sysctl.obj (.const:g_pui32Xtals)
                  00005d58    00000060                    : timer.obj (.const:g_ppui32TimerIntMap)
                  00005db8    00000048                    : ssi.obj (.const)
                  00005e00    00000048     rtsv7M4_T_le_v4SPD16_eabi.lib : xexp.obj (.const)
                  00005e48    00000040     driverlib.lib  : timer.obj (.const:g_ppui32TimerIntMapSnowflake)
                  00005e88    00000038     rtsv7M4_T_le_v4SPD16_eabi.lib : xlog.obj (.const:p)
                  00005ec0    00000030                                   : xdint.obj (.const)
                  00005ef0    00000028                                   : typeinfo_.obj (.const:.typeinfo:_ZTSN10__cxxabiv123__fundamental_type_infoE)
                  00005f18    00000025                                   : typeinfo_.obj (.const:.typeinfo:_ZTSN10__cxxabiv120__si_class_type_infoE)
                  00005f3d    00000024                                   : typeinfo_.obj (.const:.typeinfo:_ZTSN10__cxxabiv119__pointer_type_infoE)
                  00005f61    00000022                                   : typeinfo_.obj (.const:.typeinfo:_ZTSN10__cxxabiv117__class_type_infoE)
                  00005f83    00000022                                   : typeinfo_.obj (.const:.typeinfo:_ZTSN10__cxxabiv117__pbase_type_infoE)
                  00005fa5    0000001e     SPISlave.obj (.const:.typeinfo:_ZTS15RingBufferClassI9message_sE)
                  00005fc3    0000001d     CommutationController.obj (.const:.typeinfo:_ZTS26CommutationControllerClass)
                  00005fe0    00000015     SPISlave.obj (.const:.typeinfo:_ZTS15RingBufferClassIhE)
                  00005ff5    00000015     MessageParser.obj (.const:.typeinfo:_ZTS18MessageParserClass)
                  0000600a    00000013     StartupSequencer.obj (.const:.typeinfo:_ZTS16StartupSequencer)
                  0000601d    00000012     Commutator.obj (.const:.typeinfo:_ZTS15CommutatorClass)
                  0000602f    00000012     ZCDetector.obj (.const:.typeinfo:_ZTS15ZCDetectorClass)
                  00006041    00000011     IIRFilter.obj (.const:.typeinfo:_ZTS14IIRFilterClass)
                  00006052    00000002     rtsv7M4_T_le_v4SPD16_eabi.lib : typeinfo_.obj (.const:.typeinfo:_ZTSe)
                  00006054    00000010                                   : typeinfo_.obj (.const:.typeinfo:_ZTIPKe)
                  00006064    00000010     SPISlave.obj (.const:.typeinfo:_ZTS13SPISlaveClass)
                  00006074    00000010     Motor.obj (.const:_ZTV10MotorClass)
                  00006084    00000010     SPISlave.obj (.const:_ZTV13SPISlaveClass)
                  00006094    00000010     IIRFilter.obj (.const:_ZTV14IIRFilterClass)
                  000060a4    00000010     Commutator.obj (.const:_ZTV15CommutatorClass)
                  000060b4    00000010     SPISlave.obj (.const:_ZTV15RingBufferClassI9message_sE)
                  000060c4    00000010     SPISlave.obj (.const:_ZTV15RingBufferClassIhE)
                  000060d4    00000010     ZCDetector.obj (.const:_ZTV15ZCDetectorClass)
                  000060e4    00000010     StartupSequencer.obj (.const:_ZTV16StartupSequencer)
                  000060f4    00000010     MessageParser.obj (.const:_ZTV18MessageParserClass)
                  00006104    00000010     CommutationController.obj (.const:_ZTV26CommutationControllerClass)
                  00006114    00000010     ADC.obj (.const:_ZTV8ADCClass)
                  00006124    00000010     LED.obj (.const:_ZTV8LEDClass)
                  00006134    00000010     PWM.obj (.const:_ZTV8PWMClass)
                  00006144    00000010     BLDC.obj (.const:_ZTV9BLDCClass)
                  00006154    00000010     rtsv7M4_T_le_v4SPD16_eabi.lib : typeinfo_.obj (.const:_ZTVN10__cxxabiv117__class_type_infoE)
                  00006164    00000010                                   : typeinfo_.obj (.const:_ZTVN10__cxxabiv119__pointer_type_infoE)
                  00006174    00000010                                   : typeinfo_.obj (.const:_ZTVN10__cxxabiv120__si_class_type_infoE)
                  00006184    00000010                                   : typeinfo_.obj (.const:_ZTVN10__cxxabiv123__fundamental_type_infoE)
                  00006194    0000000d     Motor.obj (.const:.typeinfo:_ZTS10MotorClass)
                  000061a1    0000000d     rtsv7M4_T_le_v4SPD16_eabi.lib : typeinfo_.obj (.const:.typeinfo:_ZTSSt9type_info)
                  000061ae    00000002     --HOLE-- [fill = 0]
                  000061b0    0000000c                                   : typeinfo_.obj (.const:.typeinfo:_ZTIN10__cxxabiv117__class_type_infoE)
                  000061bc    0000000c                                   : typeinfo_.obj (.const:.typeinfo:_ZTIN10__cxxabiv117__pbase_type_infoE)
                  000061c8    0000000c                                   : typeinfo_.obj (.const:.typeinfo:_ZTIN10__cxxabiv119__pointer_type_infoE)
                  000061d4    0000000c                                   : typeinfo_.obj (.const:.typeinfo:_ZTIN10__cxxabiv120__si_class_type_infoE)
                  000061e0    0000000c                                   : typeinfo_.obj (.const:.typeinfo:_ZTIN10__cxxabiv123__fundamental_type_infoE)
                  000061ec    0000000b     BLDC.obj (.const:.typeinfo:_ZTS9BLDCClass)
                  000061f7    0000000a     ADC.obj (.const:.typeinfo:_ZTS8ADCClass)
                  00006201    0000000a     LED.obj (.const:.typeinfo:_ZTS8LEDClass)
                  0000620b    0000000a     PWM.obj (.const:.typeinfo:_ZTS8PWMClass)
                  00006215    00000003     --HOLE-- [fill = 0]
                  00006218    00000008     Motor.obj (.const:.typeinfo:_ZTI10MotorClass)
                  00006220    00000008     SPISlave.obj (.const:.typeinfo:_ZTI13SPISlaveClass)
                  00006228    00000008     IIRFilter.obj (.const:.typeinfo:_ZTI14IIRFilterClass)
                  00006230    00000008     Commutator.obj (.const:.typeinfo:_ZTI15CommutatorClass)
                  00006238    00000008     SPISlave.obj (.const:.typeinfo:_ZTI15RingBufferClassI9message_sE)
                  00006240    00000008     SPISlave.obj (.const:.typeinfo:_ZTI15RingBufferClassIhE)
                  00006248    00000008     ZCDetector.obj (.const:.typeinfo:_ZTI15ZCDetectorClass)
                  00006250    00000008     StartupSequencer.obj (.const:.typeinfo:_ZTI16StartupSequencer)
                  00006258    00000008     MessageParser.obj (.const:.typeinfo:_ZTI18MessageParserClass)
                  00006260    00000008     CommutationController.obj (.const:.typeinfo:_ZTI26CommutationControllerClass)
                  00006268    00000008     ADC.obj (.const:.typeinfo:_ZTI8ADCClass)
                  00006270    00000008     LED.obj (.const:.typeinfo:_ZTI8LEDClass)
                  00006278    00000008     PWM.obj (.const:.typeinfo:_ZTI8PWMClass)
                  00006280    00000008     BLDC.obj (.const:.typeinfo:_ZTI9BLDCClass)
                  00006288    00000008     rtsv7M4_T_le_v4SPD16_eabi.lib : typeinfo_.obj (.const:.typeinfo:_ZTISt9type_info)
                  00006290    00000008                                   : typeinfo_.obj (.const:.typeinfo:_ZTIe)
                  00006298    00000008     driverlib.lib  : timer.obj (.const)
                  000062a0    00000004     rtsv7M4_T_le_v4SPD16_eabi.lib : typeinfo_.obj (.const:.typeinfo:_ZTSPKe)

.init_array 
*          0    000062a4    00000004     
                  000062a4    00000004     main.obj (.init_array)

.cinit     0    000062a8    000000a8     
                  000062a8    0000006e     (.cinit..data.load) [load image, compression = rle]
                  00006316    00000002     --HOLE-- [fill = 0]
                  00006318    0000000c     (__TI_handler_table)
                  00006324    00000004     --HOLE-- [fill = 0]
                  00006328    00000008     (.cinit..bss.load) [load image, compression = zero_init]
                  00006330    00000008     (.cinit..vtable.load) [load image, compression = zero_init]
                  00006338    00000018     (__TI_cinit_table)

.vtable    0    20000000    0000026c     UNINITIALIZED
                  20000000    0000026c     driverlib.lib  : interrupt.obj (.vtable)

.sysmem    0    20000270    00002000     UNINITIALIZED
                  20000270    00000008     rtsv7M4_T_le_v4SPD16_eabi.lib : memory.obj (.sysmem)
                  20000278    00001ff8     --HOLE--

.bss       0    20002270    00001668     UNINITIALIZED
                  20002270    0000162c     main.obj (.bss:SPISlave)
                  2000389c    00000020     main.obj (.bss)
                  200038bc    00000004     (.common:ADC0)
                  200038c0    00000004     (.common:ADC1)
                  200038c4    00000004     (.common:CommTimer0)
                  200038c8    00000004     (.common:CommTimer1)
                  200038cc    00000004     (.common:SPI0)
                  200038d0    00000004     (.common:_ZSt16__dummy_typeinfo)
                  200038d4    00000004     (.common:__dso_handle)

.stack     0    200038d8    00001000     UNINITIALIZED
                  200038d8    00001000     --HOLE--

.data      0    200048d8    000001cc     UNINITIALIZED
                  200048d8    000000b0     rtsv7M4_T_le_v4SPD16_eabi.lib : signal.obj (.data:sigtable)
                  20004988    00000080                                   : xvalues.obj (.data)
                  20004a08    00000068                                   : xfvalues.obj (.data)
                  20004a70    0000000c                                   : memory.obj (.data)
                  20004a7c    00000008                                   : _lock.obj (.data)
                  20004a84    00000008                                   : exit.obj (.data)
                  20004a8c    00000008                                   : feraiseexcept.obj (.data)
                  20004a94    00000004                                   : dtor_list.obj (.data)
                  20004a98    00000004                                   : errno.obj (.data)
                  20004a9c    00000004                                   : stkdepth_vars.obj (.data)
                  20004aa0    00000004                                   : vars.obj (.data)


LINKER GENERATED COPY TABLES

__TI_cinit_table @ 00006338 records: 3, size/record: 8, table size: 24
	.data: load addr=000062a8, load size=0000006e bytes, run addr=200048d8, run size=000001cc bytes, compression=rle
	.bss: load addr=00006328, load size=00000008 bytes, run addr=20002270, run size=00001668 bytes, compression=zero_init
	.vtable: load addr=00006330, load size=00000008 bytes, run addr=20000000, run size=0000026c bytes, compression=zero_init


LINKER GENERATED HANDLER TABLE

__TI_handler_table @ 00006318 records: 3, size/record: 4, table size: 12
	index: 0, handler: __TI_zero_init
	index: 1, handler: __TI_decompress_rle24
	index: 2, handler: __TI_decompress_none


GLOBAL SYMBOLS: SORTED ALPHABETICALLY BY Name 

address    name
--------   ----
0000599d   ADCIntClear
00005817   ADCIntDisable
000055ed   ADCIntEnable
0000559d   ADCIntRegister
00005745   ADCIntUnregister
000049b3   ADCSequenceConfigure
000051fd   ADCSequenceDataGet
00005889   ADCSequenceDisable
000058a3   ADCSequenceEnable
0000431d   ADCSequenceStepConfigure
00005175   C$$EXIT
00004e2b   GPIODirModeSet
0000291f   GPIOPadConfigSet
00004c99   GPIOPinConfigure
00005613   GPIOPinTypeADC
00005637   GPIOPinTypeGPIOOutput
0000565b   GPIOPinTypePWM
0000567f   GPIOPinTypeSSI
000056c5   GPIOPinWrite
00004a35   IntDisable
00004ab5   IntEnable
00004ee5   IntPrioritySet
00004e89   IntRegister
00005835   IntUnregister
00004f39   PWMGenConfigure
000058bd   PWMGenDisable
000058d7   PWMGenEnable
00005763   PWMGenIntTrigEnable
000053d1   PWMGenPeriodSet
0000536d   PWMOutputInvert
0000539f   PWMOutputState
00004f83   PWMPulseWidthSet
00005a09   PWMSyncTimeBase
00005a1b   PWMSyncUpdate
00005a89   ResetISR
000062a4   SHT$$INIT_ARRAY$$Base
000062a8   SHT$$INIT_ARRAY$$Limit
200038cc   SPI0
00004815   SSIConfigSetExpClk
000056a3   SSIDataGetNonBlocking
000056e5   SSIDataPutNonBlocking
000059b3   SSIEnable
00005a2d   SSIIntClear
0000590b   SSIIntDisable
00005923   SSIIntEnable
00005781   SSIIntRegister
0000579f   SSIIntStatus
00003199   SysCtlClockGet
0000355d   SysCtlClockSet
00005a9d   SysCtlDelay
00005705   SysCtlPWMClockSet
00005241   SysCtlPeripheralDisable
00005281   SysCtlPeripheralEnable
000048a1   TimerConfigure
000057bd   TimerDisable
000057db   TimerEnable
00005a3f   TimerIntClear
0000593b   TimerIntDisable
00005953   TimerIntEnable
000055c5   TimerIntRegister
000057f9   TimerIntUnregister
00005851   TimerLoadGet
00005549   TimerLoadSet
0000586d   TimerValueGet
20004988   _Denorm
0000440d   _Dint
000044d1   _Dnorm
00003e11   _Dscale
00004d69   _Dunscale
20004998   _Eps
20004a98   _Errno
00002f9d   _Exp
20004a08   _FDenorm
20004a18   _FEps
20004a28   _FInf
20004a38   _FNan
20004a58   _FRteps
20004a48   _FSnan
20004a68   _FXbig
20004a6c   _FZero
20004a8c   _Fenv
00005491   _Feraise
200049a8   _Hugeval
200049b8   _Inf
000023b1   _Log
200049c8   _Nan
200049e8   _Rteps
200049d8   _Snan
20004a90   _Tls_setup__Fenv
200049f8   _Xbig
00002def   _Z17emptyMessageQueuev
00002db3   _Z17updateReadBuffersv
00002d9b   _Z21__default_new_handlerv
00003a0d   _ZN10MotorClass4stopEv
000039f1   _ZN10MotorClass5startEv
00003953   _ZN10MotorClass6configE19motorChannelState_t
00003a29   _ZN10MotorClass8setPowerEj
00003a4f   _ZN10MotorClass9getStatusEv
000038ef   _ZN10MotorClassC1Ej
000038ef   _ZN10MotorClassC2Ej
0000393d   _ZN10MotorClassD0Ev
0000391b   _ZN10MotorClassD1Ev
0000391b   _ZN10MotorClassD2Ev
00004641   _ZN10__cxxabiv116__enum_type_infoD0Ev
0000463f   _ZN10__cxxabiv116__enum_type_infoD1Ev
0000463f   _ZN10__cxxabiv116__enum_type_infoD2Ev
00004637   _ZN10__cxxabiv117__array_type_infoD0Ev
00004635   _ZN10__cxxabiv117__array_type_infoD1Ev
00004635   _ZN10__cxxabiv117__array_type_infoD2Ev
0000462d   _ZN10__cxxabiv117__class_type_infoD0Ev
0000462b   _ZN10__cxxabiv117__class_type_infoD1Ev
0000462b   _ZN10__cxxabiv117__class_type_infoD2Ev
00004623   _ZN10__cxxabiv117__pbase_type_infoD0Ev
00004621   _ZN10__cxxabiv117__pbase_type_infoD1Ev
00004621   _ZN10__cxxabiv117__pbase_type_infoD2Ev
00004619   _ZN10__cxxabiv119__pointer_type_infoD0Ev
00004617   _ZN10__cxxabiv119__pointer_type_infoD1Ev
00004617   _ZN10__cxxabiv119__pointer_type_infoD2Ev
0000460f   _ZN10__cxxabiv120__function_type_infoD0Ev
0000460d   _ZN10__cxxabiv120__function_type_infoD1Ev
0000460d   _ZN10__cxxabiv120__function_type_infoD2Ev
00004605   _ZN10__cxxabiv120__si_class_type_infoD0Ev
00004603   _ZN10__cxxabiv120__si_class_type_infoD1Ev
00004603   _ZN10__cxxabiv120__si_class_type_infoD2Ev
000045fb   _ZN10__cxxabiv121__vmi_class_type_infoD0Ev
000045f9   _ZN10__cxxabiv121__vmi_class_type_infoD1Ev
000045f9   _ZN10__cxxabiv121__vmi_class_type_infoD2Ev
000045f1   _ZN10__cxxabiv123__fundamental_type_infoD0Ev
000045ef   _ZN10__cxxabiv123__fundamental_type_infoD1Ev
000045ef   _ZN10__cxxabiv123__fundamental_type_infoD2Ev
000045e7   _ZN10__cxxabiv129__pointer_to_member_type_infoD0Ev
000045e5   _ZN10__cxxabiv129__pointer_to_member_type_infoD1Ev
000045e5   _ZN10__cxxabiv129__pointer_to_member_type_infoD2Ev
0000596b   _ZN13SPISlaveClass10ISR0StaticEv
00002737   _ZN13SPISlaveClass10getMessageEP9message_s
0000286b   _ZN13SPISlaveClass10initAsSSI0Ev
0000274f   _ZN13SPISlaveClass18updateReadResponseEhj
00001cdd   _ZN13SPISlaveClass3ISREv
00002771   _ZN13SPISlaveClass4initEj
0000269d   _ZN13SPISlaveClassC1Ej
0000269d   _ZN13SPISlaveClassC2Ej
00002721   _ZN13SPISlaveClassD0Ev
000026f7   _ZN13SPISlaveClassD1Ev
000026f7   _ZN13SPISlaveClassD2Ev
00004113   _ZN14IIRFilterClass5resetEv
00004087   _ZN14IIRFilterClass7iterateEj
000040fb   _ZN14IIRFilterClass8getStateEv
00004029   _ZN14IIRFilterClassC1Eff
00004029   _ZN14IIRFilterClassC2Eff
00004071   _ZN14IIRFilterClassD0Ev
00004065   _ZN14IIRFilterClassD1Ev
00004065   _ZN14IIRFilterClassD2Ev
00002143   _ZN15CommutatorClass11setPWMWidthEj
000020bb   _ZN15CommutatorClass15disableSwitchesEv
000020fb   _ZN15CommutatorClass5alignEv
0000215b   _ZN15CommutatorClass9commutateEv
00002057   _ZN15CommutatorClassC1EjP8ADCClass
00002057   _ZN15CommutatorClassC2EjP8ADCClass
000020a5   _ZN15CommutatorClassD0Ev
00002095   _ZN15CommutatorClassD1Ev
00002095   _ZN15CommutatorClassD2Ev
00004d01   _ZN15RingBufferClassI9message_sE3popEPS0_
00004bb5   _ZN15RingBufferClassI9message_sE4pushES0_
00005401   _ZN15RingBufferClassI9message_sEC1Ev
000059c9   _ZN15RingBufferClassI9message_sED0Ev
00005a71   _ZN15RingBufferClassI9message_sED1Ev
00004fcd   _ZN15RingBufferClassIhE13returnToQueueEh
000050ed   _ZN15RingBufferClassIhE3popEPh
00005015   _ZN15RingBufferClassIhE4pushEh
00005573   _ZN15RingBufferClassIhEC1Ev
000059df   _ZN15RingBufferClassIhED0Ev
00005a7d   _ZN15RingBufferClassIhED1Ev
00003ae7   _ZN15ZCDetectorClass10ZCDetectedEjPjj
00003ad1   _ZN15ZCDetectorClass14setZCDirectionE23zeroCrossingDirection_t
00003aaf   _ZN15ZCDetectorClass5resetEv
00003a5d   _ZN15ZCDetectorClassC1Ev
00003a5d   _ZN15ZCDetectorClassC2Ev
00003a99   _ZN15ZCDetectorClassD0Ev
00003a8d   _ZN15ZCDetectorClassD1Ev
00003a8d   _ZN15ZCDetectorClassD2Ev
000034c5   _ZN16StartupSequencer11getPWMWidthEv
000034a9   _ZN16StartupSequencer20getCommutationPeriodEv
000034e1   _ZN16StartupSequencer21getAcquisitionEnabledEv
000034fd   _ZN16StartupSequencer5alignEv
0000353b   _ZN16StartupSequencer5resetEv
00003513   _ZN16StartupSequencer7advanceEv
00003381   _ZN16StartupSequencerC1Ev
00003381   _ZN16StartupSequencerC2Ev
00003493   _ZN16StartupSequencerD0Ev
00003487   _ZN16StartupSequencerD1Ev
00003487   _ZN16StartupSequencerD2Ev
00002d3d   _ZN18MessageParserClass12getDirectionEh
00002d5b   _ZN18MessageParserClass15getReadResponseEh
00002d1f   _ZN18MessageParserClass17getNumberOfParamsEh
00002d79   _ZN18MessageParserClass18updateReadResponseEhj
00002b5d   _ZN18MessageParserClassC1Ev
00002b5d   _ZN18MessageParserClassC2Ev
00002d09   _ZN18MessageParserClassD0Ev
00002cfd   _ZN18MessageParserClassD1Ev
00002cfd   _ZN18MessageParserClassD2Ev
00005461   _ZN26CommutationControllerClass10ISR0StaticEv
00005479   _ZN26CommutationControllerClass10ISR1StaticEv
00000b27   _ZN26CommutationControllerClass11enableTimerEv
00000c29   _ZN26CommutationControllerClass11setPWMWidthEj
00000b39   _ZN26CommutationControllerClass12disableTimerEv
00000d27   _ZN26CommutationControllerClass12initAsTimer0Ev
00000d5f   _ZN26CommutationControllerClass12initAsTimer1Ev
00000c05   _ZN26CommutationControllerClass15getTimeoutValueEv
00000b6f   _ZN26CommutationControllerClass15setTimeoutValueEj
00000cf3   _ZN26CommutationControllerClass18releasePeripheralsEv
00000c6b   _ZN26CommutationControllerClass20configurePeripheralsEj
00000b4b   _ZN26CommutationControllerClass20enableTimerInterruptEv
00000b5d   _ZN26CommutationControllerClass21disableTimerInterruptEv
00000c5b   _ZN26CommutationControllerClass23getNumberOfCommutationsEv
00000d99   _ZN26CommutationControllerClass3ISREv
00000ba3   _ZN26CommutationControllerClass5resetEv
00000b8b   _ZN26CommutationControllerClass5startEv
00000c17   _ZN26CommutationControllerClass8getValueEv
00000a49   _ZN26CommutationControllerClassC1EjP8ADCClassP9BLDCClass
00000a49   _ZN26CommutationControllerClassC2EjP8ADCClassP9BLDCClass
00000b11   _ZN26CommutationControllerClassD0Ev
00000add   _ZN26CommutationControllerClassD1Ev
00000add   _ZN26CommutationControllerClassD2Ev
00005431   _ZN8ADCClass10ISR0StaticEv
00005449   _ZN8ADCClass10ISR1StaticEv
00001251   _ZN8ADCClass10initAsADC0Ev
000012db   _ZN8ADCClass10initAsADC1Ev
00001147   _ZN8ADCClass14setZCDirectionE23zeroCrossingDirection_t
00001083   _ZN8ADCClass15enableInterruptEv
00001093   _ZN8ADCClass16disableInterruptEv
00001163   _ZN8ADCClass17enableAcquisitionEv
0000110f   _ZN8ADCClass17getZCDetectedFlagEv
00001175   _ZN8ADCClass18disableAcquisitionEv
00001225   _ZN8ADCClass18releasePeripheralsEv
00001135   _ZN8ADCClass19clearZCDetectedFlagEv
00001187   _ZN8ADCClass20configurePeripheralsEj
0000111f   _ZN8ADCClass23clearAcquisitionCounterEv
00001365   _ZN8ADCClass3ISREv
00001055   _ZN8ADCClass5resetEv
000010a3   _ZN8ADCClass8setPhaseE7phase_t
00000f79   _ZN8ADCClassC1EjP26CommutationControllerClassP9BLDCClass
00000f79   _ZN8ADCClassC2EjP26CommutationControllerClassP9BLDCClass
0000103f   _ZN8ADCClassD0Ev
00001005   _ZN8ADCClassD1Ev
00001005   _ZN8ADCClassD2Ev
00003fd9   _ZN8LEDClass10initAsLED0Ev
00004001   _ZN8LEDClass10initAsLED1Ev
00003fa5   _ZN8LEDClass3setEv
00003f91   _ZN8LEDClass5clearEv
00003fb9   _ZN8LEDClass6toggleEv
00003f21   _ZN8LEDClassC1Ej
00003f21   _ZN8LEDClassC2Ej
00003f7b   _ZN8LEDClassD0Ev
00003f6f   _ZN8LEDClassD1Ev
00003f6f   _ZN8LEDClassD2Ev
000007b3   _ZN8PWMClass10initAsPWM0Ev
00000909   _ZN8PWMClass10initAsPWM1Ev
00000321   _ZN8PWMClass11setPWMWidthEj
00000763   _ZN8PWMClass18releasePeripheralsEv
000005bb   _ZN8PWMClass20configurePeripheralsEj
000003a3   _ZN8PWMClass20setOutputEnableStateEbbbbbb
000004af   _ZN8PWMClass20setOutputInvertStateEbbbbbb
0000026d   _ZN8PWMClassC1Ej
0000026d   _ZN8PWMClassC2Ej
0000030b   _ZN8PWMClassD0Ev
000002c1   _ZN8PWMClassD1Ev
000002c1   _ZN8PWMClassD2Ev
00003c81   _ZN9BLDCClass11setPWMWidthEj
00003cb5   _ZN9BLDCClass15getControlStateEv
00003c69   _ZN9BLDCClass17runningClosedLoopEv
00003c3f   _ZN9BLDCClass4stopEv
00003c1f   _ZN9BLDCClass5startEv
00003cc3   _ZN9BLDCClass8setStateE14controlState_t
00003b9d   _ZN9BLDCClassC1Ej
00003b9d   _ZN9BLDCClassC2Ej
00003c09   _ZN9BLDCClassD0Ev
00003bef   _ZN9BLDCClassD1Ev
00003bef   _ZN9BLDCClassD2Ev
000045a7   _ZNKSt9type_info4nameEv
000045d7   _ZNKSt9type_info6beforeERKS_
000045c1   _ZNKSt9type_infoeqERKS_
000045ab   _ZNKSt9type_infoneERKS_
0000459f   _ZNSt9type_infoD0Ev
0000459d   _ZNSt9type_infoD1Ev
0000459d   _ZNSt9type_infoD2Ev
200038d0   _ZSt16__dummy_typeinfo
00004595   _ZSt21__gen_dummy_typeinfosv
00006218   _ZTI10MotorClass
00006220   _ZTI13SPISlaveClass
00006228   _ZTI14IIRFilterClass
00006230   _ZTI15CommutatorClass
00006238   _ZTI15RingBufferClassI9message_sE
00006240   _ZTI15RingBufferClassIhE
00006248   _ZTI15ZCDetectorClass
00006250   _ZTI16StartupSequencer
00006258   _ZTI18MessageParserClass
00006260   _ZTI26CommutationControllerClass
00006268   _ZTI8ADCClass
00006270   _ZTI8LEDClass
00006278   _ZTI8PWMClass
00006280   _ZTI9BLDCClass
000061b0   _ZTIN10__cxxabiv117__class_type_infoE
000061bc   _ZTIN10__cxxabiv117__pbase_type_infoE
000061c8   _ZTIN10__cxxabiv119__pointer_type_infoE
000061d4   _ZTIN10__cxxabiv120__si_class_type_infoE
000061e0   _ZTIN10__cxxabiv123__fundamental_type_infoE
00006054   _ZTIPKe
00006288   _ZTISt9type_info
00006290   _ZTIe
00006194   _ZTS10MotorClass
00006064   _ZTS13SPISlaveClass
00006041   _ZTS14IIRFilterClass
0000601d   _ZTS15CommutatorClass
00005fa5   _ZTS15RingBufferClassI9message_sE
00005fe0   _ZTS15RingBufferClassIhE
0000602f   _ZTS15ZCDetectorClass
0000600a   _ZTS16StartupSequencer
00005ff5   _ZTS18MessageParserClass
00005fc3   _ZTS26CommutationControllerClass
000061f7   _ZTS8ADCClass
00006201   _ZTS8LEDClass
0000620b   _ZTS8PWMClass
000061ec   _ZTS9BLDCClass
00005f61   _ZTSN10__cxxabiv117__class_type_infoE
00005f83   _ZTSN10__cxxabiv117__pbase_type_infoE
00005f3d   _ZTSN10__cxxabiv119__pointer_type_infoE
00005f18   _ZTSN10__cxxabiv120__si_class_type_infoE
00005ef0   _ZTSN10__cxxabiv123__fundamental_type_infoE
000062a0   _ZTSPKe
000061a1   _ZTSSt9type_info
00006052   _ZTSe
00006074   _ZTV10MotorClass
00006084   _ZTV13SPISlaveClass
00006094   _ZTV14IIRFilterClass
000060a4   _ZTV15CommutatorClass
000060b4   _ZTV15RingBufferClassI9message_sE
000060c4   _ZTV15RingBufferClassIhE
000060d4   _ZTV15ZCDetectorClass
000060e4   _ZTV16StartupSequencer
000060f4   _ZTV18MessageParserClass
00006104   _ZTV26CommutationControllerClass
00006114   _ZTV8ADCClass
00006124   _ZTV8LEDClass
00006134   _ZTV8PWMClass
00006144   _ZTV9BLDCClass
00006154   _ZTVN10__cxxabiv117__class_type_infoE
00006164   _ZTVN10__cxxabiv119__pointer_type_infoE
00006174   _ZTVN10__cxxabiv120__si_class_type_infoE
00006184   _ZTVN10__cxxabiv123__fundamental_type_infoE
00005a95   _ZdlPv
20004a00   _Zero
0000551d   _Znwj
200048d8   __STACK_END
00001000   __STACK_SIZE
20003ad8   __STACK_TOP
00002000   __SYSMEM_SIZE
00006338   __TI_CINIT_Base
00006350   __TI_CINIT_Limit
00006318   __TI_Handler_Table_Base
00006324   __TI_Handler_Table_Limit
00000001   __TI_args_main
00004781   __TI_auto_init
20004a84   __TI_cleanup_ptr
00005a63   __TI_decompress_none
00005aa3   __TI_decompress_rle24
20004a88   __TI_dtors_ptr
00000000   __TI_static_base__
00005a51   __TI_zero_init
00004281   __aeabi_atexit
0000492d   __aeabi_cdcmpeq
0000492d   __aeabi_cdcmple
000050a5   __aeabi_d2iz
000051b9   __aeabi_d2uiz
00003743   __aeabi_dadd
00003cd9   __aeabi_ddiv
0000412d   __aeabi_dmul
00003739   __aeabi_dsub
00005301   __aeabi_f2d
000054c1   __aeabi_i2d
00004651   __aeabi_memcpy
00004651   __aeabi_memcpy4
00004651   __aeabi_memcpy8
00005725   __aeabi_ui2d
ffffffff   __binit__
ffffffff   __c_args__
0000426f   __cxa_atexit
00004229   __cxa_finalize
00004269   __cxa_ia64_exit
200038d4   __dso_handle
200038d8   __stack
00002f1b   __sti___8_main_cpp_main
00005985   _args_main
0000505d   _c_int00
20004a7c   _lock
20004aa0   _new_handler
00005a03   _nop
000059fb   _register_lock
000059f5   _register_unlock
20000270   _sys_memory
20004a80   _unlock
00005179   abort
00004273   atexit
ffffffff   binit
00001ca5   calloc
00005131   copy_in
00005181   exit
00005339   feraiseexcept
000019ff   free
20000000   g_pfnRAMVectors
00000000   g_pfnVectors
000058f1   log
00002d9d   main
20004a9c   main_func_sp
0000199d   malloc
00001bc5   memalign
00004651   memcpy
00001911   minit
00001469   pow
000054ef   raise
00001abf   realloc
000052c1   signal


GLOBAL SYMBOLS: SORTED BY Symbol Address 

address    name
--------   ----
00000000   __TI_static_base__
00000000   g_pfnVectors
00000001   __TI_args_main
0000026d   _ZN8PWMClassC1Ej
0000026d   _ZN8PWMClassC2Ej
000002c1   _ZN8PWMClassD1Ev
000002c1   _ZN8PWMClassD2Ev
0000030b   _ZN8PWMClassD0Ev
00000321   _ZN8PWMClass11setPWMWidthEj
000003a3   _ZN8PWMClass20setOutputEnableStateEbbbbbb
000004af   _ZN8PWMClass20setOutputInvertStateEbbbbbb
000005bb   _ZN8PWMClass20configurePeripheralsEj
00000763   _ZN8PWMClass18releasePeripheralsEv
000007b3   _ZN8PWMClass10initAsPWM0Ev
00000909   _ZN8PWMClass10initAsPWM1Ev
00000a49   _ZN26CommutationControllerClassC1EjP8ADCClassP9BLDCClass
00000a49   _ZN26CommutationControllerClassC2EjP8ADCClassP9BLDCClass
00000add   _ZN26CommutationControllerClassD1Ev
00000add   _ZN26CommutationControllerClassD2Ev
00000b11   _ZN26CommutationControllerClassD0Ev
00000b27   _ZN26CommutationControllerClass11enableTimerEv
00000b39   _ZN26CommutationControllerClass12disableTimerEv
00000b4b   _ZN26CommutationControllerClass20enableTimerInterruptEv
00000b5d   _ZN26CommutationControllerClass21disableTimerInterruptEv
00000b6f   _ZN26CommutationControllerClass15setTimeoutValueEj
00000b8b   _ZN26CommutationControllerClass5startEv
00000ba3   _ZN26CommutationControllerClass5resetEv
00000c05   _ZN26CommutationControllerClass15getTimeoutValueEv
00000c17   _ZN26CommutationControllerClass8getValueEv
00000c29   _ZN26CommutationControllerClass11setPWMWidthEj
00000c5b   _ZN26CommutationControllerClass23getNumberOfCommutationsEv
00000c6b   _ZN26CommutationControllerClass20configurePeripheralsEj
00000cf3   _ZN26CommutationControllerClass18releasePeripheralsEv
00000d27   _ZN26CommutationControllerClass12initAsTimer0Ev
00000d5f   _ZN26CommutationControllerClass12initAsTimer1Ev
00000d99   _ZN26CommutationControllerClass3ISREv
00000f79   _ZN8ADCClassC1EjP26CommutationControllerClassP9BLDCClass
00000f79   _ZN8ADCClassC2EjP26CommutationControllerClassP9BLDCClass
00001000   __STACK_SIZE
00001005   _ZN8ADCClassD1Ev
00001005   _ZN8ADCClassD2Ev
0000103f   _ZN8ADCClassD0Ev
00001055   _ZN8ADCClass5resetEv
00001083   _ZN8ADCClass15enableInterruptEv
00001093   _ZN8ADCClass16disableInterruptEv
000010a3   _ZN8ADCClass8setPhaseE7phase_t
0000110f   _ZN8ADCClass17getZCDetectedFlagEv
0000111f   _ZN8ADCClass23clearAcquisitionCounterEv
00001135   _ZN8ADCClass19clearZCDetectedFlagEv
00001147   _ZN8ADCClass14setZCDirectionE23zeroCrossingDirection_t
00001163   _ZN8ADCClass17enableAcquisitionEv
00001175   _ZN8ADCClass18disableAcquisitionEv
00001187   _ZN8ADCClass20configurePeripheralsEj
00001225   _ZN8ADCClass18releasePeripheralsEv
00001251   _ZN8ADCClass10initAsADC0Ev
000012db   _ZN8ADCClass10initAsADC1Ev
00001365   _ZN8ADCClass3ISREv
00001469   pow
00001911   minit
0000199d   malloc
000019ff   free
00001abf   realloc
00001bc5   memalign
00001ca5   calloc
00001cdd   _ZN13SPISlaveClass3ISREv
00002000   __SYSMEM_SIZE
00002057   _ZN15CommutatorClassC1EjP8ADCClass
00002057   _ZN15CommutatorClassC2EjP8ADCClass
00002095   _ZN15CommutatorClassD1Ev
00002095   _ZN15CommutatorClassD2Ev
000020a5   _ZN15CommutatorClassD0Ev
000020bb   _ZN15CommutatorClass15disableSwitchesEv
000020fb   _ZN15CommutatorClass5alignEv
00002143   _ZN15CommutatorClass11setPWMWidthEj
0000215b   _ZN15CommutatorClass9commutateEv
000023b1   _Log
0000269d   _ZN13SPISlaveClassC1Ej
0000269d   _ZN13SPISlaveClassC2Ej
000026f7   _ZN13SPISlaveClassD1Ev
000026f7   _ZN13SPISlaveClassD2Ev
00002721   _ZN13SPISlaveClassD0Ev
00002737   _ZN13SPISlaveClass10getMessageEP9message_s
0000274f   _ZN13SPISlaveClass18updateReadResponseEhj
00002771   _ZN13SPISlaveClass4initEj
0000286b   _ZN13SPISlaveClass10initAsSSI0Ev
0000291f   GPIOPadConfigSet
00002b5d   _ZN18MessageParserClassC1Ev
00002b5d   _ZN18MessageParserClassC2Ev
00002cfd   _ZN18MessageParserClassD1Ev
00002cfd   _ZN18MessageParserClassD2Ev
00002d09   _ZN18MessageParserClassD0Ev
00002d1f   _ZN18MessageParserClass17getNumberOfParamsEh
00002d3d   _ZN18MessageParserClass12getDirectionEh
00002d5b   _ZN18MessageParserClass15getReadResponseEh
00002d79   _ZN18MessageParserClass18updateReadResponseEhj
00002d9b   _Z21__default_new_handlerv
00002d9d   main
00002db3   _Z17updateReadBuffersv
00002def   _Z17emptyMessageQueuev
00002f1b   __sti___8_main_cpp_main
00002f9d   _Exp
00003199   SysCtlClockGet
00003381   _ZN16StartupSequencerC1Ev
00003381   _ZN16StartupSequencerC2Ev
00003487   _ZN16StartupSequencerD1Ev
00003487   _ZN16StartupSequencerD2Ev
00003493   _ZN16StartupSequencerD0Ev
000034a9   _ZN16StartupSequencer20getCommutationPeriodEv
000034c5   _ZN16StartupSequencer11getPWMWidthEv
000034e1   _ZN16StartupSequencer21getAcquisitionEnabledEv
000034fd   _ZN16StartupSequencer5alignEv
00003513   _ZN16StartupSequencer7advanceEv
0000353b   _ZN16StartupSequencer5resetEv
0000355d   SysCtlClockSet
00003739   __aeabi_dsub
00003743   __aeabi_dadd
000038ef   _ZN10MotorClassC1Ej
000038ef   _ZN10MotorClassC2Ej
0000391b   _ZN10MotorClassD1Ev
0000391b   _ZN10MotorClassD2Ev
0000393d   _ZN10MotorClassD0Ev
00003953   _ZN10MotorClass6configE19motorChannelState_t
000039f1   _ZN10MotorClass5startEv
00003a0d   _ZN10MotorClass4stopEv
00003a29   _ZN10MotorClass8setPowerEj
00003a4f   _ZN10MotorClass9getStatusEv
00003a5d   _ZN15ZCDetectorClassC1Ev
00003a5d   _ZN15ZCDetectorClassC2Ev
00003a8d   _ZN15ZCDetectorClassD1Ev
00003a8d   _ZN15ZCDetectorClassD2Ev
00003a99   _ZN15ZCDetectorClassD0Ev
00003aaf   _ZN15ZCDetectorClass5resetEv
00003ad1   _ZN15ZCDetectorClass14setZCDirectionE23zeroCrossingDirection_t
00003ae7   _ZN15ZCDetectorClass10ZCDetectedEjPjj
00003b9d   _ZN9BLDCClassC1Ej
00003b9d   _ZN9BLDCClassC2Ej
00003bef   _ZN9BLDCClassD1Ev
00003bef   _ZN9BLDCClassD2Ev
00003c09   _ZN9BLDCClassD0Ev
00003c1f   _ZN9BLDCClass5startEv
00003c3f   _ZN9BLDCClass4stopEv
00003c69   _ZN9BLDCClass17runningClosedLoopEv
00003c81   _ZN9BLDCClass11setPWMWidthEj
00003cb5   _ZN9BLDCClass15getControlStateEv
00003cc3   _ZN9BLDCClass8setStateE14controlState_t
00003cd9   __aeabi_ddiv
00003e11   _Dscale
00003f21   _ZN8LEDClassC1Ej
00003f21   _ZN8LEDClassC2Ej
00003f6f   _ZN8LEDClassD1Ev
00003f6f   _ZN8LEDClassD2Ev
00003f7b   _ZN8LEDClassD0Ev
00003f91   _ZN8LEDClass5clearEv
00003fa5   _ZN8LEDClass3setEv
00003fb9   _ZN8LEDClass6toggleEv
00003fd9   _ZN8LEDClass10initAsLED0Ev
00004001   _ZN8LEDClass10initAsLED1Ev
00004029   _ZN14IIRFilterClassC1Eff
00004029   _ZN14IIRFilterClassC2Eff
00004065   _ZN14IIRFilterClassD1Ev
00004065   _ZN14IIRFilterClassD2Ev
00004071   _ZN14IIRFilterClassD0Ev
00004087   _ZN14IIRFilterClass7iterateEj
000040fb   _ZN14IIRFilterClass8getStateEv
00004113   _ZN14IIRFilterClass5resetEv
0000412d   __aeabi_dmul
00004229   __cxa_finalize
00004269   __cxa_ia64_exit
0000426f   __cxa_atexit
00004273   atexit
00004281   __aeabi_atexit
0000431d   ADCSequenceStepConfigure
0000440d   _Dint
000044d1   _Dnorm
00004595   _ZSt21__gen_dummy_typeinfosv
0000459d   _ZNSt9type_infoD1Ev
0000459d   _ZNSt9type_infoD2Ev
0000459f   _ZNSt9type_infoD0Ev
000045a7   _ZNKSt9type_info4nameEv
000045ab   _ZNKSt9type_infoneERKS_
000045c1   _ZNKSt9type_infoeqERKS_
000045d7   _ZNKSt9type_info6beforeERKS_
000045e5   _ZN10__cxxabiv129__pointer_to_member_type_infoD1Ev
000045e5   _ZN10__cxxabiv129__pointer_to_member_type_infoD2Ev
000045e7   _ZN10__cxxabiv129__pointer_to_member_type_infoD0Ev
000045ef   _ZN10__cxxabiv123__fundamental_type_infoD1Ev
000045ef   _ZN10__cxxabiv123__fundamental_type_infoD2Ev
000045f1   _ZN10__cxxabiv123__fundamental_type_infoD0Ev
000045f9   _ZN10__cxxabiv121__vmi_class_type_infoD1Ev
000045f9   _ZN10__cxxabiv121__vmi_class_type_infoD2Ev
000045fb   _ZN10__cxxabiv121__vmi_class_type_infoD0Ev
00004603   _ZN10__cxxabiv120__si_class_type_infoD1Ev
00004603   _ZN10__cxxabiv120__si_class_type_infoD2Ev
00004605   _ZN10__cxxabiv120__si_class_type_infoD0Ev
0000460d   _ZN10__cxxabiv120__function_type_infoD1Ev
0000460d   _ZN10__cxxabiv120__function_type_infoD2Ev
0000460f   _ZN10__cxxabiv120__function_type_infoD0Ev
00004617   _ZN10__cxxabiv119__pointer_type_infoD1Ev
00004617   _ZN10__cxxabiv119__pointer_type_infoD2Ev
00004619   _ZN10__cxxabiv119__pointer_type_infoD0Ev
00004621   _ZN10__cxxabiv117__pbase_type_infoD1Ev
00004621   _ZN10__cxxabiv117__pbase_type_infoD2Ev
00004623   _ZN10__cxxabiv117__pbase_type_infoD0Ev
0000462b   _ZN10__cxxabiv117__class_type_infoD1Ev
0000462b   _ZN10__cxxabiv117__class_type_infoD2Ev
0000462d   _ZN10__cxxabiv117__class_type_infoD0Ev
00004635   _ZN10__cxxabiv117__array_type_infoD1Ev
00004635   _ZN10__cxxabiv117__array_type_infoD2Ev
00004637   _ZN10__cxxabiv117__array_type_infoD0Ev
0000463f   _ZN10__cxxabiv116__enum_type_infoD1Ev
0000463f   _ZN10__cxxabiv116__enum_type_infoD2Ev
00004641   _ZN10__cxxabiv116__enum_type_infoD0Ev
00004651   __aeabi_memcpy
00004651   __aeabi_memcpy4
00004651   __aeabi_memcpy8
00004651   memcpy
00004781   __TI_auto_init
00004815   SSIConfigSetExpClk
000048a1   TimerConfigure
0000492d   __aeabi_cdcmpeq
0000492d   __aeabi_cdcmple
000049b3   ADCSequenceConfigure
00004a35   IntDisable
00004ab5   IntEnable
00004bb5   _ZN15RingBufferClassI9message_sE4pushES0_
00004c99   GPIOPinConfigure
00004d01   _ZN15RingBufferClassI9message_sE3popEPS0_
00004d69   _Dunscale
00004e2b   GPIODirModeSet
00004e89   IntRegister
00004ee5   IntPrioritySet
00004f39   PWMGenConfigure
00004f83   PWMPulseWidthSet
00004fcd   _ZN15RingBufferClassIhE13returnToQueueEh
00005015   _ZN15RingBufferClassIhE4pushEh
0000505d   _c_int00
000050a5   __aeabi_d2iz
000050ed   _ZN15RingBufferClassIhE3popEPh
00005131   copy_in
00005175   C$$EXIT
00005179   abort
00005181   exit
000051b9   __aeabi_d2uiz
000051fd   ADCSequenceDataGet
00005241   SysCtlPeripheralDisable
00005281   SysCtlPeripheralEnable
000052c1   signal
00005301   __aeabi_f2d
00005339   feraiseexcept
0000536d   PWMOutputInvert
0000539f   PWMOutputState
000053d1   PWMGenPeriodSet
00005401   _ZN15RingBufferClassI9message_sEC1Ev
00005431   _ZN8ADCClass10ISR0StaticEv
00005449   _ZN8ADCClass10ISR1StaticEv
00005461   _ZN26CommutationControllerClass10ISR0StaticEv
00005479   _ZN26CommutationControllerClass10ISR1StaticEv
00005491   _Feraise
000054c1   __aeabi_i2d
000054ef   raise
0000551d   _Znwj
00005549   TimerLoadSet
00005573   _ZN15RingBufferClassIhEC1Ev
0000559d   ADCIntRegister
000055c5   TimerIntRegister
000055ed   ADCIntEnable
00005613   GPIOPinTypeADC
00005637   GPIOPinTypeGPIOOutput
0000565b   GPIOPinTypePWM
0000567f   GPIOPinTypeSSI
000056a3   SSIDataGetNonBlocking
000056c5   GPIOPinWrite
000056e5   SSIDataPutNonBlocking
00005705   SysCtlPWMClockSet
00005725   __aeabi_ui2d
00005745   ADCIntUnregister
00005763   PWMGenIntTrigEnable
00005781   SSIIntRegister
0000579f   SSIIntStatus
000057bd   TimerDisable
000057db   TimerEnable
000057f9   TimerIntUnregister
00005817   ADCIntDisable
00005835   IntUnregister
00005851   TimerLoadGet
0000586d   TimerValueGet
00005889   ADCSequenceDisable
000058a3   ADCSequenceEnable
000058bd   PWMGenDisable
000058d7   PWMGenEnable
000058f1   log
0000590b   SSIIntDisable
00005923   SSIIntEnable
0000593b   TimerIntDisable
00005953   TimerIntEnable
0000596b   _ZN13SPISlaveClass10ISR0StaticEv
00005985   _args_main
0000599d   ADCIntClear
000059b3   SSIEnable
000059c9   _ZN15RingBufferClassI9message_sED0Ev
000059df   _ZN15RingBufferClassIhED0Ev
000059f5   _register_unlock
000059fb   _register_lock
00005a03   _nop
00005a09   PWMSyncTimeBase
00005a1b   PWMSyncUpdate
00005a2d   SSIIntClear
00005a3f   TimerIntClear
00005a51   __TI_zero_init
00005a63   __TI_decompress_none
00005a71   _ZN15RingBufferClassI9message_sED1Ev
00005a7d   _ZN15RingBufferClassIhED1Ev
00005a89   ResetISR
00005a95   _ZdlPv
00005a9d   SysCtlDelay
00005aa3   __TI_decompress_rle24
00005ef0   _ZTSN10__cxxabiv123__fundamental_type_infoE
00005f18   _ZTSN10__cxxabiv120__si_class_type_infoE
00005f3d   _ZTSN10__cxxabiv119__pointer_type_infoE
00005f61   _ZTSN10__cxxabiv117__class_type_infoE
00005f83   _ZTSN10__cxxabiv117__pbase_type_infoE
00005fa5   _ZTS15RingBufferClassI9message_sE
00005fc3   _ZTS26CommutationControllerClass
00005fe0   _ZTS15RingBufferClassIhE
00005ff5   _ZTS18MessageParserClass
0000600a   _ZTS16StartupSequencer
0000601d   _ZTS15CommutatorClass
0000602f   _ZTS15ZCDetectorClass
00006041   _ZTS14IIRFilterClass
00006052   _ZTSe
00006054   _ZTIPKe
00006064   _ZTS13SPISlaveClass
00006074   _ZTV10MotorClass
00006084   _ZTV13SPISlaveClass
00006094   _ZTV14IIRFilterClass
000060a4   _ZTV15CommutatorClass
000060b4   _ZTV15RingBufferClassI9message_sE
000060c4   _ZTV15RingBufferClassIhE
000060d4   _ZTV15ZCDetectorClass
000060e4   _ZTV16StartupSequencer
000060f4   _ZTV18MessageParserClass
00006104   _ZTV26CommutationControllerClass
00006114   _ZTV8ADCClass
00006124   _ZTV8LEDClass
00006134   _ZTV8PWMClass
00006144   _ZTV9BLDCClass
00006154   _ZTVN10__cxxabiv117__class_type_infoE
00006164   _ZTVN10__cxxabiv119__pointer_type_infoE
00006174   _ZTVN10__cxxabiv120__si_class_type_infoE
00006184   _ZTVN10__cxxabiv123__fundamental_type_infoE
00006194   _ZTS10MotorClass
000061a1   _ZTSSt9type_info
000061b0   _ZTIN10__cxxabiv117__class_type_infoE
000061bc   _ZTIN10__cxxabiv117__pbase_type_infoE
000061c8   _ZTIN10__cxxabiv119__pointer_type_infoE
000061d4   _ZTIN10__cxxabiv120__si_class_type_infoE
000061e0   _ZTIN10__cxxabiv123__fundamental_type_infoE
000061ec   _ZTS9BLDCClass
000061f7   _ZTS8ADCClass
00006201   _ZTS8LEDClass
0000620b   _ZTS8PWMClass
00006218   _ZTI10MotorClass
00006220   _ZTI13SPISlaveClass
00006228   _ZTI14IIRFilterClass
00006230   _ZTI15CommutatorClass
00006238   _ZTI15RingBufferClassI9message_sE
00006240   _ZTI15RingBufferClassIhE
00006248   _ZTI15ZCDetectorClass
00006250   _ZTI16StartupSequencer
00006258   _ZTI18MessageParserClass
00006260   _ZTI26CommutationControllerClass
00006268   _ZTI8ADCClass
00006270   _ZTI8LEDClass
00006278   _ZTI8PWMClass
00006280   _ZTI9BLDCClass
00006288   _ZTISt9type_info
00006290   _ZTIe
000062a0   _ZTSPKe
000062a4   SHT$$INIT_ARRAY$$Base
000062a8   SHT$$INIT_ARRAY$$Limit
00006318   __TI_Handler_Table_Base
00006324   __TI_Handler_Table_Limit
00006338   __TI_CINIT_Base
00006350   __TI_CINIT_Limit
20000000   g_pfnRAMVectors
20000270   _sys_memory
200038cc   SPI0
200038d0   _ZSt16__dummy_typeinfo
200038d4   __dso_handle
200038d8   __stack
20003ad8   __STACK_TOP
200048d8   __STACK_END
20004988   _Denorm
20004998   _Eps
200049a8   _Hugeval
200049b8   _Inf
200049c8   _Nan
200049d8   _Snan
200049e8   _Rteps
200049f8   _Xbig
20004a00   _Zero
20004a08   _FDenorm
20004a18   _FEps
20004a28   _FInf
20004a38   _FNan
20004a48   _FSnan
20004a58   _FRteps
20004a68   _FXbig
20004a6c   _FZero
20004a7c   _lock
20004a80   _unlock
20004a84   __TI_cleanup_ptr
20004a88   __TI_dtors_ptr
20004a8c   _Fenv
20004a90   _Tls_setup__Fenv
20004a98   _Errno
20004a9c   main_func_sp
20004aa0   _new_handler
ffffffff   __binit__
ffffffff   __c_args__
ffffffff   binit

[421 symbols]
